///////////////////////////////////////////////////////////////////////////////
//
// IAR ANSI C/C++ Compiler V8.40.2.214/W32 for ARM        09/May/2022  14:11:59
// Copyright 1999-2019 IAR Systems AB.
//
//    Cpu mode     =  
//    Endian       =  little
//    Source file  =
//        D:\Nikolaos\My Documents\IAR
//        projects\CourseWork-main2\CourseWorkIARproject\main.cpp
//    Command line =
//        -f C:\Users\Nikolaos\AppData\Local\Temp\EWDF55.tmp ("D:\Nikolaos\My
//        Documents\IAR
//        projects\CourseWork-main2\CourseWorkIARproject\main.cpp" -lC
//        "D:\Nikolaos\My Documents\IAR
//        projects\CourseWork-main2\CourseWorkIARproject\Debug\List" -lA
//        "D:\Nikolaos\My Documents\IAR
//        projects\CourseWork-main2\CourseWorkIARproject\Debug\List" -o
//        "D:\Nikolaos\My Documents\IAR
//        projects\CourseWork-main2\CourseWorkIARproject\Debug\Obj" --no_cse
//        --no_unroll --no_inline --no_code_motion --no_tbaa --no_clustering
//        --no_scheduling --debug --endian=little --cpu=Cortex-M4 -e
//        --fpu=VFPv4_sp --dlib_config "D:\IAR Systems\Embedded Workbench
//        8.3\arm\inc\c\DLib_Config_Normal.h" -I "D:\Nikolaos\My Documents\IAR
//        projects\CourseWork-main2\CourseWorkIARproject\Rtos\" -I
//        "D:\Nikolaos\My Documents\IAR
//        projects\CourseWork-main2\CourseWorkIARproject\Rtos\wrapper\" -I
//        "D:\Nikolaos\My Documents\IAR
//        projects\CourseWork-main2\CourseWorkIARproject\Rtos\wrapper\FreeRtos\"
//        -I "D:\Nikolaos\My Documents\IAR
//        projects\CourseWork-main2\CourseWorkIARproject\Rtos\FreeRtos\" -I
//        "D:\Nikolaos\My Documents\IAR
//        projects\CourseWork-main2\CourseWorkIARproject\Rtos\FreeRtos\include\"
//        -I "D:\Nikolaos\My Documents\IAR
//        projects\CourseWork-main2\CourseWorkIARproject\Rtos\FreeRtos\portable\"
//        -I "D:\Nikolaos\My Documents\IAR
//        projects\CourseWork-main2\CourseWorkIARproject\Rtos\FreeRtos\portable\Common\"
//        -I "D:\Nikolaos\My Documents\IAR
//        projects\CourseWork-main2\CourseWorkIARproject\Rtos\FreeRtos\portable\IAR\"
//        -I "D:\Nikolaos\My Documents\IAR
//        projects\CourseWork-main2\CourseWorkIARproject\Rtos\FreeRtos\portable\IAR\ARM_CM4F\"
//        -I "D:\Nikolaos\My Documents\IAR
//        projects\CourseWork-main2\CourseWorkIARproject\Rtos\FreeRtos\portable\MemMang\"
//        -I "D:\Nikolaos\My Documents\IAR
//        projects\CourseWork-main2\CourseWorkIARproject\MyTasks\" -I
//        "D:\Nikolaos\My Documents\IAR
//        projects\CourseWork-main2\CourseWorkIARproject\CMSIS\" -I
//        "D:\Nikolaos\My Documents\IAR
//        projects\CourseWork-main2\CourseWorkIARproject\Application\" -I
//        "D:\Nikolaos\My Documents\IAR
//        projects\CourseWork-main2\CourseWorkIARproject\Application\Diagnostic\"
//        -I "D:\Nikolaos\My Documents\IAR
//        projects\CourseWork-main2\CourseWorkIARproject\AHardware\" -I
//        "D:\Nikolaos\My Documents\IAR
//        projects\CourseWork-main2\CourseWorkIARproject\AHardware\GpioPort\"
//        -I "D:\Nikolaos\My Documents\IAR
//        projects\CourseWork-main2\CourseWorkIARproject\AHardware\IrqController\"
//        -I "D:\Nikolaos\My Documents\IAR
//        projects\CourseWork-main2\CourseWorkIARproject\AHardware\Registers\STM32F411\FieldValues\"
//        -I "D:\Nikolaos\My Documents\IAR
//        projects\CourseWork-main2\CourseWorkIARproject\AHardware\Registers\STM32F411\"
//        -I "D:\Nikolaos\My Documents\IAR
//        projects\CourseWork-main2\CourseWorkIARproject\AHardware\Registers\"
//        -I "D:\Nikolaos\My Documents\IAR
//        projects\CourseWork-main2\CourseWorkIARproject\AHardware\Atomic\" -I
//        "D:\Nikolaos\My Documents\IAR
//        projects\CourseWork-main2\CourseWorkIARproject\Common\" -I
//        "D:\Nikolaos\My Documents\IAR
//        projects\CourseWork-main2\CourseWorkIARproject\Common\Singleton\" -I
//        "D:\Nikolaos\My Documents\IAR
//        projects\CourseWork-main2\CourseWorkIARproject\Common\RomObject\" -I
//        "D:\Nikolaos\My Documents\IAR
//        projects\CourseWork-main2\CourseWorkIARproject\AHardware\Port\" -I
//        "D:\Nikolaos\My Documents\IAR
//        projects\CourseWork-main2\CourseWorkIARproject\AHardware\Pin\" -I
//        "D:\Nikolaos\My Documents\IAR
//        projects\CourseWork-main2\CourseWorkIARproject\Application\Button\"
//        -I "D:\Nikolaos\My Documents\IAR
//        projects\CourseWork-main2\CourseWorkIARproject\Application\Led\" -I
//        "D:\Nikolaos\My Documents\IAR
//        projects\CourseWork-main2\CourseWorkIARproject\Application\Measurement\"
//        -I "D:\Nikolaos\My Documents\IAR
//        projects\CourseWork-main2\CourseWorkIARproject\AHardware\USART\" -I
//        "D:\Nikolaos\My Documents\IAR
//        projects\CourseWork-main2\CourseWorkIARproject\AHardware\Registers\CortexM4\"
//        -I "D:\Nikolaos\My Documents\IAR
//        projects\CourseWork-main2\CourseWorkIARproject\AHardware\Registers\CortexM4\FieldValues\"
//        -I "D:\Nikolaos\My Documents\IAR
//        projects\CourseWork-main2\CourseWorkIARproject\AHardware\SPI\" -I
//        "D:\Nikolaos\My Documents\IAR
//        projects\CourseWork-main2\CourseWorkIARproject\AHardware\BME280Driver\"
//        -I "D:\Nikolaos\My Documents\IAR
//        projects\CourseWork-main2\CourseWorkIARproject\AHardware\EPDDriver\"
//        -I "D:\Nikolaos\My Documents\IAR
//        projects\CourseWork-main2\CourseWorkIARproject\Application\GUI\" -I
//        "D:\Nikolaos\My Documents\IAR
//        projects\CourseWork-main2\CourseWorkIARproject\Application\GUI\Fonts\"
//        -I "D:\Nikolaos\My Documents\IAR
//        projects\CourseWork-main2\CourseWorkIARproject\Application\Display\"
//        -On --c++ --no_exceptions --no_rtti)
//    Locale       =  C
//    List file    =
//        D:\Nikolaos\My Documents\IAR
//        projects\CourseWork-main2\CourseWorkIARproject\Debug\List\main.s
//
///////////////////////////////////////////////////////////////////////////////

        RTMODEL "__CPP_Exceptions", "Disabled"
        RTMODEL "__CPP_Language", "C++14"
        RTMODEL "__SystemLibrary", "DLib"
        RTMODEL "__dlib_file_descriptor", "0"
        RTMODEL "__dlib_full_locale_support", "0"
        RTMODEL "__dlib_version", "6"
        RTMODEL "__iar_require _Printf", "floats,widths"
        AAPCS BASE,INTERWORK,VFP
        PRESERVE8
        REQUIRE8

        #define SHT_PROGBITS 0x1
        #define SHT_INIT_ARRAY 0xe

        EXTERN _ZTVN10__cxxabiv117__class_type_infoE
        EXTERN _ZTVN10__cxxabiv120__si_class_type_infoE
        EXTERN _ZdlPv
        EXTERN _Znwj
        EXTERN __aeabi_assert
        EXTERN __aeabi_atexit
        EXTERN __aeabi_d2f
        EXTERN __aeabi_d2iz
        EXTERN __aeabi_d2uiz
        EXTERN __aeabi_dadd
        EXTERN __aeabi_ddiv
        EXTERN __aeabi_dmul
        EXTERN __aeabi_dsub
        EXTERN __aeabi_f2d
        EXTERN __aeabi_l2f
        EXTERN __aeabi_ldivmod
        EXTERN __aeabi_memcpy
        EXTERN __aeabi_memmove
        EXTERN __aeabi_memset
        EXTERN __aeabi_ui2d
        EXTERN __aeabi_uldivmod
        EXTERN __dso_handle
        EXTWEAK __iar_EmptyStepPoint
        EXTERN __iar_Raise_len
        EXTERN __iar_Raise_ran
        EXTERN logf
        EXTERN round
        EXTERN sprintf
        EXTERN strlen
        EXTERN strncat
        EXTERN vEventGroupDelete
        EXTERN vEventGroupSetBitsCallback
        EXTERN vTaskDelay
        EXTERN vTaskStartScheduler
        EXTERN xEventGroupCreateStatic
        EXTERN xEventGroupWaitBits
        EXTERN xTaskCreateStatic
        EXTERN xTaskGetTickCount
        EXTERN xTimerPendFunctionCallFromISR

        PUBLIC SysCtlDelay
        PUBLIC SystemCoreClock
        PUBLIC _Z6fcnHumv
        PUBLIC _Z7fcnDewPv
        PUBLIC _Z7fcnTempv
        PUBLIC _Z8Delay_msy
        PUBLIC _Z8fcnPressv
        PUBLIC _ZGV11eInkDisplay
        PUBLIC _ZGV11temperature
        PUBLIC _ZGV20bluetoothTransceiver
        PUBLIC _ZGV6bme280
        PUBLIC _ZGV8dewPoint
        PUBLIC _ZGV8humidity
        PUBLIC _ZGV8pressure
        PUBLIC _ZN11Measurement12ShowUnitNameE4Unit
        PUBLIC _ZN11Measurement8GetValueE4Unit
        PUBLIC _ZN11Measurement8GetValueEv
        PUBLIC _ZN11Measurement9CheckUnitE4Unit
        PUBLIC _ZN11MeasurementC1ESs4UnitPFdvE
        PUBLIC _ZN11MeasurementC1ESsP4UnitjS0_PFdvE
        PUBLIC _ZN11MeasurementC2ESsP4UnitjS0_PFdvE
        PUBLIC _ZN11MeasurementD1Ev
        PUBLIC _ZN11MeasurementD2Ev
        PUBLIC _ZN11Temperature8GetValueE4Unit
        PUBLIC _ZN11Temperature8GetValueEv
        PUBLIC _ZN11TemperatureC1ESsPFdvE
        PUBLIC _ZN11TemperatureD1Ev
        PUBLIC _ZN11usartDriverI6Usart2E11SendMessageEPcj
        PUBLIC _ZN11usartDriverI6Usart2E6EnableEv
        PUBLIC _ZN11usartDriverI6Usart2EC1Ev
        PUBLIC _ZN12BME280DriverIL_Z15spi1TransceiverE3PinI4PortI5GPIOBELh10EEE11GetDewPointEv
        PUBLIC _ZN12BME280DriverIL_Z15spi1TransceiverE3PinI4PortI5GPIOBELh10EEE11GetHumidityEv
        PUBLIC _ZN12BME280DriverIL_Z15spi1TransceiverE3PinI4PortI5GPIOBELh10EEE11GetPressureEv
        PUBLIC _ZN12BME280DriverIL_Z15spi1TransceiverE3PinI4PortI5GPIOBELh10EEE12CalcDewPointEv
        PUBLIC _ZN12BME280DriverIL_Z15spi1TransceiverE3PinI4PortI5GPIOBELh10EEE12ReadHumidityEv
        PUBLIC _ZN12BME280DriverIL_Z15spi1TransceiverE3PinI4PortI5GPIOBELh10EEE12ReadPressureEv
        PUBLIC _ZN12BME280DriverIL_Z15spi1TransceiverE3PinI4PortI5GPIOBELh10EEE12ReadRegisterEc
        PUBLIC _ZN12BME280DriverIL_Z15spi1TransceiverE3PinI4PortI5GPIOBELh10EEE13WriteRegisterEcc
        PUBLIC _ZN12BME280DriverIL_Z15spi1TransceiverE3PinI4PortI5GPIOBELh10EEE14GetTemperatureEv
        PUBLIC _ZN12BME280DriverIL_Z15spi1TransceiverE3PinI4PortI5GPIOBELh10EEE15ReadTemperatureEv
        PUBLIC _ZN12BME280DriverIL_Z15spi1TransceiverE3PinI4PortI5GPIOBELh10EEE17StartMeasurementsEv
        PUBLIC _ZN12BME280DriverIL_Z15spi1TransceiverE3PinI4PortI5GPIOBELh10EEE19ReadSpanOfRegistersEcPcj
        PUBLIC _ZN12BME280DriverIL_Z15spi1TransceiverE3PinI4PortI5GPIOBELh10EEE23InitializeCalibrateDataEv
        PUBLIC _ZN12BME280DriverIL_Z15spi1TransceiverE3PinI4PortI5GPIOBELh10EEE7MeasureEv
        PUBLIC _ZN12BME280DriverIL_Z15spi1TransceiverE3PinI4PortI5GPIOBELh10EEEC1Ev
        PUBLIC _ZN12RegisterBaseILj1073819660ELj32E13ReadWriteModeE3GetIS0_vEEjv
        PUBLIC _ZN12RegisterBaseILj1073872916ELj32E13ReadWriteModeE6ToggleIS0_vEEvj
        PUBLIC _ZN12RegisterBaseILj1073873944ELj32E9WriteModeE5WriteIS0_vEEvj
        PUBLIC _ZN12RegisterBaseILj1073874944ELj32E13ReadWriteModeE3GetIS0_vEEjv
        PUBLIC _ZN12RegisterBaseILj1073874944ELj32E13ReadWriteModeE5WriteIS0_vEEvj
        PUBLIC _ZN12RegisterBaseILj1073874960ELj32E8ReadModeE3GetIS0_vEEjv
        PUBLIC _ZN12RegisterBaseILj1073874964ELj32E13ReadWriteModeE6ToggleIS0_vEEvj
        PUBLIC _ZN12RegisterBaseILj1073874968ELj32E9WriteModeE5WriteIS0_vEEvj
        PUBLIC _ZN12RegisterBaseILj3758153988ELj32E13ReadWriteModeE5WriteIS0_vEEvj
        PUBLIC _ZN12ScreenDriverILt400ELt300EE10DrawStringE5PointPKc
        PUBLIC _ZN12ScreenDriverILt400ELt300EE10ResetImageEv
        PUBLIC _ZN12ScreenDriverILt400ELt300EE12ClearWindowsE5PointS1_5Color
        PUBLIC _ZN12ScreenDriverILt400ELt300EE8DrawCharE5Pointc
        PUBLIC _ZN12ScreenDriverILt400ELt300EE8SetPixelE5Point5Color
        PUBLIC _ZN12ScreenDriverILt400ELt300EEC1ERKSt5arrayIhLj15000EEP5tFont
        PUBLIC _ZN13BluetoothTask7ExecuteEv
        PUBLIC _ZN13BluetoothTaskC1Ev
        PUBLIC _ZN13RegisterFieldIN4SPI25CRCPRELj0ELj16E13ReadWriteModevE3SetIS2_vEEvj
        PUBLIC _ZN13RegisterFieldIN6USART23BRRELj0ELj4E13ReadWriteModevE3SetIS2_vEEvj
        PUBLIC _ZN13RegisterFieldIN6USART23BRRELj4ELj12E13ReadWriteModevE3SetIS2_vEEvj
        PUBLIC _ZN13RegisterFieldIN6USART23CR1ELj15ELj1E13ReadWriteModevE3GetIS2_vEEjv
        PUBLIC _ZN14FieldValueBaseI18RCC_CFGR_SW_ValuesIN3RCC4CFGRELj0ELj2E13ReadWriteModeNS1_11RCCCFGRBaseEES4_Lj0EE3SetIS3_vEEvv
        PUBLIC _ZN14FieldValueBaseI18SPI1_CR1_BR_ValuesIN4SPI13CR1ELj3ELj3E13ReadWriteModeNS1_11SPI1CR1BaseEES4_Lj0EE3SetIS3_vEEvv
        PUBLIC _ZN14FieldValueBaseI18SPI2_CR1_BR_ValuesIN4SPI23CR1ELj3ELj3E13ReadWriteModeNS1_11SPI2CR1BaseEES4_Lj0EE3SetIS3_vEEvv
        PUBLIC _ZN14FieldValueBaseI19RCC_CFGR_SWS_ValuesIN3RCC4CFGRELj2ELj2E8ReadModeNS1_11RCCCFGRBaseEES4_Lj0EE5IsSetIS3_vEEbv
        PUBLIC _ZN14FieldValueBaseI19RCC_CR_HSION_ValuesIN3RCC2CRELj0ELj1E13ReadWriteModeNS1_9RCCCRBaseEES4_Lj1EE3SetIS3_vEEvv
        PUBLIC _ZN14FieldValueBaseI19SPI1_CR1_DFF_ValuesIN4SPI13CR1ELj11ELj1E13ReadWriteModeNS1_11SPI1CR1BaseEES4_Lj0EE3SetIS3_vEEvv
        PUBLIC _ZN14FieldValueBaseI19SPI1_CR1_SPE_ValuesIN4SPI13CR1ELj6ELj1E13ReadWriteModeNS1_11SPI1CR1BaseEES4_Lj1EE3SetIS3_vEEvv
        PUBLIC _ZN14FieldValueBaseI19SPI1_CR1_SSI_ValuesIN4SPI13CR1ELj8ELj1E13ReadWriteModeNS1_11SPI1CR1BaseEES4_Lj1EE3SetIS3_vEEvv
        PUBLIC _ZN14FieldValueBaseI19SPI1_CR1_SSM_ValuesIN4SPI13CR1ELj9ELj1E13ReadWriteModeNS1_11SPI1CR1BaseEES4_Lj1EE3SetIS3_vEEvv
        PUBLIC _ZN14FieldValueBaseI19SPI2_CR1_DFF_ValuesIN4SPI23CR1ELj11ELj1E13ReadWriteModeNS1_11SPI2CR1BaseEES4_Lj0EE3SetIS3_vEEvv
        PUBLIC _ZN14FieldValueBaseI19SPI2_CR1_SPE_ValuesIN4SPI23CR1ELj6ELj1E13ReadWriteModeNS1_11SPI2CR1BaseEES4_Lj1EE3SetIS3_vEEvv
        PUBLIC _ZN14FieldValueBaseI19SPI2_CR1_SSI_ValuesIN4SPI23CR1ELj8ELj1E13ReadWriteModeNS1_11SPI2CR1BaseEES4_Lj1EE3SetIS3_vEEvv
        PUBLIC _ZN14FieldValueBaseI19SPI2_CR1_SSM_ValuesIN4SPI23CR1ELj9ELj1E13ReadWriteModeNS1_11SPI2CR1BaseEES4_Lj1EE3SetIS3_vEEvv
        PUBLIC _ZN14FieldValueBaseI19USART2_CR1_M_ValuesIN6USART23CR1ELj12ELj1E13ReadWriteModeNS1_13USART2CR1BaseEES4_Lj0EE3SetIS3_vEEvv
        PUBLIC _ZN14FieldValueBaseI20RCC_CR_HSIRDY_ValuesIN3RCC2CRELj1ELj1E8ReadModeNS1_9RCCCRBaseEES4_Lj0EE5IsSetIS3_vEEbv
        PUBLIC _ZN14FieldValueBaseI20SPI1_CR1_CPHA_ValuesIN4SPI13CR1ELj0ELj1E13ReadWriteModeNS1_11SPI1CR1BaseEES4_Lj1EE3SetIS3_vEEvv
        PUBLIC _ZN14FieldValueBaseI20SPI1_CR1_CPOL_ValuesIN4SPI13CR1ELj1ELj1E13ReadWriteModeNS1_11SPI1CR1BaseEES4_Lj1EE3SetIS3_vEEvv
        PUBLIC _ZN14FieldValueBaseI20SPI1_CR1_MSTR_ValuesIN4SPI13CR1ELj2ELj1E13ReadWriteModeNS1_11SPI1CR1BaseEES4_Lj1EE3SetIS3_vEEvv
        PUBLIC _ZN14FieldValueBaseI20SPI1_CR2_SSOE_ValuesIN4SPI13CR2ELj2ELj1E13ReadWriteModeNS1_11SPI1CR2BaseEES4_Lj1EE3SetIS3_vEEvv
        PUBLIC _ZN14FieldValueBaseI20SPI2_CR1_CPHA_ValuesIN4SPI23CR1ELj0ELj1E13ReadWriteModeNS1_11SPI2CR1BaseEES4_Lj1EE3SetIS3_vEEvv
        PUBLIC _ZN14FieldValueBaseI20SPI2_CR1_CPOL_ValuesIN4SPI23CR1ELj1ELj1E13ReadWriteModeNS1_11SPI2CR1BaseEES4_Lj1EE3SetIS3_vEEvv
        PUBLIC _ZN14FieldValueBaseI20SPI2_CR1_MSTR_ValuesIN4SPI23CR1ELj2ELj1E13ReadWriteModeNS1_11SPI2CR1BaseEES4_Lj1EE3SetIS3_vEEvv
        PUBLIC _ZN14FieldValueBaseI20USART2_CR1_RE_ValuesIN6USART23CR1ELj2ELj1E13ReadWriteModeNS1_13USART2CR1BaseEES4_Lj1EE3SetIS3_vEEvv
        PUBLIC _ZN14FieldValueBaseI20USART2_CR1_TE_ValuesIN6USART23CR1ELj3ELj1E13ReadWriteModeNS1_13USART2CR1BaseEES4_Lj1EE3SetIS3_vEEvv
        PUBLIC _ZN14FieldValueBaseI20USART2_CR1_UE_ValuesIN6USART23CR1ELj13ELj1E13ReadWriteModeNS1_13USART2CR1BaseEES4_Lj1EE3SetIS3_vEEvv
        PUBLIC _ZN14FieldValueBaseI21GPIOB_BSRR_BS1_ValuesIN5GPIOB4BSRRELj1ELj1E9WriteModeNS1_13GPIOBBSRRBaseEES4_Lj1EE5WriteIS3_vEEvv
        PUBLIC _ZN14FieldValueBaseI21SPI1_CR1_CRCEN_ValuesIN4SPI13CR1ELj13ELj1E13ReadWriteModeNS1_11SPI1CR1BaseEES4_Lj0EE3SetIS3_vEEvv
        PUBLIC _ZN14FieldValueBaseI21SPI1_CR2_TXEIE_ValuesIN4SPI13CR2ELj7ELj1E13ReadWriteModeNS1_11SPI1CR2BaseEES4_Lj1EE3SetIS3_vEEvv
        PUBLIC _ZN14FieldValueBaseI21SPI2_CR1_CRCEN_ValuesIN4SPI23CR1ELj13ELj1E13ReadWriteModeNS1_11SPI2CR1BaseEES4_Lj0EE3SetIS3_vEEvv
        PUBLIC _ZN14FieldValueBaseI21SPI2_CR2_TXEIE_ValuesIN4SPI23CR2ELj7ELj1E13ReadWriteModeNS1_11SPI2CR2BaseEES4_Lj1EE3SetIS3_vEEvv
        PUBLIC _ZN14FieldValueBaseI21USART2_CR1_PCE_ValuesIN6USART23CR1ELj10ELj1E13ReadWriteModeNS1_13USART2CR1BaseEES4_Lj0EE3SetIS3_vEEvv
        PUBLIC _ZN14FieldValueBaseI22GPIOB_BSRR_BS10_ValuesIN5GPIOB4BSRRELj10ELj1E9WriteModeNS1_13GPIOBBSRRBaseEES4_Lj1EE5WriteIS3_vEEvv
        PUBLIC _ZN14FieldValueBaseI22SPI1_CR2_RXNEIE_ValuesIN4SPI13CR2ELj6ELj1E13ReadWriteModeNS1_11SPI1CR2BaseEES4_Lj1EE3SetIS3_vEEvv
        PUBLIC _ZN14FieldValueBaseI22USART2_CR2_STOP_ValuesIN6USART23CR2ELj12ELj2E13ReadWriteModeNS1_13USART2CR2BaseEES4_Lj0EE3SetIS3_vEEvv
        PUBLIC _ZN14FieldValueBaseI23GPIOA_AFRL_AFRL7_ValuesIN5GPIOA4AFRLELj12ELj4E13ReadWriteModeNS1_13GPIOAAFRLBaseEES4_Lj7EE3SetIS3_vEEvv
        PUBLIC _ZN14FieldValueBaseI23GPIOA_AFRL_AFRL7_ValuesIN5GPIOA4AFRLELj8ELj4E13ReadWriteModeNS1_13GPIOAAFRLBaseEES4_Lj7EE3SetIS3_vEEvv
        PUBLIC _ZN14FieldValueBaseI23USART2_CR1_OVER8_ValuesIN6USART23CR1ELj15ELj1E13ReadWriteModeNS1_13USART2CR1BaseEES4_Lj0EE3SetIS3_vEEvv
        PUBLIC _ZN14FieldValueBaseI23USART2_CR1_TXEIE_ValuesIN6USART23CR1ELj7ELj1E13ReadWriteModeNS1_13USART2CR1BaseEES4_Lj1EE3SetIS3_vEEvv
        PUBLIC _ZN14FieldValueBaseI24SPI1_CR1_LSBFIRST_ValuesIN4SPI13CR1ELj7ELj1E13ReadWriteModeNS1_11SPI1CR1BaseEES4_Lj0EE3SetIS3_vEEvv
        PUBLIC _ZN14FieldValueBaseI24SPI2_CR1_BIDIMODE_ValuesIN4SPI23CR1ELj15ELj1E13ReadWriteModeNS1_11SPI2CR1BaseEES4_Lj0EE3SetIS3_vEEvv
        PUBLIC _ZN14FieldValueBaseI24SPI2_CR1_LSBFIRST_ValuesIN4SPI23CR1ELj7ELj1E13ReadWriteModeNS1_11SPI2CR1BaseEES4_Lj0EE3SetIS3_vEEvv
        PUBLIC _ZN14FieldValueBaseI24USART2_CR1_RXNEIE_ValuesIN6USART23CR1ELj5ELj1E13ReadWriteModeNS1_13USART2CR1BaseEES4_Lj1EE3SetIS3_vEEvv
        PUBLIC _ZN14FieldValueBaseI25RCC_AHB1ENR_DMA2EN_ValuesIN3RCC7APB1ENRELj14ELj1E13ReadWriteModeNS1_14RCCAPB1ENRBaseEES4_Lj1EE3SetIS3_vEEvv
        PUBLIC _ZN14FieldValueBaseI25RCC_AHB1ENR_DMA2EN_ValuesIN3RCC7APB1ENRELj17ELj1E13ReadWriteModeNS1_14RCCAPB1ENRBaseEES4_Lj1EE3SetIS3_vEEvv
        PUBLIC _ZN14FieldValueBaseI25RCC_AHB1ENR_DMA2EN_ValuesIN3RCC7APB2ENRELj12ELj1E13ReadWriteModeNS1_14RCCAPB2ENRBaseEES4_Lj1EE3SetIS3_vEEvv
        PUBLIC _ZN14FieldValueBaseI26GPIOA_MODER_MODER15_ValuesIN5GPIOA5MODERELj4ELj2E13ReadWriteModeNS1_14GPIOAMODERBaseEES4_Lj2EE3SetIS3_vEEvv
        PUBLIC _ZN14FieldValueBaseI26GPIOA_MODER_MODER15_ValuesIN5GPIOA5MODERELj6ELj2E13ReadWriteModeNS1_14GPIOAMODERBaseEES4_Lj2EE3SetIS3_vEEvv
        PUBLIC _ZN14FieldValueBaseI26GPIOA_PUPDR_PUPDR15_ValuesIN5GPIOA5PUPDRELj4ELj2E13ReadWriteModeNS1_14GPIOAPUPDRBaseEES4_Lj0EE3SetIS3_vEEvv
        PUBLIC _ZN14FieldValueBaseI26GPIOA_PUPDR_PUPDR15_ValuesIN5GPIOA5PUPDRELj6ELj2E13ReadWriteModeNS1_14GPIOAPUPDRBaseEES4_Lj1EE3SetIS3_vEEvv
        PUBLIC _ZN14FieldValueBaseI26RCC_AHB1ENR_GPIOAEN_ValuesIN3RCC7AHB1ENRELj0ELj1E13ReadWriteModeNS1_14RCCAHB1ENRBaseEES4_Lj1EE3SetIS3_vEEvv
        PUBLIC _ZN14FieldValueBaseI26RCC_AHB1ENR_GPIOCEN_ValuesIN3RCC7AHB1ENRELj2ELj1E13ReadWriteModeNS1_14RCCAHB1ENRBaseEES4_Lj1EE3SetIS3_vEEvv
        PUBLIC _ZN14FieldValueBaseI26RCC_AHB1ENR_GPIOCEN_ValuesIN3RCC7AHB1ENRELj2ELj1E13ReadWriteModeNS1_14RCCAHB1ENRBaseEES4_Lj1EE5IsSetIS3_vEEbv
        PUBLIC _ZN15ButtonEventTaskI6ButtonI3PinI4PortI5GPIOCELh13EEEL_Z5eventEE7ExecuteEv
        PUBLIC _ZN15ButtonEventTaskI6ButtonI3PinI4PortI5GPIOCELh13EEEL_Z5eventEEC1Ev
        PUBLIC _ZN15MeasurementTaskIL_Z5eventEE11UnitsUpdateEv
        PUBLIC _ZN15MeasurementTaskIL_Z5eventEE7ExecuteEv
        PUBLIC _ZN15MeasurementTaskIL_Z5eventEEC1Ev
        PUBLIC _ZN17DisplayUpdateTask7ExecuteEv
        PUBLIC _ZN17DisplayUpdateTaskC1Ev
        PUBLIC _ZN21SpiDriverOnlyTransmitI4Spi2E11SendMessageEPKcj
        PUBLIC _ZN21SpiDriverOnlyTransmitI4Spi2E6EnableEv
        PUBLIC _ZN21SpiDriverOnlyTransmitI4Spi2E8SendByteEc
        PUBLIC _ZN3LedI3PinI4PortI5GPIOAELh5EEE6ToggleEv
        PUBLIC _ZN3LedI3PinI4PortI5GPIOCELh8EEE6ToggleEv
        PUBLIC _ZN3LedI3PinI4PortI5GPIOCELh9EEE6ToggleEv
        PUBLIC _ZN3PinI4PortI5GPIOAELh5EE6ToggleEv
        PUBLIC _ZN3PinI4PortI5GPIOBELh10EE3SetEv
        PUBLIC _ZN3PinI4PortI5GPIOBELh10EE5ResetEv
        PUBLIC _ZN3PinI4PortI5GPIOBELh1EE3SetEv
        PUBLIC _ZN3PinI4PortI5GPIOBELh1EE5ResetEv
        PUBLIC _ZN3PinI4PortI5GPIOBELh2EE3SetEv
        PUBLIC _ZN3PinI4PortI5GPIOBELh2EE5ResetEv
        PUBLIC _ZN3PinI4PortI5GPIOCELh13EE15SelectInputModeEv
        PUBLIC _ZN3PinI4PortI5GPIOCELh13EE5IsSetEv
        PUBLIC _ZN3PinI4PortI5GPIOCELh13EE6EnableEv
        PUBLIC _ZN3PinI4PortI5GPIOCELh2EE3GetEv
        PUBLIC _ZN3PinI4PortI5GPIOCELh2EE5IsSetEv
        PUBLIC _ZN3PinI4PortI5GPIOCELh3EE3SetEv
        PUBLIC _ZN3PinI4PortI5GPIOCELh3EE5ResetEv
        PUBLIC _ZN3PinI4PortI5GPIOCELh8EE6ToggleEv
        PUBLIC _ZN3PinI4PortI5GPIOCELh9EE6ToggleEv
        PUBLIC _ZN3SPII4SPI1L_Z15spi1TransceiverEE32TransmiteBufEmptyInterruptEnableEv
        PUBLIC _ZN3SPII4SPI1L_Z15spi1TransceiverEE33ReceiveBufNotEmptyInterruptEnableEv
        PUBLIC _ZN3SPII4SPI1L_Z15spi1TransceiverEE6EnableEv
        PUBLIC _ZN3SPII4SPI1L_Z15spi1TransceiverEE8ReadByteEv
        PUBLIC _ZN3SPII4SPI2L_Z15spi2TransceiverEE32TransmiteBufEmptyInterruptEnableEv
        PUBLIC _ZN3SPII4SPI2L_Z15spi2TransceiverEE6EnableEv
        PUBLIC _ZN4PortI5GPIOAE6ToggleEh
        PUBLIC _ZN4PortI5GPIOBE3SetEj
        PUBLIC _ZN4PortI5GPIOBE5ResetEj
        PUBLIC _ZN4PortI5GPIOCE3SetEj
        PUBLIC _ZN4PortI5GPIOCE5IsSetEh
        PUBLIC _ZN4PortI5GPIOCE5ResetEj
        PUBLIC _ZN4PortI5GPIOCE6EnableEv
        PUBLIC _ZN4PortI5GPIOCE6ToggleEh
        PUBLIC _ZN4PortI5GPIOCE7ModeSetEh5Moder
        PUBLIC _ZN4PortI5GPIOCE8IsEnableEv
        PUBLIC _ZN5PointC1Ett
        PUBLIC _ZN5USARTI6USART2L_Z20bluetoothTransceiverEE15TransmiteEnableEv
        PUBLIC _ZN5USARTI6USART2L_Z20bluetoothTransceiverEE32TransmiteBufEmptyInterruptEnableEv
        PUBLIC _ZN5USARTI6USART2L_Z20bluetoothTransceiverEE6EnableEv
        PUBLIC _ZN6ButtonI3PinI4PortI5GPIOCELh13EEE10WasPressedEv
        PUBLIC _ZN6ButtonI3PinI4PortI5GPIOCELh13EEE6EnableEv
        PUBLIC _ZN7DisplayIL_Z11eInkDisplayEL_Z6screenEE10DrawStringE5PointPKc
        PUBLIC _ZN7DisplayIL_Z11eInkDisplayEL_Z6screenEE10ResetImageEv
        PUBLIC _ZN7DisplayIL_Z11eInkDisplayEL_Z6screenEE12UpdateWindowE5PointS1_
        PUBLIC _ZN8RegisterILj1073873920ELj32E13ReadWriteModeN5GPIOB14GPIOBMODERBaseEJ10FieldValueI26GPIOB_MODER_MODER15_ValuesINS1_5MODERELj2ELj2ES0_S2_ES2_Lj1EvES3_IS4_IS5_Lj4ELj2ES0_S2_ES2_Lj1EvES3_IS4_IS5_Lj26ELj2ES0_S2_ES2_Lj2EvES3_IS4_IS5_Lj30ELj2ES0_S2_ES2_Lj2EvEEE3SetIS0_vEEvv
        PUBLIC _ZN8RegisterILj1073873920ELj32E13ReadWriteModeN5GPIOB14GPIOBMODERBaseEJ10FieldValueI26GPIOB_MODER_MODER15_ValuesINS1_5MODERELj6ELj2ES0_S2_ES2_Lj2EvES3_IS4_IS5_Lj8ELj2ES0_S2_ES2_Lj2EvES3_IS4_IS5_Lj10ELj2ES0_S2_ES2_Lj2EvES3_IS4_IS5_Lj20ELj2ES0_S2_ES2_Lj1EvEEE3SetIS0_vEEvv
        PUBLIC _ZN8RegisterILj1073873952ELj32E13ReadWriteModeN5GPIOB13GPIOBAFRLBaseEJ10FieldValueI23GPIOB_AFRL_AFRL7_ValuesINS1_4AFRLELj12ELj4ES0_S2_ES2_Lj5EvES3_IS4_IS5_Lj16ELj4ES0_S2_ES2_Lj5EvES3_IS4_IS5_Lj20ELj4ES0_S2_ES2_Lj5EvEEE3SetIS0_vEEvv
        PUBLIC _ZN8RegisterILj1073873956ELj32E13ReadWriteModeN5GPIOB13GPIOBAFRHBaseEJ10FieldValueI23GPIOB_AFRL_AFRL7_ValuesINS1_4AFRHELj20ELj4ES0_S2_ES2_Lj5EvES3_IS4_IS5_Lj28ELj4ES0_S2_ES2_Lj5EvEEE3SetIS0_vEEvv
        PUBLIC _ZN8RegisterILj1073874944ELj32E13ReadWriteModeN5GPIOC14GPIOCMODERBaseEJ10FieldValueI26GPIOC_MODER_MODER15_ValuesINS1_5MODERELj4ELj2ES0_S2_ES2_Lj0EvES3_IS4_IS5_Lj6ELj2ES0_S2_ES2_Lj1EvEEE3SetIS0_vEEvv
        PUBLIC _ZN8RegisterILj1073887280ELj32E13ReadWriteModeN3RCC14RCCAHB1ENRBaseEJ10FieldValueI26RCC_AHB1ENR_GPIOCEN_ValuesINS1_7AHB1ENRELj2ELj1ES0_S2_ES2_Lj1EvES3_I26RCC_AHB1ENR_GPIOBEN_ValuesIS5_Lj1ELj1ES0_S2_ES2_Lj1EvES3_I26RCC_AHB1ENR_GPIOAEN_ValuesIS5_Lj0ELj1ES0_S2_ES2_Lj1EvEEE3SetIS0_vEEvv
        PUBLIC _ZN9EPDDriverIL_Z15spi2TransceiverE3PinI4PortI5GPIOBELh1EES0_IS3_Lh2EES0_IS1_I5GPIOCELh3EES0_IS7_Lh2EEE11SendCommandEh
        PUBLIC _ZN9EPDDriverIL_Z15spi2TransceiverE3PinI4PortI5GPIOBELh1EES0_IS3_Lh2EES0_IS1_I5GPIOCELh3EES0_IS7_Lh2EEE11SetLutQuickEv
        PUBLIC _ZN9EPDDriverIL_Z15spi2TransceiverE3PinI4PortI5GPIOBELh1EES0_IS3_Lh2EES0_IS1_I5GPIOCELh3EES0_IS7_Lh2EEE12RefreshQuickEv
        PUBLIC _ZN9EPDDriverIL_Z15spi2TransceiverE3PinI4PortI5GPIOBELh1EES0_IS3_Lh2EES0_IS1_I5GPIOCELh3EES0_IS7_Lh2EEE13WaitUntilBusyEv
        PUBLIC _ZN9EPDDriverIL_Z15spi2TransceiverE3PinI4PortI5GPIOBELh1EES0_IS3_Lh2EES0_IS1_I5GPIOCELh3EES0_IS7_Lh2EEE14SetPartialModeEv
        PUBLIC _ZN9EPDDriverIL_Z15spi2TransceiverE3PinI4PortI5GPIOBELh1EES0_IS3_Lh2EES0_IS1_I5GPIOCELh3EES0_IS7_Lh2EEE19UpdatePartialWindowEPKhtttt
        PUBLIC _ZN9EPDDriverIL_Z15spi2TransceiverE3PinI4PortI5GPIOBELh1EES0_IS3_Lh2EES0_IS1_I5GPIOCELh3EES0_IS7_Lh2EEE4InitEv
        PUBLIC _ZN9EPDDriverIL_Z15spi2TransceiverE3PinI4PortI5GPIOBELh1EES0_IS3_Lh2EES0_IS1_I5GPIOCELh3EES0_IS7_Lh2EEE5ClearEv
        PUBLIC _ZN9EPDDriverIL_Z15spi2TransceiverE3PinI4PortI5GPIOBELh1EES0_IS3_Lh2EES0_IS1_I5GPIOCELh3EES0_IS7_Lh2EEE5ResetEv
        PUBLIC _ZN9EPDDriverIL_Z15spi2TransceiverE3PinI4PortI5GPIOBELh1EES0_IS3_Lh2EES0_IS1_I5GPIOCELh3EES0_IS7_Lh2EEE6IsBusyEv
        PUBLIC _ZN9EPDDriverIL_Z15spi2TransceiverE3PinI4PortI5GPIOBELh1EES0_IS3_Lh2EES0_IS1_I5GPIOCELh3EES0_IS7_Lh2EEE6SetLutEv
        PUBLIC _ZN9EPDDriverIL_Z15spi2TransceiverE3PinI4PortI5GPIOBELh1EES0_IS3_Lh2EES0_IS1_I5GPIOCELh3EES0_IS7_Lh2EEE7RefreshEv
        PUBLIC _ZN9EPDDriverIL_Z15spi2TransceiverE3PinI4PortI5GPIOBELh1EES0_IS3_Lh2EES0_IS1_I5GPIOCELh3EES0_IS7_Lh2EEE8SendDataEPKhj
        PUBLIC _ZN9EPDDriverIL_Z15spi2TransceiverE3PinI4PortI5GPIOBELh1EES0_IS3_Lh2EES0_IS1_I5GPIOCELh3EES0_IS7_Lh2EEE8SendDataEh
        PUBLIC _ZN9EPDDriverIL_Z15spi2TransceiverE3PinI4PortI5GPIOBELh1EES0_IS3_Lh2EES0_IS1_I5GPIOCELh3EES0_IS7_Lh2EEEC1Ev
        PUBLIC _ZN9OsWrapper11RtosWrapper10wWaitEventERKPvjjNS_9EventModeE
        PUBLIC _ZN9OsWrapper11RtosWrapper12wCreateEventER19xSTATIC_EVENT_GROUP
        PUBLIC _ZN9OsWrapper11RtosWrapper12wDeleteEventERPv
        PUBLIC _ZN9OsWrapper11RtosWrapper12wSignalEventERKPvj
        PUBLIC _ZN9OsWrapper11RtosWrapper13wCreateThreadINS_4RtosE13BluetoothTaskEEvRT0_PKcNS_14ThreadPriorityEtPj
        PUBLIC _ZN9OsWrapper11RtosWrapper13wCreateThreadINS_4RtosE15ButtonEventTaskI6ButtonI3PinI4PortI5GPIOCELh13EEEL_Z5eventEEEEvRT0_PKcNS_14ThreadPriorityEtPj
        PUBLIC _ZN9OsWrapper11RtosWrapper13wCreateThreadINS_4RtosE15MeasurementTaskIL_Z5eventEEEEvRT0_PKcNS_14ThreadPriorityEtPj
        PUBLIC _ZN9OsWrapper11RtosWrapper13wCreateThreadINS_4RtosE17DisplayUpdateTaskEEvRT0_PKcNS_14ThreadPriorityEtPj
        PUBLIC _ZN9OsWrapper11RtosWrapper6wSleepEj
        PUBLIC _ZN9OsWrapper11RtosWrapper6wStartEv
        PUBLIC _ZN9OsWrapper11RtosWrapper9wGetTicksEv
        PUBLIC _ZN9OsWrapper4Rtos12CreateThreadI13BluetoothTaskEEvRT_PKcNS_14ThreadPriorityE
        PUBLIC _ZN9OsWrapper4Rtos12CreateThreadI15ButtonEventTaskI6ButtonI3PinI4PortI5GPIOCELh13EEEL_Z5eventEEEEvRT_PKcNS_14ThreadPriorityE
        PUBLIC _ZN9OsWrapper4Rtos12CreateThreadI15MeasurementTaskIL_Z5eventEEEEvRT_PKcNS_14ThreadPriorityE
        PUBLIC _ZN9OsWrapper4Rtos12CreateThreadI17DisplayUpdateTaskEEvRT_PKcNS_14ThreadPriorityE
        PUBLIC _ZN9OsWrapper4Rtos3RunEPv
        PUBLIC _ZN9OsWrapper4Rtos5StartEv
        PUBLIC _ZN9OsWrapper5Event6SignalEv
        PUBLIC _ZN9OsWrapper5EventC1ENSt6chrono8durationIxSt5ratioILx1ELx1000EEEEj
        PUBLIC _ZN9OsWrapper5EventD1Ev
        PUBLIC _ZN9OsWrapper6ThreadILj128EEC1Ev
        PUBLIC _ZN9OsWrapper6ThreadILj128EEC2Ev
        PUBLIC _ZN9OsWrapper6ThreadILj400EEC1Ev
        PUBLIC _ZN9OsWrapper6ThreadILj400EEC2Ev
        PUBLIC _ZN9OsWrapper7IThread3RunEv
        PUBLIC _ZN9OsWrapper7IThread5SleepENSt6chrono8durationIxSt5ratioILx1ELx1000EEEE
        PUBLIC _ZN9OsWrapper7IThreadC1Ev
        PUBLIC _ZN9OsWrapper7IThreadC2Ev
        PUBLIC _ZN9SpiDriverI4Spi1E10GetMessageEPc
        PUBLIC _ZN9SpiDriverI4Spi1E11SendMessageEPcj
        PUBLIC _ZN9SpiDriverI4Spi1E17IsMessageReceivedEv
        PUBLIC _ZN9SpiDriverI4Spi1E20SetReceivedMesLengthEj
        PUBLIC _ZN9SpiDriverI4Spi1E6EnableEv
        PUBLIC _ZN9SpiDriverI4Spi1E7GetByteEv
        PUBLIC _ZN9SpiDriverI4Spi1E8SendByteEc
        PUBLIC _ZNK9OsWrapper5Event4WaitENS_9EventModeEj
        PUBLIC _ZNKSaIcE8max_sizeEv
        PUBLIC _ZNKSs4sizeEv
        PUBLIC _ZNKSs5c_strEv
        PUBLIC _ZNKSs6lengthEv
        PUBLIC _ZNKSs8max_sizeEv
        PUBLIC _ZNKSt11_String_valISt13_Simple_typesIcEE6_MyptrEv
        PUBLIC _ZNKSt11_Wrap_allocISaIcEE37select_on_container_copy_constructionESt4_Nil
        PUBLIC _ZNKSt11_Wrap_allocISaIcEE8max_sizeESt4_Nil
        PUBLIC _ZNKSt13_String_allocISt18_String_base_typesIcSaIcEEE6_GetalEv
        PUBLIC _ZNKSt13_String_allocISt18_String_base_typesIcSaIcEEE6_MyptrEv
        PUBLIC _ZNKSt13_String_allocISt18_String_base_typesIcSaIcEEE7_MysizeEv
        PUBLIC _ZNKSt13_String_allocISt18_String_base_typesIcSaIcEEE9_Get_dataEv
        PUBLIC _ZNKSt16_Compressed_pairISt11_Wrap_allocISaIcEESt11_String_valISt13_Simple_typesIcEELb1EE10_Get_firstEv
        PUBLIC _ZNKSt16_Compressed_pairISt11_Wrap_allocISaIcEESt11_String_valISt13_Simple_typesIcEELb1EE11_Get_secondEv
        PUBLIC _ZNKSt5arrayIcLj1024EE4sizeEv
        PUBLIC _ZNKSt5arrayIcLj20000EE4sizeEv
        PUBLIC _ZNKSt5arrayIcLj200EE4sizeEv
        PUBLIC _ZNKSt6chrono8durationIjSt5ratioILx10ELx1000EEE5countEv
        PUBLIC _ZNKSt6chrono8durationIxSt5ratioILx1ELx1000EEE5countEv
        PUBLIC _ZNSaIcE10deallocateEPcj
        PUBLIC _ZNSaIcE7destroyIPcEEvPT_
        PUBLIC _ZNSaIcE8allocateEj
        PUBLIC _ZNSaIcE9constructIPcJS1_EEEvPT_DpOT0_
        PUBLIC _ZNSs4_EosEj
        PUBLIC _ZNSs5_CopyEjj
        PUBLIC _ZNSs5_GrowEjb
        PUBLIC _ZNSs5_TidyEbj
        PUBLIC _ZNSs5eraseEj
        PUBLIC _ZNSs5eraseEjj
        PUBLIC _ZNSs6assignEPKc
        PUBLIC _ZNSs6assignEPKcj
        PUBLIC _ZNSs6assignERKSsjj
        PUBLIC _ZNSs7_InsideEPKc
        PUBLIC _ZNSsC1EPKc
        PUBLIC _ZNSsC1ERKSs
        PUBLIC _ZNSsC1Ev
        PUBLIC _ZNSsD1Ev
        PUBLIC _ZNSsaSEPKc
        PUBLIC _ZNSt11_String_valISt13_Simple_typesIcEE6_MyptrEv
        PUBLIC _ZNSt11_String_valISt13_Simple_typesIcEEC1Ev
        PUBLIC _ZNSt11_Wrap_allocISaIcEE10deallocateEPcj
        PUBLIC _ZNSt11_Wrap_allocISaIcEE7destroyIPcEEvPT_
        PUBLIC _ZNSt11_Wrap_allocISaIcEE8allocateEj
        PUBLIC _ZNSt11_Wrap_allocISaIcEE9constructIPcJS3_EEEvPT_DpOT0_
        PUBLIC _ZNSt11_Wrap_allocISaIcEEC1ERKS0_
        PUBLIC _ZNSt11_Wrap_allocISaIcEEC2ERKS0_
        PUBLIC _ZNSt11char_traitsIcE4copyEPcPKcj
        PUBLIC _ZNSt11char_traitsIcE4moveEPcPKcj
        PUBLIC _ZNSt11char_traitsIcE6assignERcRKc
        PUBLIC _ZNSt11char_traitsIcE6lengthEPKc
        PUBLIC _ZNSt13_String_allocISt18_String_base_typesIcSaIcEEE3_BxEv
        PUBLIC _ZNSt13_String_allocISt18_String_base_typesIcSaIcEEE6_GetalEv
        PUBLIC _ZNSt13_String_allocISt18_String_base_typesIcSaIcEEE6_MyptrEv
        PUBLIC _ZNSt13_String_allocISt18_String_base_typesIcSaIcEEE6_MyresEv
        PUBLIC _ZNSt13_String_allocISt18_String_base_typesIcSaIcEEE7_MysizeEv
        PUBLIC _ZNSt13_String_allocISt18_String_base_typesIcSaIcEEE9_Get_dataEv
        PUBLIC _ZNSt13_String_allocISt18_String_base_typesIcSaIcEEEC1ERKS1_
        PUBLIC _ZNSt13_String_allocISt18_String_base_typesIcSaIcEEEC2ERKS1_
        PUBLIC _ZNSt16_Compressed_pairISt11_Wrap_allocISaIcEESt11_String_valISt13_Simple_typesIcEELb1EE10_Get_firstEv
        PUBLIC _ZNSt16_Compressed_pairISt11_Wrap_allocISaIcEESt11_String_valISt13_Simple_typesIcEELb1EE11_Get_secondEv
        PUBLIC _ZNSt16_Compressed_pairISt11_Wrap_allocISaIcEESt11_String_valISt13_Simple_typesIcEELb1EEC1IRKS1_JEEESt25_One_then_variadic_args_tOT_DpOT0_
        PUBLIC _ZNSt16allocator_traitsISaIcEE37select_on_container_copy_constructionERKS0_
        PUBLIC _ZNSt16allocator_traitsISaIcEE7destroyIPcEEvRS0_PT_
        PUBLIC _ZNSt16allocator_traitsISaIcEE8max_sizeERKS0_
        PUBLIC _ZNSt16allocator_traitsISaIcEE9constructIPcJS3_EEEvRS0_PT_DpOT0_
        PUBLIC _ZNSt5arrayIcLj1024EE4dataEv
        PUBLIC _ZNSt5arrayIcLj20000EE4dataEv
        PUBLIC _ZNSt5arrayIcLj20000EEixEj
        PUBLIC _ZNSt5arrayIcLj200EE4dataEv
        PUBLIC _ZNSt5arrayIcLj200EEixEj
        PUBLIC _ZNSt5arrayIhLj15000EE4dataEv
        PUBLIC _ZNSt5arrayIhLj15000EEixEj
        PUBLIC _ZNSt5arrayIjLj128EE4dataEv
        PUBLIC _ZNSt5arrayIjLj400EE4dataEv
        PUBLIC _ZNSt6chrono12steady_clock9is_steadyE
        PUBLIC _ZNSt6chrono12system_clock12is_monotonicE
        PUBLIC _ZNSt6chrono12system_clock9is_steadyE
        PUBLIC _ZNSt6chrono13duration_castINS_8durationIjSt5ratioILx10ELx1000EEEExS2_ILx1ELx1000EEEENSt9enable_ifIXsr3std6chrono12_Is_durationIT_EE5valueES7_E4typeERKNS1_IT0_T1_EE
        PUBLIC _ZNSt6chrono8durationIjSt5ratioILx10ELx1000EEEC1IjvEERKT_
        PUBLIC _ZSt10_AddressofIcEPT_RS0_St17integral_constantIbLb0EE
        PUBLIC _ZSt11_DeallocateIcEvPT_j
        PUBLIC _ZSt4moveIRPcEONSt16remove_referenceIT_E4typeEOS3_
        PUBLIC _ZSt7forwardIPcEOT_RNSt16remove_referenceIS1_E4typeE
        PUBLIC _ZSt7forwardIRKSaIcEEOT_RNSt16remove_referenceIS3_E4typeE
        PUBLIC _ZSt9_AllocateIcEPT_jS1_b
        PUBLIC _ZSt9addressofIcEPT_RS0_
        PUBLIC _ZTI11Measurement
        PUBLIC _ZTI11Temperature
        PUBLIC _ZTI13BluetoothTask
        PUBLIC _ZTI15ButtonEventTaskI6ButtonI3PinI4PortI5GPIOCELh13EEEL_Z5eventEE
        PUBLIC _ZTI15MeasurementTaskIL_Z5eventEE
        PUBLIC _ZTI17DisplayUpdateTask
        PUBLIC _ZTIN9OsWrapper6ThreadILj128EEE
        PUBLIC _ZTIN9OsWrapper6ThreadILj400EEE
        PUBLIC _ZTIN9OsWrapper7IThreadE
        PUBLIC _ZTISt10ctype_base
        PUBLIC _ZTS11Measurement
        PUBLIC _ZTS11Temperature
        PUBLIC _ZTS13BluetoothTask
        PUBLIC _ZTS15ButtonEventTaskI6ButtonI3PinI4PortI5GPIOCELh13EEEL_Z5eventEE
        PUBLIC _ZTS15MeasurementTaskIL_Z5eventEE
        PUBLIC _ZTS17DisplayUpdateTask
        PUBLIC _ZTSN9OsWrapper6ThreadILj128EEE
        PUBLIC _ZTSN9OsWrapper6ThreadILj400EEE
        PUBLIC _ZTSN9OsWrapper7IThreadE
        PUBLIC _ZTSSt10ctype_base
        PUBLIC _ZTV11Measurement
        PUBLIC _ZTV11Temperature
        PUBLIC _ZTV13BluetoothTask
        PUBLIC _ZTV15ButtonEventTaskI6ButtonI3PinI4PortI5GPIOCELh13EEEL_Z5eventEE
        PUBLIC _ZTV15MeasurementTaskIL_Z5eventEE
        PUBLIC _ZTV17DisplayUpdateTask
        PUBLIC _ZZN11Measurement12ShowUnitNameE4UnitEs
        PUBLIC _ZZN11Measurement12ShowUnitNameE4UnitEs_0
        PUBLIC _ZZN11Measurement12ShowUnitNameE4UnitEs_1
        PUBLIC _ZZN11Measurement12ShowUnitNameE4UnitEs_2
        PUBLIC _ZZN11Measurement12ShowUnitNameE4UnitEs_3
        PUBLIC _ZZN11Measurement12ShowUnitNameE4UnitEs_5
        PUBLIC _ZZN11Measurement12ShowUnitNameE4UnitEs_6
        PUBLIC _ZZN11Measurement8GetValueE4UnitEs_0
        PUBLIC _ZZN11Measurement8GetValueE4UnitEs_1
        PUBLIC _ZZN11MeasurementC1ESsP4UnitjS0_PFdvEEs_0
        PUBLIC _ZZN11MeasurementC1ESsP4UnitjS0_PFdvEEs_1
        PUBLIC _ZZN11Temperature8GetValueE4UnitEs_0
        PUBLIC _ZZN11Temperature8GetValueE4UnitEs_1
        PUBLIC _ZZN12ScreenDriverILt400ELt300EE12ClearWindowsE5PointS1_5ColorEs
        PUBLIC _ZZN12ScreenDriverILt400ELt300EE12ClearWindowsE5PointS1_5ColorEs_0
        PUBLIC _ZZN12ScreenDriverILt400ELt300EE8DrawCharE5PointcEs
        PUBLIC _ZZN12ScreenDriverILt400ELt300EE8DrawCharE5PointcEs_0
        PUBLIC _ZZN12ScreenDriverILt400ELt300EE8SetPixelE5Point5ColorEs
        PUBLIC _ZZN12ScreenDriverILt400ELt300EE8SetPixelE5Point5ColorEs_0
        PUBLIC _ZZN13BluetoothTask7ExecuteEvEs
        PUBLIC _ZZN13RegisterFieldIN4SPI25CRCPRELj0ELj16E13ReadWriteModevE3SetIS2_vEEvjEs
        PUBLIC _ZZN13RegisterFieldIN4SPI25CRCPRELj0ELj16E13ReadWriteModevE3SetIS2_vEEvjEs_0
        PUBLIC _ZZN13RegisterFieldIN6USART23BRRELj0ELj4E13ReadWriteModevE3SetIS2_vEEvjEs
        PUBLIC _ZZN13RegisterFieldIN6USART23BRRELj0ELj4E13ReadWriteModevE3SetIS2_vEEvjEs_0
        PUBLIC _ZZN13RegisterFieldIN6USART23BRRELj4ELj12E13ReadWriteModevE3SetIS2_vEEvjEs
        PUBLIC _ZZN13RegisterFieldIN6USART23BRRELj4ELj12E13ReadWriteModevE3SetIS2_vEEvjEs_0
        PUBLIC _ZZN15MeasurementTaskIL_Z5eventEE11UnitsUpdateEvE7counter
        PUBLIC _ZZN17DisplayUpdateTask7ExecuteEvEs
        PUBLIC _ZZN8RegisterILj1073873920ELj32E13ReadWriteModeN5GPIOB14GPIOBMODERBaseEJ10FieldValueI26GPIOB_MODER_MODER15_ValuesINS1_5MODERELj2ELj2ES0_S2_ES2_Lj1EvES3_IS4_IS5_Lj4ELj2ES0_S2_ES2_Lj1EvES3_IS4_IS5_Lj26ELj2ES0_S2_ES2_Lj2EvES3_IS4_IS5_Lj30ELj2ES0_S2_ES2_Lj2EvEEE3SetIS0_vEEvvE4mask
        PUBLIC _ZZN8RegisterILj1073873920ELj32E13ReadWriteModeN5GPIOB14GPIOBMODERBaseEJ10FieldValueI26GPIOB_MODER_MODER15_ValuesINS1_5MODERELj2ELj2ES0_S2_ES2_Lj1EvES3_IS4_IS5_Lj4ELj2ES0_S2_ES2_Lj1EvES3_IS4_IS5_Lj26ELj2ES0_S2_ES2_Lj2EvES3_IS4_IS5_Lj30ELj2ES0_S2_ES2_Lj2EvEEE3SetIS0_vEEvvE5value
        PUBLIC _ZZN8RegisterILj1073873920ELj32E13ReadWriteModeN5GPIOB14GPIOBMODERBaseEJ10FieldValueI26GPIOB_MODER_MODER15_ValuesINS1_5MODERELj6ELj2ES0_S2_ES2_Lj2EvES3_IS4_IS5_Lj8ELj2ES0_S2_ES2_Lj2EvES3_IS4_IS5_Lj10ELj2ES0_S2_ES2_Lj2EvES3_IS4_IS5_Lj20ELj2ES0_S2_ES2_Lj1EvEEE3SetIS0_vEEvvE4mask
        PUBLIC _ZZN8RegisterILj1073873920ELj32E13ReadWriteModeN5GPIOB14GPIOBMODERBaseEJ10FieldValueI26GPIOB_MODER_MODER15_ValuesINS1_5MODERELj6ELj2ES0_S2_ES2_Lj2EvES3_IS4_IS5_Lj8ELj2ES0_S2_ES2_Lj2EvES3_IS4_IS5_Lj10ELj2ES0_S2_ES2_Lj2EvES3_IS4_IS5_Lj20ELj2ES0_S2_ES2_Lj1EvEEE3SetIS0_vEEvvE5value
        PUBLIC _ZZN8RegisterILj1073873952ELj32E13ReadWriteModeN5GPIOB13GPIOBAFRLBaseEJ10FieldValueI23GPIOB_AFRL_AFRL7_ValuesINS1_4AFRLELj12ELj4ES0_S2_ES2_Lj5EvES3_IS4_IS5_Lj16ELj4ES0_S2_ES2_Lj5EvES3_IS4_IS5_Lj20ELj4ES0_S2_ES2_Lj5EvEEE3SetIS0_vEEvvE4mask
        PUBLIC _ZZN8RegisterILj1073873952ELj32E13ReadWriteModeN5GPIOB13GPIOBAFRLBaseEJ10FieldValueI23GPIOB_AFRL_AFRL7_ValuesINS1_4AFRLELj12ELj4ES0_S2_ES2_Lj5EvES3_IS4_IS5_Lj16ELj4ES0_S2_ES2_Lj5EvES3_IS4_IS5_Lj20ELj4ES0_S2_ES2_Lj5EvEEE3SetIS0_vEEvvE5value
        PUBLIC _ZZN8RegisterILj1073873956ELj32E13ReadWriteModeN5GPIOB13GPIOBAFRHBaseEJ10FieldValueI23GPIOB_AFRL_AFRL7_ValuesINS1_4AFRHELj20ELj4ES0_S2_ES2_Lj5EvES3_IS4_IS5_Lj28ELj4ES0_S2_ES2_Lj5EvEEE3SetIS0_vEEvvE4mask
        PUBLIC _ZZN8RegisterILj1073873956ELj32E13ReadWriteModeN5GPIOB13GPIOBAFRHBaseEJ10FieldValueI23GPIOB_AFRL_AFRL7_ValuesINS1_4AFRHELj20ELj4ES0_S2_ES2_Lj5EvES3_IS4_IS5_Lj28ELj4ES0_S2_ES2_Lj5EvEEE3SetIS0_vEEvvE5value
        PUBLIC _ZZN8RegisterILj1073874944ELj32E13ReadWriteModeN5GPIOC14GPIOCMODERBaseEJ10FieldValueI26GPIOC_MODER_MODER15_ValuesINS1_5MODERELj4ELj2ES0_S2_ES2_Lj0EvES3_IS4_IS5_Lj6ELj2ES0_S2_ES2_Lj1EvEEE3SetIS0_vEEvvE4mask
        PUBLIC _ZZN8RegisterILj1073874944ELj32E13ReadWriteModeN5GPIOC14GPIOCMODERBaseEJ10FieldValueI26GPIOC_MODER_MODER15_ValuesINS1_5MODERELj4ELj2ES0_S2_ES2_Lj0EvES3_IS4_IS5_Lj6ELj2ES0_S2_ES2_Lj1EvEEE3SetIS0_vEEvvE5value
        PUBLIC _ZZN8RegisterILj1073887280ELj32E13ReadWriteModeN3RCC14RCCAHB1ENRBaseEJ10FieldValueI26RCC_AHB1ENR_GPIOCEN_ValuesINS1_7AHB1ENRELj2ELj1ES0_S2_ES2_Lj1EvES3_I26RCC_AHB1ENR_GPIOBEN_ValuesIS5_Lj1ELj1ES0_S2_ES2_Lj1EvES3_I26RCC_AHB1ENR_GPIOAEN_ValuesIS5_Lj0ELj1ES0_S2_ES2_Lj1EvEEE3SetIS0_vEEvvE4mask
        PUBLIC _ZZN8RegisterILj1073887280ELj32E13ReadWriteModeN3RCC14RCCAHB1ENRBaseEJ10FieldValueI26RCC_AHB1ENR_GPIOCEN_ValuesINS1_7AHB1ENRELj2ELj1ES0_S2_ES2_Lj1EvES3_I26RCC_AHB1ENR_GPIOBEN_ValuesIS5_Lj1ELj1ES0_S2_ES2_Lj1EvES3_I26RCC_AHB1ENR_GPIOAEN_ValuesIS5_Lj0ELj1ES0_S2_ES2_Lj1EvEEE3SetIS0_vEEvvE5value
        PUBLIC _ZnwjPv
        PUBLIC __low_level_init
        PUBLIC bluetoothTask
        PUBLIC bluetoothTransceiver
        PUBLIC bme280
        PUBLIC buttonEventTask
        PUBLIC dewPoint
        PUBLIC display
        PUBLIC displayUpdateTask
        PUBLIC eInkDisplay
        PUBLIC event
        PUBLIC humidity
        PUBLIC main
        PUBLIC measurementTask
        PUBLIC measurements
        PUBLIC pressure
        PUBLIC screen
        PUBLIC spi1Transceiver
        PUBLIC spi2Transceiver
        PUBLIC temperature
        PUBLIC temperatureUnits
        PUBLIC userUnits
        
          CFI Names cfiNames0
          CFI StackFrame CFA R13 DATA
          CFI Resource R0:32, R1:32, R2:32, R3:32, R4:32, R5:32, R6:32, R7:32
          CFI Resource R8:32, R9:32, R10:32, R11:32, R12:32, R13:32, R14:32
          CFI Resource D0:64, D1:64, D2:64, D3:64, D4:64, D5:64, D6:64, D7:64
          CFI Resource D8:64, D9:64, D10:64, D11:64, D12:64, D13:64, D14:64
          CFI Resource D15:64
          CFI EndNames cfiNames0
        
          CFI Common cfiCommon0 Using cfiNames0
          CFI CodeAlign 2
          CFI DataAlign 4
          CFI ReturnAddress R14 CODE
          CFI CFA R13+0
          CFI R0 Undefined
          CFI R1 Undefined
          CFI R2 Undefined
          CFI R3 Undefined
          CFI R4 SameValue
          CFI R5 SameValue
          CFI R6 SameValue
          CFI R7 SameValue
          CFI R8 SameValue
          CFI R9 SameValue
          CFI R10 SameValue
          CFI R11 SameValue
          CFI R12 Undefined
          CFI R14 SameValue
          CFI D0 Undefined
          CFI D1 Undefined
          CFI D2 Undefined
          CFI D3 Undefined
          CFI D4 Undefined
          CFI D5 Undefined
          CFI D6 Undefined
          CFI D7 Undefined
          CFI D8 SameValue
          CFI D9 SameValue
          CFI D10 SameValue
          CFI D11 SameValue
          CFI D12 SameValue
          CFI D13 SameValue
          CFI D14 SameValue
          CFI D15 SameValue
          CFI EndCommon cfiCommon0
        

        SECTION `.rodata`:CONST:REORDER:NOROOT(2)
        SECTION_GROUP _ZTIN9OsWrapper7IThreadE
        DATA
// __absolute __class_type_info const <Typeinfo for OsWrapper::IThread>
_ZTIN9OsWrapper7IThreadE:
        DATA32
        DC32 _ZTVN10__cxxabiv117__class_type_infoE + 0x8
        DC32 _ZTSN9OsWrapper7IThreadE

        SECTION `.rodata`:CONST:REORDER:NOROOT(2)
        SECTION_GROUP _ZTV11Measurement
        DATA
// __absolute void (*const Measurement::__vtbl[4])()
_ZTV11Measurement:
        DATA32
        DC32 0x0, _ZTI11Measurement, _ZN11Measurement8GetValueEv
        DC32 _ZN11Measurement8GetValueE4Unit

        SECTION `.rodata`:CONST:REORDER:NOROOT(2)
        SECTION_GROUP _ZZN11MeasurementC1ESsP4UnitjS0_PFdvEEs_0
        DATA
// __absolute char const <_ZZN11MeasurementC1ESsP4UnitjS0_PFdvEEs_0>[71]
_ZZN11MeasurementC1ESsP4UnitjS0_PFdvEEs_0:
        DATA8
        DC8 0x43, 0x68, 0x65, 0x63, 0x6B, 0x55, 0x6E, 0x69
        DC8 0x74, 0x28, 0x64, 0x65, 0x66, 0x61, 0x75, 0x6C
        DC8 0x74, 0x55, 0x6E, 0x69, 0x74, 0x29, 0x20, 0x26
        DC8 0x26, 0x22, 0x20, 0x64, 0x65, 0x66, 0x61, 0x6C
        DC8 0x74, 0x20, 0x75, 0x6E, 0x69, 0x74, 0x20, 0x6D
        DC8 0x75, 0x73, 0x74, 0x20, 0x6D, 0x61, 0x74, 0x63
        DC8 0x68, 0x20, 0x6D, 0x65, 0x61, 0x73, 0x75, 0x72
        DC8 0x65, 0x6D, 0x65, 0x6E, 0x74, 0x27, 0x73, 0x20
        DC8 0x75, 0x6E, 0x69, 0x74, 0x73, 0x22, 0
        DC8 0

        SECTION `.rodata`:CONST:REORDER:NOROOT(2)
        SECTION_GROUP _ZZN11MeasurementC1ESsP4UnitjS0_PFdvEEs_1
        DATA
// __absolute char const <_ZZN11MeasurementC1ESsP4UnitjS0_PFdvEEs_1>[114]
_ZZN11MeasurementC1ESsP4UnitjS0_PFdvEEs_1:
        DATA8
        DC8 0x44, 0x3A, 0x5C, 0x4E, 0x69, 0x6B, 0x6F, 0x6C
        DC8 0x61, 0x6F, 0x73, 0x5C, 0x4D, 0x79, 0x20, 0x44
        DC8 0x6F, 0x63, 0x75, 0x6D, 0x65, 0x6E, 0x74, 0x73
        DC8 0x5C, 0x49, 0x41, 0x52, 0x20, 0x70, 0x72, 0x6F
        DC8 0x6A, 0x65, 0x63, 0x74, 0x73, 0x5C, 0x43, 0x6F
        DC8 0x75, 0x72, 0x73, 0x65, 0x57, 0x6F, 0x72, 0x6B
        DC8 0x2D, 0x6D, 0x61, 0x69, 0x6E, 0x32, 0x5C, 0x43
        DC8 0x6F, 0x75, 0x72, 0x73, 0x65, 0x57, 0x6F, 0x72
        DC8 0x6B, 0x49, 0x41, 0x52, 0x70, 0x72, 0x6F, 0x6A
        DC8 0x65, 0x63, 0x74, 0x5C, 0x41, 0x70, 0x70, 0x6C
        DC8 0x69, 0x63, 0x61, 0x74, 0x69, 0x6F, 0x6E, 0x5C
        DC8 0x4D, 0x65, 0x61, 0x73, 0x75, 0x72, 0x65, 0x6D
        DC8 0x65, 0x6E, 0x74, 0x5C, 0x4D, 0x65, 0x61, 0x73
        DC8 0x75, 0x72, 0x65, 0x6D, 0x65, 0x6E, 0x74, 0x2E
        DC8 0x68, 0
        DATA16
        DC8 0, 0

        SECTION `.rodata`:CONST:REORDER:NOROOT(2)
        SECTION_GROUP _ZZN11Measurement8GetValueE4UnitEs_0
        DATA
// __absolute char const <_ZZN11Measurement8GetValueE4UnitEs_0>[63]
_ZZN11Measurement8GetValueE4UnitEs_0:
        DATA8
        DC8 0x43, 0x68, 0x65, 0x63, 0x6B, 0x55, 0x6E, 0x69
        DC8 0x74, 0x28, 0x75, 0x6E, 0x69, 0x74, 0x29, 0x26
        DC8 0x26, 0x22, 0x20, 0x64, 0x65, 0x66, 0x61, 0x6C
        DC8 0x74, 0x20, 0x75, 0x6E, 0x69, 0x74, 0x20, 0x6D
        DC8 0x75, 0x73, 0x74, 0x20, 0x6D, 0x61, 0x74, 0x63
        DC8 0x68, 0x20, 0x6D, 0x65, 0x61, 0x73, 0x75, 0x72
        DC8 0x65, 0x6D, 0x65, 0x6E, 0x74, 0x27, 0x73, 0x20
        DC8 0x75, 0x6E, 0x69, 0x74, 0x73, 0x22, 0
        DC8 0

        SECTION `.rodata`:CONST:REORDER:NOROOT(2)
        SECTION_GROUP _ZZN11Measurement8GetValueE4UnitEs_1
        DATA
// __absolute char const <_ZZN11Measurement8GetValueE4UnitEs_1>[114]
_ZZN11Measurement8GetValueE4UnitEs_1:
        DATA8
        DC8 0x44, 0x3A, 0x5C, 0x4E, 0x69, 0x6B, 0x6F, 0x6C
        DC8 0x61, 0x6F, 0x73, 0x5C, 0x4D, 0x79, 0x20, 0x44
        DC8 0x6F, 0x63, 0x75, 0x6D, 0x65, 0x6E, 0x74, 0x73
        DC8 0x5C, 0x49, 0x41, 0x52, 0x20, 0x70, 0x72, 0x6F
        DC8 0x6A, 0x65, 0x63, 0x74, 0x73, 0x5C, 0x43, 0x6F
        DC8 0x75, 0x72, 0x73, 0x65, 0x57, 0x6F, 0x72, 0x6B
        DC8 0x2D, 0x6D, 0x61, 0x69, 0x6E, 0x32, 0x5C, 0x43
        DC8 0x6F, 0x75, 0x72, 0x73, 0x65, 0x57, 0x6F, 0x72
        DC8 0x6B, 0x49, 0x41, 0x52, 0x70, 0x72, 0x6F, 0x6A
        DC8 0x65, 0x63, 0x74, 0x5C, 0x41, 0x70, 0x70, 0x6C
        DC8 0x69, 0x63, 0x61, 0x74, 0x69, 0x6F, 0x6E, 0x5C
        DC8 0x4D, 0x65, 0x61, 0x73, 0x75, 0x72, 0x65, 0x6D
        DC8 0x65, 0x6E, 0x74, 0x5C, 0x4D, 0x65, 0x61, 0x73
        DC8 0x75, 0x72, 0x65, 0x6D, 0x65, 0x6E, 0x74, 0x2E
        DC8 0x68, 0
        DATA16
        DC8 0, 0

        SECTION `.rodata`:CONST:REORDER:NOROOT(1)
        SECTION_GROUP _ZZN11Measurement12ShowUnitNameE4UnitEs
        DATA
// __absolute char const <_ZZN11Measurement12ShowUnitNameE4UnitEs>[2]
_ZZN11Measurement12ShowUnitNameE4UnitEs:
        DATA8
        DC8 "K"

        SECTION `.rodata`:CONST:REORDER:NOROOT(1)
        SECTION_GROUP _ZZN11Measurement12ShowUnitNameE4UnitEs_0
        DATA
// __absolute char const <_ZZN11Measurement12ShowUnitNameE4UnitEs_0>[2]
_ZZN11Measurement12ShowUnitNameE4UnitEs_0:
        DATA8
        DC8 "F"

        SECTION `.rodata`:CONST:REORDER:NOROOT(1)
        SECTION_GROUP _ZZN11Measurement12ShowUnitNameE4UnitEs_1
        DATA
// __absolute char const <_ZZN11Measurement12ShowUnitNameE4UnitEs_1>[2]
_ZZN11Measurement12ShowUnitNameE4UnitEs_1:
        DATA8
        DC8 "C"

        SECTION `.rodata`:CONST:REORDER:NOROOT(2)
        SECTION_GROUP _ZZN11Measurement12ShowUnitNameE4UnitEs_2
        DATA
// __absolute char const <_ZZN11Measurement12ShowUnitNameE4UnitEs_2>[4]
_ZZN11Measurement12ShowUnitNameE4UnitEs_2:
        DATA8
        DC8 "hPa"

        SECTION `.rodata`:CONST:REORDER:NOROOT(1)
        SECTION_GROUP _ZZN11Measurement12ShowUnitNameE4UnitEs_3
        DATA
// __absolute char const <_ZZN11Measurement12ShowUnitNameE4UnitEs_3>[2]
_ZZN11Measurement12ShowUnitNameE4UnitEs_3:
        DATA8
        DC8 "%"

        SECTION `.rodata`:CONST:REORDER:NOROOT(2)
        SECTION_GROUP _ZZN11Measurement12ShowUnitNameE4UnitEs_5
        DATA
// __absolute char const <_ZZN11Measurement12ShowUnitNameE4UnitEs_5>[47]
_ZZN11Measurement12ShowUnitNameE4UnitEs_5:
        DATA8
        DC8 "false &&\" unit must match measurement's units\""
        DC8 0

        SECTION `.rodata`:CONST:REORDER:NOROOT(2)
        SECTION_GROUP _ZZN11Measurement12ShowUnitNameE4UnitEs_6
        DATA
// __absolute char const <_ZZN11Measurement12ShowUnitNameE4UnitEs_6>[114]
_ZZN11Measurement12ShowUnitNameE4UnitEs_6:
        DATA8
        DC8 0x44, 0x3A, 0x5C, 0x4E, 0x69, 0x6B, 0x6F, 0x6C
        DC8 0x61, 0x6F, 0x73, 0x5C, 0x4D, 0x79, 0x20, 0x44
        DC8 0x6F, 0x63, 0x75, 0x6D, 0x65, 0x6E, 0x74, 0x73
        DC8 0x5C, 0x49, 0x41, 0x52, 0x20, 0x70, 0x72, 0x6F
        DC8 0x6A, 0x65, 0x63, 0x74, 0x73, 0x5C, 0x43, 0x6F
        DC8 0x75, 0x72, 0x73, 0x65, 0x57, 0x6F, 0x72, 0x6B
        DC8 0x2D, 0x6D, 0x61, 0x69, 0x6E, 0x32, 0x5C, 0x43
        DC8 0x6F, 0x75, 0x72, 0x73, 0x65, 0x57, 0x6F, 0x72
        DC8 0x6B, 0x49, 0x41, 0x52, 0x70, 0x72, 0x6F, 0x6A
        DC8 0x65, 0x63, 0x74, 0x5C, 0x41, 0x70, 0x70, 0x6C
        DC8 0x69, 0x63, 0x61, 0x74, 0x69, 0x6F, 0x6E, 0x5C
        DC8 0x4D, 0x65, 0x61, 0x73, 0x75, 0x72, 0x65, 0x6D
        DC8 0x65, 0x6E, 0x74, 0x5C, 0x4D, 0x65, 0x61, 0x73
        DC8 0x75, 0x72, 0x65, 0x6D, 0x65, 0x6E, 0x74, 0x2E
        DC8 0x68, 0
        DATA16
        DC8 0, 0

        SECTION `.rodata`:CONST:REORDER:NOROOT(2)
        SECTION_GROUP _ZTV11Temperature
        DATA
// __absolute void (*const Temperature::__vtbl[4])()
_ZTV11Temperature:
        DATA32
        DC32 0x0, _ZTI11Temperature, _ZN11Temperature8GetValueEv
        DC32 _ZN11Temperature8GetValueE4Unit

        SECTION `.rodata`:CONST:REORDER:NOROOT(2)
        SECTION_GROUP _ZTI11Temperature
        DATA
// __absolute __si_class_type_info const <Typeinfo for Temperature>
_ZTI11Temperature:
        DATA32
        DC32 _ZTVN10__cxxabiv120__si_class_type_infoE + 0x8, _ZTS11Temperature
        DC32 _ZTI11Measurement

        SECTION `.rodata`:CONST:REORDER:NOROOT(2)
        SECTION_GROUP _ZZN11Temperature8GetValueE4UnitEs_0
        DATA
// __absolute char const <_ZZN11Temperature8GetValueE4UnitEs_0>[46]
_ZZN11Temperature8GetValueE4UnitEs_0:
        DATA8
        DC8 "false &&\"unit must match measurement's units\""
        DATA16
        DC8 0, 0

        SECTION `.rodata`:CONST:REORDER:NOROOT(2)
        SECTION_GROUP _ZZN11Temperature8GetValueE4UnitEs_1
        DATA
// __absolute char const <_ZZN11Temperature8GetValueE4UnitEs_1>[114]
_ZZN11Temperature8GetValueE4UnitEs_1:
        DATA8
        DC8 0x44, 0x3A, 0x5C, 0x4E, 0x69, 0x6B, 0x6F, 0x6C
        DC8 0x61, 0x6F, 0x73, 0x5C, 0x4D, 0x79, 0x20, 0x44
        DC8 0x6F, 0x63, 0x75, 0x6D, 0x65, 0x6E, 0x74, 0x73
        DC8 0x5C, 0x49, 0x41, 0x52, 0x20, 0x70, 0x72, 0x6F
        DC8 0x6A, 0x65, 0x63, 0x74, 0x73, 0x5C, 0x43, 0x6F
        DC8 0x75, 0x72, 0x73, 0x65, 0x57, 0x6F, 0x72, 0x6B
        DC8 0x2D, 0x6D, 0x61, 0x69, 0x6E, 0x32, 0x5C, 0x43
        DC8 0x6F, 0x75, 0x72, 0x73, 0x65, 0x57, 0x6F, 0x72
        DC8 0x6B, 0x49, 0x41, 0x52, 0x70, 0x72, 0x6F, 0x6A
        DC8 0x65, 0x63, 0x74, 0x5C, 0x41, 0x70, 0x70, 0x6C
        DC8 0x69, 0x63, 0x61, 0x74, 0x69, 0x6F, 0x6E, 0x5C
        DC8 0x4D, 0x65, 0x61, 0x73, 0x75, 0x72, 0x65, 0x6D
        DC8 0x65, 0x6E, 0x74, 0x5C, 0x54, 0x65, 0x6D, 0x70
        DC8 0x65, 0x72, 0x61, 0x74, 0x75, 0x72, 0x65, 0x2E
        DC8 0x68, 0
        DATA16
        DC8 0, 0

        SECTION `.rodata`:CONST:REORDER:NOROOT(2)
        SECTION_GROUP _ZTV13BluetoothTask
        DATA
// __absolute void (*const BluetoothTask::__vtbl[3])()
_ZTV13BluetoothTask:
        DATA32
        DC32 0x0, _ZTI13BluetoothTask, _ZN13BluetoothTask7ExecuteEv

        SECTION `.rodata`:CONST:REORDER:NOROOT(2)
        SECTION_GROUP _ZZN13BluetoothTask7ExecuteEvEs
        DATA
// __absolute char const <_ZZN13BluetoothTask7ExecuteEvEs>[19]
_ZZN13BluetoothTask7ExecuteEvEs:
        DATA8
        DC8 "%11s : %5.2f %5s \012"
        DC8 0

        SECTION `.rodata`:CONST:REORDER:NOROOT(2)
        SECTION_GROUP _ZTI11Measurement
        DATA
// __absolute __class_type_info const <Typeinfo for Measurement>
_ZTI11Measurement:
        DATA32
        DC32 _ZTVN10__cxxabiv117__class_type_infoE + 0x8, _ZTS11Measurement

        SECTION `.rodata`:CONST:REORDER:NOROOT(2)
        SECTION_GROUP _ZTV17DisplayUpdateTask
        DATA
// __absolute void (*const DisplayUpdateTask::__vtbl[3])()
_ZTV17DisplayUpdateTask:
        DATA32
        DC32 0x0, _ZTI17DisplayUpdateTask, _ZN17DisplayUpdateTask7ExecuteEv

        SECTION `.rodata`:CONST:REORDER:NOROOT(2)
        SECTION_GROUP _ZZN12ScreenDriverILt400ELt300EE8SetPixelE5Point5ColorEs
        DATA
// __absolute char const <_ZZN12ScreenDriverILt400ELt300EE8SetPixelE5Point5ColorEs>[42]
_ZZN12ScreenDriverILt400ELt300EE8SetPixelE5Point5ColorEs:
        DATA8
        DC8 "(point.x <= width) && (point.y <= height)"
        DATA16
        DC8 0, 0

        SECTION `.rodata`:CONST:REORDER:NOROOT(2)
        SECTION_GROUP _ZZN12ScreenDriverILt400ELt300EE8SetPixelE5Point5ColorEs_0
        DATA
// __absolute char const <_ZZN12ScreenDriverILt400ELt300EE8SetPixelE5Point5ColorEs_0>[107]
_ZZN12ScreenDriverILt400ELt300EE8SetPixelE5Point5ColorEs_0:
        DATA8
        DC8 0x44, 0x3A, 0x5C, 0x4E, 0x69, 0x6B, 0x6F, 0x6C
        DC8 0x61, 0x6F, 0x73, 0x5C, 0x4D, 0x79, 0x20, 0x44
        DC8 0x6F, 0x63, 0x75, 0x6D, 0x65, 0x6E, 0x74, 0x73
        DC8 0x5C, 0x49, 0x41, 0x52, 0x20, 0x70, 0x72, 0x6F
        DC8 0x6A, 0x65, 0x63, 0x74, 0x73, 0x5C, 0x43, 0x6F
        DC8 0x75, 0x72, 0x73, 0x65, 0x57, 0x6F, 0x72, 0x6B
        DC8 0x2D, 0x6D, 0x61, 0x69, 0x6E, 0x32, 0x5C, 0x43
        DC8 0x6F, 0x75, 0x72, 0x73, 0x65, 0x57, 0x6F, 0x72
        DC8 0x6B, 0x49, 0x41, 0x52, 0x70, 0x72, 0x6F, 0x6A
        DC8 0x65, 0x63, 0x74, 0x5C, 0x41, 0x70, 0x70, 0x6C
        DC8 0x69, 0x63, 0x61, 0x74, 0x69, 0x6F, 0x6E, 0x5C
        DC8 0x47, 0x55, 0x49, 0x5C, 0x53, 0x63, 0x72, 0x65
        DC8 0x65, 0x6E, 0x44, 0x72, 0x69, 0x76, 0x65, 0x72
        DC8 0x2E, 0x68, 0
        DC8 0

        SECTION `.rodata`:CONST:REORDER:NOROOT(2)
        SECTION_GROUP _ZZN12ScreenDriverILt400ELt300EE12ClearWindowsE5PointS1_5ColorEs
        DATA
// __absolute char const <_ZZN12ScreenDriverILt400ELt300EE12ClearWindowsE5PointS1_5ColorEs>[48]
_ZZN12ScreenDriverILt400ELt300EE12ClearWindowsE5PointS1_5ColorEs:
        DATA8
        DC8 "(endPoint.x <= width) && (endPoint.y <= height)"

        SECTION `.rodata`:CONST:REORDER:NOROOT(2)
        SECTION_GROUP _ZZN12ScreenDriverILt400ELt300EE12ClearWindowsE5PointS1_5ColorEs_0
        DATA
// __absolute char const <_ZZN12ScreenDriverILt400ELt300EE12ClearWindowsE5PointS1_5ColorEs_0>[107]
_ZZN12ScreenDriverILt400ELt300EE12ClearWindowsE5PointS1_5ColorEs_0:
        DATA8
        DC8 0x44, 0x3A, 0x5C, 0x4E, 0x69, 0x6B, 0x6F, 0x6C
        DC8 0x61, 0x6F, 0x73, 0x5C, 0x4D, 0x79, 0x20, 0x44
        DC8 0x6F, 0x63, 0x75, 0x6D, 0x65, 0x6E, 0x74, 0x73
        DC8 0x5C, 0x49, 0x41, 0x52, 0x20, 0x70, 0x72, 0x6F
        DC8 0x6A, 0x65, 0x63, 0x74, 0x73, 0x5C, 0x43, 0x6F
        DC8 0x75, 0x72, 0x73, 0x65, 0x57, 0x6F, 0x72, 0x6B
        DC8 0x2D, 0x6D, 0x61, 0x69, 0x6E, 0x32, 0x5C, 0x43
        DC8 0x6F, 0x75, 0x72, 0x73, 0x65, 0x57, 0x6F, 0x72
        DC8 0x6B, 0x49, 0x41, 0x52, 0x70, 0x72, 0x6F, 0x6A
        DC8 0x65, 0x63, 0x74, 0x5C, 0x41, 0x70, 0x70, 0x6C
        DC8 0x69, 0x63, 0x61, 0x74, 0x69, 0x6F, 0x6E, 0x5C
        DC8 0x47, 0x55, 0x49, 0x5C, 0x53, 0x63, 0x72, 0x65
        DC8 0x65, 0x6E, 0x44, 0x72, 0x69, 0x76, 0x65, 0x72
        DC8 0x2E, 0x68, 0
        DC8 0

        SECTION `.rodata`:CONST:REORDER:NOROOT(2)
        SECTION_GROUP _ZZN12ScreenDriverILt400ELt300EE8DrawCharE5PointcEs
        DATA
// __absolute char const <_ZZN12ScreenDriverILt400ELt300EE8DrawCharE5PointcEs>[42]
_ZZN12ScreenDriverILt400ELt300EE8DrawCharE5PointcEs:
        DATA8
        DC8 "(point.x <= width) && (point.y <= height)"
        DATA16
        DC8 0, 0

        SECTION `.rodata`:CONST:REORDER:NOROOT(2)
        SECTION_GROUP _ZZN12ScreenDriverILt400ELt300EE8DrawCharE5PointcEs_0
        DATA
// __absolute char const <_ZZN12ScreenDriverILt400ELt300EE8DrawCharE5PointcEs_0>[107]
_ZZN12ScreenDriverILt400ELt300EE8DrawCharE5PointcEs_0:
        DATA8
        DC8 0x44, 0x3A, 0x5C, 0x4E, 0x69, 0x6B, 0x6F, 0x6C
        DC8 0x61, 0x6F, 0x73, 0x5C, 0x4D, 0x79, 0x20, 0x44
        DC8 0x6F, 0x63, 0x75, 0x6D, 0x65, 0x6E, 0x74, 0x73
        DC8 0x5C, 0x49, 0x41, 0x52, 0x20, 0x70, 0x72, 0x6F
        DC8 0x6A, 0x65, 0x63, 0x74, 0x73, 0x5C, 0x43, 0x6F
        DC8 0x75, 0x72, 0x73, 0x65, 0x57, 0x6F, 0x72, 0x6B
        DC8 0x2D, 0x6D, 0x61, 0x69, 0x6E, 0x32, 0x5C, 0x43
        DC8 0x6F, 0x75, 0x72, 0x73, 0x65, 0x57, 0x6F, 0x72
        DC8 0x6B, 0x49, 0x41, 0x52, 0x70, 0x72, 0x6F, 0x6A
        DC8 0x65, 0x63, 0x74, 0x5C, 0x41, 0x70, 0x70, 0x6C
        DC8 0x69, 0x63, 0x61, 0x74, 0x69, 0x6F, 0x6E, 0x5C
        DC8 0x47, 0x55, 0x49, 0x5C, 0x53, 0x63, 0x72, 0x65
        DC8 0x65, 0x6E, 0x44, 0x72, 0x69, 0x76, 0x65, 0x72
        DC8 0x2E, 0x68, 0
        DC8 0

        SECTION `.rodata`:CONST:REORDER:NOROOT(2)
        SECTION_GROUP _ZZN17DisplayUpdateTask7ExecuteEvEs
        DATA
// __absolute char const <_ZZN17DisplayUpdateTask7ExecuteEvEs>[13]
_ZZN17DisplayUpdateTask7ExecuteEvEs:
        DATA8
        DC8 "%11s : %3.2f"
        DATA
        DC8 0, 0, 0

        SECTION `.rodata`:CONST:REORDER:NOROOT(2)
        SECTION_GROUP _ZZN13RegisterFieldIN6USART23BRRELj4ELj12E13ReadWriteModevE3SetIS2_vEEvjEs
        DATA
// __absolute char const <_ZZN13RegisterFieldIN6USART23BRRELj4ELj12E13ReadWriteModevE3SetIS2_vEEvjEs>[156]
_ZZN13RegisterFieldIN6USART23BRRELj4ELj12E13ReadWriteModevE3SetIS2_vEEvjEs:
        DATA8
        DC8 0x28, 0x73, 0x69, 0x7A, 0x65, 0x20, 0x3C, 0x20
        DC8 0x73, 0x69, 0x7A, 0x65, 0x6F, 0x66, 0x28, 0x52
        DC8 0x65, 0x67, 0x54, 0x79, 0x70, 0x65, 0x29, 0x20
        DC8 0x2A, 0x20, 0x38, 0x55, 0x29, 0x20, 0x3F, 0x20
        DC8 0x28, 0x76, 0x61, 0x6C, 0x75, 0x65, 0x20, 0x3C
        DC8 0x3D, 0x20, 0x28, 0x28, 0x73, 0x74, 0x61, 0x74
        DC8 0x69, 0x63, 0x5F, 0x63, 0x61, 0x73, 0x74, 0x3C
        DC8 0x52, 0x65, 0x67, 0x54, 0x79, 0x70, 0x65, 0x3E
        DC8 0x28, 0x31, 0x55, 0x29, 0x20, 0x3C, 0x3C, 0x20
        DC8 0x73, 0x69, 0x7A, 0x65, 0x29, 0x20, 0x2D, 0x20
        DC8 0x73, 0x74, 0x61, 0x74, 0x69, 0x63, 0x5F, 0x63
        DC8 0x61, 0x73, 0x74, 0x3C, 0x52, 0x65, 0x67, 0x54
        DC8 0x79, 0x70, 0x65, 0x3E, 0x28, 0x31, 0x55, 0x29
        DC8 0x29, 0x29, 0x20, 0x3A, 0x20, 0x28, 0x76, 0x61
        DC8 0x6C, 0x75, 0x65, 0x20, 0x3C, 0x3D, 0x20, 0x73
        DC8 0x74, 0x64, 0x3A, 0x3A, 0x6E, 0x75, 0x6D, 0x65
        DC8 0x72, 0x69, 0x63, 0x5F, 0x6C, 0x69, 0x6D, 0x69
        DC8 0x74, 0x73, 0x3C, 0x52, 0x65, 0x67, 0x54, 0x79
        DC8 0x70, 0x65, 0x3E, 0x3A, 0x3A, 0x6D, 0x61, 0x78
        DC8 0x28, 0x29, 0x29, 0

        SECTION `.rodata`:CONST:REORDER:NOROOT(2)
        SECTION_GROUP _ZZN13RegisterFieldIN6USART23BRRELj4ELj12E13ReadWriteModevE3SetIS2_vEEvjEs_0
        DATA
// __absolute char const <_ZZN13RegisterFieldIN6USART23BRRELj4ELj12E13ReadWriteModevE3SetIS2_vEEvjEs_0>[114]
_ZZN13RegisterFieldIN6USART23BRRELj4ELj12E13ReadWriteModevE3SetIS2_vEEvjEs_0:
        DATA8
        DC8 0x44, 0x3A, 0x5C, 0x4E, 0x69, 0x6B, 0x6F, 0x6C
        DC8 0x61, 0x6F, 0x73, 0x5C, 0x4D, 0x79, 0x20, 0x44
        DC8 0x6F, 0x63, 0x75, 0x6D, 0x65, 0x6E, 0x74, 0x73
        DC8 0x5C, 0x49, 0x41, 0x52, 0x20, 0x70, 0x72, 0x6F
        DC8 0x6A, 0x65, 0x63, 0x74, 0x73, 0x5C, 0x43, 0x6F
        DC8 0x75, 0x72, 0x73, 0x65, 0x57, 0x6F, 0x72, 0x6B
        DC8 0x2D, 0x6D, 0x61, 0x69, 0x6E, 0x32, 0x5C, 0x43
        DC8 0x6F, 0x75, 0x72, 0x73, 0x65, 0x57, 0x6F, 0x72
        DC8 0x6B, 0x49, 0x41, 0x52, 0x70, 0x72, 0x6F, 0x6A
        DC8 0x65, 0x63, 0x74, 0x5C, 0x41, 0x48, 0x61, 0x72
        DC8 0x64, 0x77, 0x61, 0x72, 0x65, 0x5C, 0x52, 0x65
        DC8 0x67, 0x69, 0x73, 0x74, 0x65, 0x72, 0x73, 0x5C
        DC8 0x72, 0x65, 0x67, 0x69, 0x73, 0x74, 0x65, 0x72
        DC8 0x66, 0x69, 0x65, 0x6C, 0x64, 0x2E, 0x68, 0x70
        DC8 0x70, 0
        DATA16
        DC8 0, 0

        SECTION `.rodata`:CONST:REORDER:NOROOT(2)
        SECTION_GROUP _ZZN13RegisterFieldIN6USART23BRRELj0ELj4E13ReadWriteModevE3SetIS2_vEEvjEs
        DATA
// __absolute char const <_ZZN13RegisterFieldIN6USART23BRRELj0ELj4E13ReadWriteModevE3SetIS2_vEEvjEs>[156]
_ZZN13RegisterFieldIN6USART23BRRELj0ELj4E13ReadWriteModevE3SetIS2_vEEvjEs:
        DATA8
        DC8 0x28, 0x73, 0x69, 0x7A, 0x65, 0x20, 0x3C, 0x20
        DC8 0x73, 0x69, 0x7A, 0x65, 0x6F, 0x66, 0x28, 0x52
        DC8 0x65, 0x67, 0x54, 0x79, 0x70, 0x65, 0x29, 0x20
        DC8 0x2A, 0x20, 0x38, 0x55, 0x29, 0x20, 0x3F, 0x20
        DC8 0x28, 0x76, 0x61, 0x6C, 0x75, 0x65, 0x20, 0x3C
        DC8 0x3D, 0x20, 0x28, 0x28, 0x73, 0x74, 0x61, 0x74
        DC8 0x69, 0x63, 0x5F, 0x63, 0x61, 0x73, 0x74, 0x3C
        DC8 0x52, 0x65, 0x67, 0x54, 0x79, 0x70, 0x65, 0x3E
        DC8 0x28, 0x31, 0x55, 0x29, 0x20, 0x3C, 0x3C, 0x20
        DC8 0x73, 0x69, 0x7A, 0x65, 0x29, 0x20, 0x2D, 0x20
        DC8 0x73, 0x74, 0x61, 0x74, 0x69, 0x63, 0x5F, 0x63
        DC8 0x61, 0x73, 0x74, 0x3C, 0x52, 0x65, 0x67, 0x54
        DC8 0x79, 0x70, 0x65, 0x3E, 0x28, 0x31, 0x55, 0x29
        DC8 0x29, 0x29, 0x20, 0x3A, 0x20, 0x28, 0x76, 0x61
        DC8 0x6C, 0x75, 0x65, 0x20, 0x3C, 0x3D, 0x20, 0x73
        DC8 0x74, 0x64, 0x3A, 0x3A, 0x6E, 0x75, 0x6D, 0x65
        DC8 0x72, 0x69, 0x63, 0x5F, 0x6C, 0x69, 0x6D, 0x69
        DC8 0x74, 0x73, 0x3C, 0x52, 0x65, 0x67, 0x54, 0x79
        DC8 0x70, 0x65, 0x3E, 0x3A, 0x3A, 0x6D, 0x61, 0x78
        DC8 0x28, 0x29, 0x29, 0

        SECTION `.rodata`:CONST:REORDER:NOROOT(2)
        SECTION_GROUP _ZZN13RegisterFieldIN6USART23BRRELj0ELj4E13ReadWriteModevE3SetIS2_vEEvjEs_0
        DATA
// __absolute char const <_ZZN13RegisterFieldIN6USART23BRRELj0ELj4E13ReadWriteModevE3SetIS2_vEEvjEs_0>[114]
_ZZN13RegisterFieldIN6USART23BRRELj0ELj4E13ReadWriteModevE3SetIS2_vEEvjEs_0:
        DATA8
        DC8 0x44, 0x3A, 0x5C, 0x4E, 0x69, 0x6B, 0x6F, 0x6C
        DC8 0x61, 0x6F, 0x73, 0x5C, 0x4D, 0x79, 0x20, 0x44
        DC8 0x6F, 0x63, 0x75, 0x6D, 0x65, 0x6E, 0x74, 0x73
        DC8 0x5C, 0x49, 0x41, 0x52, 0x20, 0x70, 0x72, 0x6F
        DC8 0x6A, 0x65, 0x63, 0x74, 0x73, 0x5C, 0x43, 0x6F
        DC8 0x75, 0x72, 0x73, 0x65, 0x57, 0x6F, 0x72, 0x6B
        DC8 0x2D, 0x6D, 0x61, 0x69, 0x6E, 0x32, 0x5C, 0x43
        DC8 0x6F, 0x75, 0x72, 0x73, 0x65, 0x57, 0x6F, 0x72
        DC8 0x6B, 0x49, 0x41, 0x52, 0x70, 0x72, 0x6F, 0x6A
        DC8 0x65, 0x63, 0x74, 0x5C, 0x41, 0x48, 0x61, 0x72
        DC8 0x64, 0x77, 0x61, 0x72, 0x65, 0x5C, 0x52, 0x65
        DC8 0x67, 0x69, 0x73, 0x74, 0x65, 0x72, 0x73, 0x5C
        DC8 0x72, 0x65, 0x67, 0x69, 0x73, 0x74, 0x65, 0x72
        DC8 0x66, 0x69, 0x65, 0x6C, 0x64, 0x2E, 0x68, 0x70
        DC8 0x70, 0
        DATA16
        DC8 0, 0

        SECTION `.rodata`:CONST:REORDER:NOROOT(2)
        SECTION_GROUP _ZZN13RegisterFieldIN4SPI25CRCPRELj0ELj16E13ReadWriteModevE3SetIS2_vEEvjEs
        DATA
// __absolute char const <_ZZN13RegisterFieldIN4SPI25CRCPRELj0ELj16E13ReadWriteModevE3SetIS2_vEEvjEs>[156]
_ZZN13RegisterFieldIN4SPI25CRCPRELj0ELj16E13ReadWriteModevE3SetIS2_vEEvjEs:
        DATA8
        DC8 0x28, 0x73, 0x69, 0x7A, 0x65, 0x20, 0x3C, 0x20
        DC8 0x73, 0x69, 0x7A, 0x65, 0x6F, 0x66, 0x28, 0x52
        DC8 0x65, 0x67, 0x54, 0x79, 0x70, 0x65, 0x29, 0x20
        DC8 0x2A, 0x20, 0x38, 0x55, 0x29, 0x20, 0x3F, 0x20
        DC8 0x28, 0x76, 0x61, 0x6C, 0x75, 0x65, 0x20, 0x3C
        DC8 0x3D, 0x20, 0x28, 0x28, 0x73, 0x74, 0x61, 0x74
        DC8 0x69, 0x63, 0x5F, 0x63, 0x61, 0x73, 0x74, 0x3C
        DC8 0x52, 0x65, 0x67, 0x54, 0x79, 0x70, 0x65, 0x3E
        DC8 0x28, 0x31, 0x55, 0x29, 0x20, 0x3C, 0x3C, 0x20
        DC8 0x73, 0x69, 0x7A, 0x65, 0x29, 0x20, 0x2D, 0x20
        DC8 0x73, 0x74, 0x61, 0x74, 0x69, 0x63, 0x5F, 0x63
        DC8 0x61, 0x73, 0x74, 0x3C, 0x52, 0x65, 0x67, 0x54
        DC8 0x79, 0x70, 0x65, 0x3E, 0x28, 0x31, 0x55, 0x29
        DC8 0x29, 0x29, 0x20, 0x3A, 0x20, 0x28, 0x76, 0x61
        DC8 0x6C, 0x75, 0x65, 0x20, 0x3C, 0x3D, 0x20, 0x73
        DC8 0x74, 0x64, 0x3A, 0x3A, 0x6E, 0x75, 0x6D, 0x65
        DC8 0x72, 0x69, 0x63, 0x5F, 0x6C, 0x69, 0x6D, 0x69
        DC8 0x74, 0x73, 0x3C, 0x52, 0x65, 0x67, 0x54, 0x79
        DC8 0x70, 0x65, 0x3E, 0x3A, 0x3A, 0x6D, 0x61, 0x78
        DC8 0x28, 0x29, 0x29, 0

        SECTION `.rodata`:CONST:REORDER:NOROOT(2)
        SECTION_GROUP _ZZN13RegisterFieldIN4SPI25CRCPRELj0ELj16E13ReadWriteModevE3SetIS2_vEEvjEs_0
        DATA
// __absolute char const <_ZZN13RegisterFieldIN4SPI25CRCPRELj0ELj16E13ReadWriteModevE3SetIS2_vEEvjEs_0>[114]
_ZZN13RegisterFieldIN4SPI25CRCPRELj0ELj16E13ReadWriteModevE3SetIS2_vEEvjEs_0:
        DATA8
        DC8 0x44, 0x3A, 0x5C, 0x4E, 0x69, 0x6B, 0x6F, 0x6C
        DC8 0x61, 0x6F, 0x73, 0x5C, 0x4D, 0x79, 0x20, 0x44
        DC8 0x6F, 0x63, 0x75, 0x6D, 0x65, 0x6E, 0x74, 0x73
        DC8 0x5C, 0x49, 0x41, 0x52, 0x20, 0x70, 0x72, 0x6F
        DC8 0x6A, 0x65, 0x63, 0x74, 0x73, 0x5C, 0x43, 0x6F
        DC8 0x75, 0x72, 0x73, 0x65, 0x57, 0x6F, 0x72, 0x6B
        DC8 0x2D, 0x6D, 0x61, 0x69, 0x6E, 0x32, 0x5C, 0x43
        DC8 0x6F, 0x75, 0x72, 0x73, 0x65, 0x57, 0x6F, 0x72
        DC8 0x6B, 0x49, 0x41, 0x52, 0x70, 0x72, 0x6F, 0x6A
        DC8 0x65, 0x63, 0x74, 0x5C, 0x41, 0x48, 0x61, 0x72
        DC8 0x64, 0x77, 0x61, 0x72, 0x65, 0x5C, 0x52, 0x65
        DC8 0x67, 0x69, 0x73, 0x74, 0x65, 0x72, 0x73, 0x5C
        DC8 0x72, 0x65, 0x67, 0x69, 0x73, 0x74, 0x65, 0x72
        DC8 0x66, 0x69, 0x65, 0x6C, 0x64, 0x2E, 0x68, 0x70
        DC8 0x70, 0
        DATA16
        DC8 0, 0

        SECTION `.rodata`:CONST:REORDER:NOROOT(2)
        SECTION_GROUP _ZTV15ButtonEventTaskI6ButtonI3PinI4PortI5GPIOCELh13EEEL_Z5eventEE
        DATA
// __absolute void (*const ButtonEventTask<UserButton, event>::__vtbl[3])()
_ZTV15ButtonEventTaskI6ButtonI3PinI4PortI5GPIOCELh13EEEL_Z5eventEE:
        DATA32
        DC32 0x0
        DC32 _ZTI15ButtonEventTaskI6ButtonI3PinI4PortI5GPIOCELh13EEEL_Z5eventEE
        DC32 _ZN15ButtonEventTaskI6ButtonI3PinI4PortI5GPIOCELh13EEEL_Z5eventEE7ExecuteEv

        SECTION `.rodata`:CONST:REORDER:NOROOT(2)
        SECTION_GROUP _ZTV15MeasurementTaskIL_Z5eventEE
        DATA
// __absolute void (*const MeasurementTask<event>::__vtbl[3])()
_ZTV15MeasurementTaskIL_Z5eventEE:
        DATA32
        DC32 0x0, _ZTI15MeasurementTaskIL_Z5eventEE
        DC32 _ZN15MeasurementTaskIL_Z5eventEE7ExecuteEv

        SECTION `.rodata`:CONST:REORDER:NOROOT(2)
        SECTION_GROUP _ZTI13BluetoothTask
        DATA
// __absolute __si_class_type_info const <Typeinfo for BluetoothTask>
_ZTI13BluetoothTask:
        DATA32
        DC32 _ZTVN10__cxxabiv120__si_class_type_infoE + 0x8
        DC32 _ZTS13BluetoothTask, _ZTIN9OsWrapper6ThreadILj400EEE

        SECTION `.rodata`:CONST:REORDER:NOROOT(2)
        SECTION_GROUP _ZTIN9OsWrapper6ThreadILj400EEE
        DATA
// __absolute __si_class_type_info const <Typeinfo for OsWrapper::Thread<(unsigned int)400>>
_ZTIN9OsWrapper6ThreadILj400EEE:
        DATA32
        DC32 _ZTVN10__cxxabiv120__si_class_type_infoE + 0x8
        DC32 _ZTSN9OsWrapper6ThreadILj400EEE, _ZTIN9OsWrapper7IThreadE

        SECTION `.rodata`:CONST:REORDER:NOROOT(2)
        SECTION_GROUP _ZTI17DisplayUpdateTask
        DATA
// __absolute __si_class_type_info const <Typeinfo for DisplayUpdateTask>
_ZTI17DisplayUpdateTask:
        DATA32
        DC32 _ZTVN10__cxxabiv120__si_class_type_infoE + 0x8
        DC32 _ZTS17DisplayUpdateTask, _ZTIN9OsWrapper6ThreadILj400EEE

        SECTION `.rodata`:CONST:REORDER:NOROOT(2)
        SECTION_GROUP _ZTI15ButtonEventTaskI6ButtonI3PinI4PortI5GPIOCELh13EEEL_Z5eventEE
        DATA
// __absolute __si_class_type_info const <Typeinfo for ButtonEventTask<Button<Pin<Port<GPIOC>, (unsigned char)13>>, event>>
_ZTI15ButtonEventTaskI6ButtonI3PinI4PortI5GPIOCELh13EEEL_Z5eventEE:
        DATA32
        DC32 _ZTVN10__cxxabiv120__si_class_type_infoE + 0x8
        DC32 _ZTS15ButtonEventTaskI6ButtonI3PinI4PortI5GPIOCELh13EEEL_Z5eventEE
        DC32 _ZTIN9OsWrapper6ThreadILj128EEE

        SECTION `.rodata`:CONST:REORDER:NOROOT(2)
        SECTION_GROUP _ZTIN9OsWrapper6ThreadILj128EEE
        DATA
// __absolute __si_class_type_info const <Typeinfo for OsWrapper::Thread<(unsigned int)128>>
_ZTIN9OsWrapper6ThreadILj128EEE:
        DATA32
        DC32 _ZTVN10__cxxabiv120__si_class_type_infoE + 0x8
        DC32 _ZTSN9OsWrapper6ThreadILj128EEE, _ZTIN9OsWrapper7IThreadE

        SECTION `.rodata`:CONST:REORDER:NOROOT(2)
        SECTION_GROUP _ZTI15MeasurementTaskIL_Z5eventEE
        DATA
// __absolute __si_class_type_info const <Typeinfo for MeasurementTask<event>>
_ZTI15MeasurementTaskIL_Z5eventEE:
        DATA32
        DC32 _ZTVN10__cxxabiv120__si_class_type_infoE + 0x8
        DC32 _ZTS15MeasurementTaskIL_Z5eventEE, _ZTIN9OsWrapper6ThreadILj128EEE

        SECTION `.rodata`:CONST:REORDER:NOROOT(2)
        SECTION_GROUP _ZTS11Measurement
        DATA
// __absolute char const <Typeinfo name for Measurement>[14]
_ZTS11Measurement:
        DATA8
        DC8 "11Measurement"
        DATA16
        DC8 0, 0

        SECTION `.rodata`:CONST:REORDER:NOROOT(2)
        SECTION_GROUP _ZTS11Temperature
        DATA
// __absolute char const <Typeinfo name for Temperature>[14]
_ZTS11Temperature:
        DATA8
        DC8 "11Temperature"
        DATA16
        DC8 0, 0

        SECTION `.rodata`:CONST:REORDER:NOROOT(2)
        SECTION_GROUP _ZTSN9OsWrapper7IThreadE
        DATA
// __absolute char const <Typeinfo name for OsWrapper::IThread>[21]
_ZTSN9OsWrapper7IThreadE:
        DATA8
        DC8 "N9OsWrapper7IThreadE"
        DATA
        DC8 0, 0, 0

        SECTION `.rodata`:CONST:REORDER:NOROOT(2)
        SECTION_GROUP _ZTSN9OsWrapper6ThreadILj400EEE
        DATA
// __absolute char const <Typeinfo name for OsWrapper::Thread<(unsigned int)400>>[28]
_ZTSN9OsWrapper6ThreadILj400EEE:
        DATA8
        DC8 "N9OsWrapper6ThreadILj400EEE"

        SECTION `.rodata`:CONST:REORDER:NOROOT(2)
        SECTION_GROUP _ZTS13BluetoothTask
        DATA
// __absolute char const <Typeinfo name for BluetoothTask>[16]
_ZTS13BluetoothTask:
        DATA8
        DC8 "13BluetoothTask"

        SECTION `.rodata`:CONST:REORDER:NOROOT(2)
        SECTION_GROUP _ZTS17DisplayUpdateTask
        DATA
// __absolute char const <Typeinfo name for DisplayUpdateTask>[20]
_ZTS17DisplayUpdateTask:
        DATA8
        DC8 "17DisplayUpdateTask"

        SECTION `.rodata`:CONST:REORDER:NOROOT(2)
        SECTION_GROUP _ZTSN9OsWrapper6ThreadILj128EEE
        DATA
// __absolute char const <Typeinfo name for OsWrapper::Thread<(unsigned int)128>>[28]
_ZTSN9OsWrapper6ThreadILj128EEE:
        DATA8
        DC8 "N9OsWrapper6ThreadILj128EEE"

        SECTION `.rodata`:CONST:REORDER:NOROOT(2)
        SECTION_GROUP _ZTS15ButtonEventTaskI6ButtonI3PinI4PortI5GPIOCELh13EEEL_Z5eventEE
        DATA
// __absolute char const <Typeinfo name for ButtonEventTask<Button<Pin<Port<GPIOC>, (unsigned char)13>>, event>>[63]
_ZTS15ButtonEventTaskI6ButtonI3PinI4PortI5GPIOCELh13EEEL_Z5eventEE:
        DATA8
        DC8 0x31, 0x35, 0x42, 0x75, 0x74, 0x74, 0x6F, 0x6E
        DC8 0x45, 0x76, 0x65, 0x6E, 0x74, 0x54, 0x61, 0x73
        DC8 0x6B, 0x49, 0x36, 0x42, 0x75, 0x74, 0x74, 0x6F
        DC8 0x6E, 0x49, 0x33, 0x50, 0x69, 0x6E, 0x49, 0x34
        DC8 0x50, 0x6F, 0x72, 0x74, 0x49, 0x35, 0x47, 0x50
        DC8 0x49, 0x4F, 0x43, 0x45, 0x4C, 0x68, 0x31, 0x33
        DC8 0x45, 0x45, 0x45, 0x4C, 0x5F, 0x5A, 0x35, 0x65
        DC8 0x76, 0x65, 0x6E, 0x74, 0x45, 0x45, 0
        DC8 0

        SECTION `.rodata`:CONST:REORDER:NOROOT(2)
        SECTION_GROUP _ZTS15MeasurementTaskIL_Z5eventEE
        DATA
// __absolute char const <Typeinfo name for MeasurementTask<event>>[30]
_ZTS15MeasurementTaskIL_Z5eventEE:
        DATA8
        DC8 "15MeasurementTaskIL_Z5eventEE"
        DATA16
        DC8 0, 0

        SECTION `.rodata`:CONST:REORDER:NOROOT(2)
        SECTION_GROUP _ZTISt10ctype_base
        DATA
// __absolute __class_type_info const <Typeinfo for std::ctype_base>
_ZTISt10ctype_base:
        DATA32
        DC32 _ZTVN10__cxxabiv117__class_type_infoE + 0x8, _ZTSSt10ctype_base

        SECTION `.rodata`:CONST:REORDER:NOROOT(2)
        SECTION_GROUP _ZTSSt10ctype_base
        DATA
// __absolute char const <Typeinfo name for std::ctype_base>[15]
_ZTSSt10ctype_base:
        DATA8
        DC8 "St10ctype_base"
        DC8 0

        SECTION `.rodata`:CONST:REORDER:NOROOT(2)
        DATA
?_0:
        DATA8
        DC8 "displayUpdateTask"
        DATA16
        DC8 0, 0

        SECTION `.rodata`:CONST:REORDER:NOROOT(2)
        DATA
?_1:
        DATA8
        DC8 "bluetoothTask"
        DATA16
        DC8 0, 0

        SECTION `.rodata`:CONST:REORDER:NOROOT(2)
        DATA
?_2:
        DATA8
        DC8 "buttonEventTask"

        SECTION `.rodata`:CONST:REORDER:NOROOT(2)
        DATA
?_3:
        DATA8
        DC8 "measurementTask"

        SECTION `.rodata`:CONST:REORDER:NOROOT(2)
        DATA
?_4:
        DATA16
        DC16 10, 40

        SECTION `.rodata`:CONST:REORDER:NOROOT(2)
        DATA
?_5:
        DATA16
        DC16 0, 0

        SECTION `.rodata`:CONST:REORDER:NOROOT(2)
        DATA
?_6:
        DATA16
        DC16 400, 300

        SECTION `.rodata`:CONST:REORDER:NOROOT(2)
        DATA
?_7:
        DATA16
        DC16 0, 0

        SECTION `.rodata`:CONST:REORDER:NOROOT(2)
        DATA
?_8:
        DATA16
        DC16 400, 300

        SECTION `.rodata`:CONST:REORDER:NOROOT(3)
        DATA
?_9:
        DATA64
        DC64 100

        SECTION `.rodata`:CONST:REORDER:NOROOT(2)
        DATA
?_10:
        DATA8
        DC8 "Temperature"

        SECTION `.rodata`:CONST:REORDER:NOROOT(2)
        DATA
?_11:
        DATA8
        DC8 "Pressure"
        DATA
        DC8 0, 0, 0

        SECTION `.rodata`:CONST:REORDER:NOROOT(2)
        DATA
?_12:
        DATA8
        DC8 "Humidity"
        DATA
        DC8 0, 0, 0

        SECTION `.rodata`:CONST:REORDER:NOROOT(2)
        DATA
?_13:
        DATA8
        DC8 "Dew point"
        DATA16
        DC8 0, 0

        SECTION `.rodata`:CONST:REORDER:NOROOT(0)
        DATA
// D:\Nikolaos\My Documents\IAR projects\CourseWork-main2\CourseWorkIARproject\main.cpp
//    1 #include "rtos.hpp"            // for Rtos
?_14:
        DATA8
        DC8 0

        SECTION `.rodata`:CONST:REORDER:NOROOT(0)
        SECTION_GROUP _ZNSt6chrono12system_clock9is_steadyE
        DATA
// __absolute bool const std::chrono::system_clock::is_steady
_ZNSt6chrono12system_clock9is_steadyE:
        DATA8
        DC8 0

        SECTION `.rodata`:CONST:REORDER:NOROOT(0)
        SECTION_GROUP _ZNSt6chrono12system_clock12is_monotonicE
        DATA
// __absolute bool const std::chrono::system_clock::is_monotonic
_ZNSt6chrono12system_clock12is_monotonicE:
        DATA8
        DC8 0

        SECTION `.rodata`:CONST:REORDER:NOROOT(0)
        SECTION_GROUP _ZNSt6chrono12steady_clock9is_steadyE
        DATA
// __absolute bool const std::chrono::steady_clock::is_steady
_ZNSt6chrono12steady_clock9is_steadyE:
        DATA8
        DC8 1
//    2 #include "event.hpp"           // for Event
//    3 #include "buttonsconfig.h"

        SECTION `.rodata`:CONST:REORDER:NOROOT(2)
        SECTION_GROUP _ZZN8RegisterILj1073887280ELj32E13ReadWriteModeN3RCC14RCCAHB1ENRBaseEJ10FieldValueI26RCC_AHB1ENR_GPIOCEN_ValuesINS1_7AHB1ENRELj2ELj1ES0_S2_ES2_Lj1EvES3_I26RCC_AHB1ENR_GPIOBEN_ValuesIS5_Lj1ELj1ES0_S2_ES2_Lj1EvES3_I26RCC_AHB1ENR_GPIOAEN_ValuesIS5_Lj0ELj1ES0_S2_ES2_Lj1EvEEE3SetIS0_vEEvvE4mask
        DATA
// __absolute unsigned int const mask
_ZZN8RegisterILj1073887280ELj32E13ReadWriteModeN3RCC14RCCAHB1ENRBaseEJ10FieldValueI26RCC_AHB1ENR_GPIOCEN_ValuesINS1_7AHB1ENRELj2ELj1ES0_S2_ES2_Lj1EvES3_I26RCC_AHB1ENR_GPIOBEN_ValuesIS5_Lj1ELj1ES0_S2_ES2_Lj1EvES3_I26RCC_AHB1ENR_GPIOAEN_ValuesIS5_Lj0ELj1ES0_S2_ES2_Lj1EvEEE3SetIS0_vEEvvE4mask:
        DATA32
        DC32 7

        SECTION `.rodata`:CONST:REORDER:NOROOT(2)
        SECTION_GROUP _ZZN8RegisterILj1073873920ELj32E13ReadWriteModeN5GPIOB14GPIOBMODERBaseEJ10FieldValueI26GPIOB_MODER_MODER15_ValuesINS1_5MODERELj2ELj2ES0_S2_ES2_Lj1EvES3_IS4_IS5_Lj4ELj2ES0_S2_ES2_Lj1EvES3_IS4_IS5_Lj26ELj2ES0_S2_ES2_Lj2EvES3_IS4_IS5_Lj30ELj2ES0_S2_ES2_Lj2EvEEE3SetIS0_vEEvvE4mask
        DATA
// __absolute unsigned int const mask
_ZZN8RegisterILj1073873920ELj32E13ReadWriteModeN5GPIOB14GPIOBMODERBaseEJ10FieldValueI26GPIOB_MODER_MODER15_ValuesINS1_5MODERELj2ELj2ES0_S2_ES2_Lj1EvES3_IS4_IS5_Lj4ELj2ES0_S2_ES2_Lj1EvES3_IS4_IS5_Lj26ELj2ES0_S2_ES2_Lj2EvES3_IS4_IS5_Lj30ELj2ES0_S2_ES2_Lj2EvEEE3SetIS0_vEEvvE4mask:
        DATA32
        DC32 3'422'552'124

        SECTION `.rodata`:CONST:REORDER:NOROOT(2)
        SECTION_GROUP _ZZN8RegisterILj1073873956ELj32E13ReadWriteModeN5GPIOB13GPIOBAFRHBaseEJ10FieldValueI23GPIOB_AFRL_AFRL7_ValuesINS1_4AFRHELj20ELj4ES0_S2_ES2_Lj5EvES3_IS4_IS5_Lj28ELj4ES0_S2_ES2_Lj5EvEEE3SetIS0_vEEvvE4mask
        DATA
// __absolute unsigned int const mask
_ZZN8RegisterILj1073873956ELj32E13ReadWriteModeN5GPIOB13GPIOBAFRHBaseEJ10FieldValueI23GPIOB_AFRL_AFRL7_ValuesINS1_4AFRHELj20ELj4ES0_S2_ES2_Lj5EvES3_IS4_IS5_Lj28ELj4ES0_S2_ES2_Lj5EvEEE3SetIS0_vEEvvE4mask:
        DATA32
        DC32 4'042'260'480

        SECTION `.rodata`:CONST:REORDER:NOROOT(2)
        SECTION_GROUP _ZZN8RegisterILj1073874944ELj32E13ReadWriteModeN5GPIOC14GPIOCMODERBaseEJ10FieldValueI26GPIOC_MODER_MODER15_ValuesINS1_5MODERELj4ELj2ES0_S2_ES2_Lj0EvES3_IS4_IS5_Lj6ELj2ES0_S2_ES2_Lj1EvEEE3SetIS0_vEEvvE4mask
        DATA
// __absolute unsigned int const mask
_ZZN8RegisterILj1073874944ELj32E13ReadWriteModeN5GPIOC14GPIOCMODERBaseEJ10FieldValueI26GPIOC_MODER_MODER15_ValuesINS1_5MODERELj4ELj2ES0_S2_ES2_Lj0EvES3_IS4_IS5_Lj6ELj2ES0_S2_ES2_Lj1EvEEE3SetIS0_vEEvvE4mask:
        DATA32
        DC32 240

        SECTION `.rodata`:CONST:REORDER:NOROOT(2)
        SECTION_GROUP _ZZN8RegisterILj1073873920ELj32E13ReadWriteModeN5GPIOB14GPIOBMODERBaseEJ10FieldValueI26GPIOB_MODER_MODER15_ValuesINS1_5MODERELj6ELj2ES0_S2_ES2_Lj2EvES3_IS4_IS5_Lj8ELj2ES0_S2_ES2_Lj2EvES3_IS4_IS5_Lj10ELj2ES0_S2_ES2_Lj2EvES3_IS4_IS5_Lj20ELj2ES0_S2_ES2_Lj1EvEEE3SetIS0_vEEvvE4mask
        DATA
// __absolute unsigned int const mask
_ZZN8RegisterILj1073873920ELj32E13ReadWriteModeN5GPIOB14GPIOBMODERBaseEJ10FieldValueI26GPIOB_MODER_MODER15_ValuesINS1_5MODERELj6ELj2ES0_S2_ES2_Lj2EvES3_IS4_IS5_Lj8ELj2ES0_S2_ES2_Lj2EvES3_IS4_IS5_Lj10ELj2ES0_S2_ES2_Lj2EvES3_IS4_IS5_Lj20ELj2ES0_S2_ES2_Lj1EvEEE3SetIS0_vEEvvE4mask:
        DATA32
        DC32 3'149'760

        SECTION `.rodata`:CONST:REORDER:NOROOT(2)
        SECTION_GROUP _ZZN8RegisterILj1073873952ELj32E13ReadWriteModeN5GPIOB13GPIOBAFRLBaseEJ10FieldValueI23GPIOB_AFRL_AFRL7_ValuesINS1_4AFRLELj12ELj4ES0_S2_ES2_Lj5EvES3_IS4_IS5_Lj16ELj4ES0_S2_ES2_Lj5EvES3_IS4_IS5_Lj20ELj4ES0_S2_ES2_Lj5EvEEE3SetIS0_vEEvvE4mask
        DATA
// __absolute unsigned int const mask
_ZZN8RegisterILj1073873952ELj32E13ReadWriteModeN5GPIOB13GPIOBAFRLBaseEJ10FieldValueI23GPIOB_AFRL_AFRL7_ValuesINS1_4AFRLELj12ELj4ES0_S2_ES2_Lj5EvES3_IS4_IS5_Lj16ELj4ES0_S2_ES2_Lj5EvES3_IS4_IS5_Lj20ELj4ES0_S2_ES2_Lj5EvEEE3SetIS0_vEEvvE4mask:
        DATA32
        DC32 16'773'120

        SECTION `.rodata`:CONST:REORDER:NOROOT(2)
        SECTION_GROUP _ZZN8RegisterILj1073887280ELj32E13ReadWriteModeN3RCC14RCCAHB1ENRBaseEJ10FieldValueI26RCC_AHB1ENR_GPIOCEN_ValuesINS1_7AHB1ENRELj2ELj1ES0_S2_ES2_Lj1EvES3_I26RCC_AHB1ENR_GPIOBEN_ValuesIS5_Lj1ELj1ES0_S2_ES2_Lj1EvES3_I26RCC_AHB1ENR_GPIOAEN_ValuesIS5_Lj0ELj1ES0_S2_ES2_Lj1EvEEE3SetIS0_vEEvvE5value
        DATA
// __absolute unsigned int const value
_ZZN8RegisterILj1073887280ELj32E13ReadWriteModeN3RCC14RCCAHB1ENRBaseEJ10FieldValueI26RCC_AHB1ENR_GPIOCEN_ValuesINS1_7AHB1ENRELj2ELj1ES0_S2_ES2_Lj1EvES3_I26RCC_AHB1ENR_GPIOBEN_ValuesIS5_Lj1ELj1ES0_S2_ES2_Lj1EvES3_I26RCC_AHB1ENR_GPIOAEN_ValuesIS5_Lj0ELj1ES0_S2_ES2_Lj1EvEEE3SetIS0_vEEvvE5value:
        DATA32
        DC32 7

        SECTION `.rodata`:CONST:REORDER:NOROOT(2)
        SECTION_GROUP _ZZN8RegisterILj1073873920ELj32E13ReadWriteModeN5GPIOB14GPIOBMODERBaseEJ10FieldValueI26GPIOB_MODER_MODER15_ValuesINS1_5MODERELj2ELj2ES0_S2_ES2_Lj1EvES3_IS4_IS5_Lj4ELj2ES0_S2_ES2_Lj1EvES3_IS4_IS5_Lj26ELj2ES0_S2_ES2_Lj2EvES3_IS4_IS5_Lj30ELj2ES0_S2_ES2_Lj2EvEEE3SetIS0_vEEvvE5value
        DATA
// __absolute unsigned int const value
_ZZN8RegisterILj1073873920ELj32E13ReadWriteModeN5GPIOB14GPIOBMODERBaseEJ10FieldValueI26GPIOB_MODER_MODER15_ValuesINS1_5MODERELj2ELj2ES0_S2_ES2_Lj1EvES3_IS4_IS5_Lj4ELj2ES0_S2_ES2_Lj1EvES3_IS4_IS5_Lj26ELj2ES0_S2_ES2_Lj2EvES3_IS4_IS5_Lj30ELj2ES0_S2_ES2_Lj2EvEEE3SetIS0_vEEvvE5value:
        DATA32
        DC32 2'281'701'396

        SECTION `.rodata`:CONST:REORDER:NOROOT(2)
        SECTION_GROUP _ZZN8RegisterILj1073873956ELj32E13ReadWriteModeN5GPIOB13GPIOBAFRHBaseEJ10FieldValueI23GPIOB_AFRL_AFRL7_ValuesINS1_4AFRHELj20ELj4ES0_S2_ES2_Lj5EvES3_IS4_IS5_Lj28ELj4ES0_S2_ES2_Lj5EvEEE3SetIS0_vEEvvE5value
        DATA
// __absolute unsigned int const value
_ZZN8RegisterILj1073873956ELj32E13ReadWriteModeN5GPIOB13GPIOBAFRHBaseEJ10FieldValueI23GPIOB_AFRL_AFRL7_ValuesINS1_4AFRHELj20ELj4ES0_S2_ES2_Lj5EvES3_IS4_IS5_Lj28ELj4ES0_S2_ES2_Lj5EvEEE3SetIS0_vEEvvE5value:
        DATA32
        DC32 1'347'420'160

        SECTION `.rodata`:CONST:REORDER:NOROOT(2)
        SECTION_GROUP _ZZN8RegisterILj1073874944ELj32E13ReadWriteModeN5GPIOC14GPIOCMODERBaseEJ10FieldValueI26GPIOC_MODER_MODER15_ValuesINS1_5MODERELj4ELj2ES0_S2_ES2_Lj0EvES3_IS4_IS5_Lj6ELj2ES0_S2_ES2_Lj1EvEEE3SetIS0_vEEvvE5value
        DATA
// __absolute unsigned int const value
_ZZN8RegisterILj1073874944ELj32E13ReadWriteModeN5GPIOC14GPIOCMODERBaseEJ10FieldValueI26GPIOC_MODER_MODER15_ValuesINS1_5MODERELj4ELj2ES0_S2_ES2_Lj0EvES3_IS4_IS5_Lj6ELj2ES0_S2_ES2_Lj1EvEEE3SetIS0_vEEvvE5value:
        DATA32
        DC32 64

        SECTION `.rodata`:CONST:REORDER:NOROOT(2)
        SECTION_GROUP _ZZN8RegisterILj1073873920ELj32E13ReadWriteModeN5GPIOB14GPIOBMODERBaseEJ10FieldValueI26GPIOB_MODER_MODER15_ValuesINS1_5MODERELj6ELj2ES0_S2_ES2_Lj2EvES3_IS4_IS5_Lj8ELj2ES0_S2_ES2_Lj2EvES3_IS4_IS5_Lj10ELj2ES0_S2_ES2_Lj2EvES3_IS4_IS5_Lj20ELj2ES0_S2_ES2_Lj1EvEEE3SetIS0_vEEvvE5value
        DATA
// __absolute unsigned int const value
_ZZN8RegisterILj1073873920ELj32E13ReadWriteModeN5GPIOB14GPIOBMODERBaseEJ10FieldValueI26GPIOB_MODER_MODER15_ValuesINS1_5MODERELj6ELj2ES0_S2_ES2_Lj2EvES3_IS4_IS5_Lj8ELj2ES0_S2_ES2_Lj2EvES3_IS4_IS5_Lj10ELj2ES0_S2_ES2_Lj2EvES3_IS4_IS5_Lj20ELj2ES0_S2_ES2_Lj1EvEEE3SetIS0_vEEvvE5value:
        DATA32
        DC32 1'051'264

        SECTION `.rodata`:CONST:REORDER:NOROOT(2)
        SECTION_GROUP _ZZN8RegisterILj1073873952ELj32E13ReadWriteModeN5GPIOB13GPIOBAFRLBaseEJ10FieldValueI23GPIOB_AFRL_AFRL7_ValuesINS1_4AFRLELj12ELj4ES0_S2_ES2_Lj5EvES3_IS4_IS5_Lj16ELj4ES0_S2_ES2_Lj5EvES3_IS4_IS5_Lj20ELj4ES0_S2_ES2_Lj5EvEEE3SetIS0_vEEvvE5value
        DATA
// __absolute unsigned int const value
_ZZN8RegisterILj1073873952ELj32E13ReadWriteModeN5GPIOB13GPIOBAFRLBaseEJ10FieldValueI23GPIOB_AFRL_AFRL7_ValuesINS1_4AFRLELj12ELj4ES0_S2_ES2_Lj5EvES3_IS4_IS5_Lj16ELj4ES0_S2_ES2_Lj5EvES3_IS4_IS5_Lj20ELj4ES0_S2_ES2_Lj5EvEEE3SetIS0_vEEvvE5value:
        DATA32
        DC32 5'591'040
//    4 #include "BluetoothTask.h"

        SECTION `.text`:CODE:NOROOT(1)
          CFI Block cfiBlock0 Using cfiCommon0
          CFI Function __sti__routine
        THUMB
// static __intrinsic __interwork __vfp void __sti__routine()
__sti__routine:
        PUSH     {R7,LR}
          CFI R14 Frame(CFA, -4)
          CFI CFA R13+8
        SUB      SP,SP,#+96
          CFI CFA R13+104
        LDR.N    R1,??DataTable7
        LDRB     R0,[R1, #+0]
        CMP      R0,#+0
        BNE.N    ??__sti__routine_0
        MOVS     R0,#+1
        STRB     R0,[R1, #+0]
        LDR.N    R0,??DataTable7_1
          CFI FunCall _ZN11usartDriverI6Usart2EC1Ev
        BL       _ZN11usartDriverI6Usart2EC1Ev
??__sti__routine_0:
        LDR.N    R1,??DataTable7_2
        LDRB     R0,[R1, #+0]
        CMP      R0,#+0
        BNE.N    ??__sti__routine_1
        MOVS     R0,#+1
        STRB     R0,[R1, #+0]
        LDR.N    R0,??DataTable7_3
          CFI FunCall _ZN12BME280DriverIL_Z15spi1TransceiverE3PinI4PortI5GPIOBELh10EEEC1Ev
        BL       _ZN12BME280DriverIL_Z15spi1TransceiverE3PinI4PortI5GPIOBELh10EEEC1Ev
??__sti__routine_1:
        LDR.N    R1,??DataTable7_4
        LDRB     R0,[R1, #+0]
        CMP      R0,#+0
        BNE.N    ??__sti__routine_2
        MOVS     R0,#+1
        STRB     R0,[R1, #+0]
        LDR.N    R1,??DataTable7_5
        ADD      R0,SP,#+72
          CFI FunCall _ZNSsC1EPKc
        BL       _ZNSsC1EPKc
        ADR.W    R2,_Z7fcnTempv
        MOVS     R1,R0
        LDR.N    R0,??DataTable7_6
          CFI FunCall _ZN11TemperatureC1ESsPFdvE
        BL       _ZN11TemperatureC1ESsPFdvE
        LDR.N    R2,??DataTable7_7
        LDR.N    R1,??DataTable7_8
          CFI FunCall __aeabi_atexit
        BL       __aeabi_atexit
        ADD      R0,SP,#+72
          CFI FunCall _ZNSsD1Ev
        BL       _ZNSsD1Ev
??__sti__routine_2:
        LDR.N    R1,??DataTable7_9
        LDRB     R0,[R1, #+0]
        CMP      R0,#+0
        BNE.N    ??__sti__routine_3
        MOVS     R0,#+1
        STRB     R0,[R1, #+0]
        LDR.N    R1,??DataTable7_10
        ADD      R0,SP,#+48
          CFI FunCall _ZNSsC1EPKc
        BL       _ZNSsC1EPKc
        ADR.W    R3,_Z8fcnPressv
        MOVS     R2,#+3
        MOVS     R1,R0
        LDR.N    R0,??DataTable7_11
          CFI FunCall _ZN11MeasurementC1ESs4UnitPFdvE
        BL       _ZN11MeasurementC1ESs4UnitPFdvE
        LDR.N    R2,??DataTable7_7
        LDR.N    R1,??DataTable7_12
          CFI FunCall __aeabi_atexit
        BL       __aeabi_atexit
        ADD      R0,SP,#+48
          CFI FunCall _ZNSsD1Ev
        BL       _ZNSsD1Ev
??__sti__routine_3:
        LDR.N    R1,??DataTable7_13
        LDRB     R0,[R1, #+0]
        CMP      R0,#+0
        BNE.N    ??__sti__routine_4
        MOVS     R0,#+1
        STRB     R0,[R1, #+0]
        LDR.N    R1,??DataTable7_14
        ADD      R0,SP,#+24
          CFI FunCall _ZNSsC1EPKc
        BL       _ZNSsC1EPKc
        ADR.W    R3,_Z6fcnHumv
        MOVS     R2,#+4
        MOVS     R1,R0
        LDR.N    R0,??DataTable7_15
          CFI FunCall _ZN11MeasurementC1ESs4UnitPFdvE
        BL       _ZN11MeasurementC1ESs4UnitPFdvE
        LDR.N    R2,??DataTable7_7
        LDR.N    R1,??DataTable7_12
          CFI FunCall __aeabi_atexit
        BL       __aeabi_atexit
        ADD      R0,SP,#+24
          CFI FunCall _ZNSsD1Ev
        BL       _ZNSsD1Ev
??__sti__routine_4:
        LDR.N    R1,??DataTable7_16
        LDRB     R0,[R1, #+0]
        CMP      R0,#+0
        BNE.N    ??__sti__routine_5
        MOVS     R0,#+1
        STRB     R0,[R1, #+0]
        LDR.N    R1,??DataTable7_17
        MOV      R0,SP
          CFI FunCall _ZNSsC1EPKc
        BL       _ZNSsC1EPKc
        ADR.W    R2,_Z7fcnDewPv
        MOVS     R1,R0
        LDR.N    R0,??DataTable7_18
          CFI FunCall _ZN11TemperatureC1ESsPFdvE
        BL       _ZN11TemperatureC1ESsPFdvE
        LDR.N    R2,??DataTable7_7
        LDR.N    R1,??DataTable7_8
          CFI FunCall __aeabi_atexit
        BL       __aeabi_atexit
        MOV      R0,SP
          CFI FunCall _ZNSsD1Ev
        BL       _ZNSsD1Ev
??__sti__routine_5:
        LDR.N    R1,??DataTable7_19
        LDRB     R0,[R1, #+0]
        CMP      R0,#+0
        BNE.N    ??__sti__routine_6
        MOVS     R0,#+1
        STRB     R0,[R1, #+0]
//    5 #include "ButtonEventTask.h"
//    6 #include "MeasurementTask.h"
//    7 #include "DisplayUpdateTask.h"
        LDR.N    R0,??DataTable7_20
          CFI FunCall _ZN9EPDDriverIL_Z15spi2TransceiverE3PinI4PortI5GPIOBELh1EES0_IS3_Lh2EES0_IS1_I5GPIOCELh3EES0_IS7_Lh2EEEC1Ev
        BL       _ZN9EPDDriverIL_Z15spi2TransceiverE3PinI4PortI5GPIOBELh1EES0_IS3_Lh2EES0_IS1_I5GPIOCELh3EES0_IS7_Lh2EEEC1Ev
??__sti__routine_6:
        LDR.N    R2,??DataTable7_21
        LDR.N    R1,??DataTable7_22
        LDR.N    R0,??DataTable7_23
          CFI FunCall _ZN12ScreenDriverILt400ELt300EEC1ERKSt5arrayIhLj15000EEP5tFont
        BL       _ZN12ScreenDriverILt400ELt300EEC1ERKSt5arrayIhLj15000EEP5tFont
        MOVS     R0,#+1
        STR      R0,[SP, #+0]
        LDR.N    R0,??DataTable7_24
        LDRD     R2,R3,[R0, #+0]
        LDR.N    R0,??DataTable7_25
          CFI FunCall _ZN9OsWrapper5EventC1ENSt6chrono8durationIxSt5ratioILx1ELx1000EEEEj
        BL       _ZN9OsWrapper5EventC1ENSt6chrono8durationIxSt5ratioILx1ELx1000EEEEj
        LDR.N    R2,??DataTable7_7
        LDR.N    R1,??DataTable7_26
          CFI FunCall __aeabi_atexit
        BL       __aeabi_atexit
        LDR.N    R0,??DataTable7_27
          CFI FunCall _ZN15ButtonEventTaskI6ButtonI3PinI4PortI5GPIOCELh13EEEL_Z5eventEEC1Ev
        BL       _ZN15ButtonEventTaskI6ButtonI3PinI4PortI5GPIOCELh13EEEL_Z5eventEEC1Ev
        LDR.N    R0,??DataTable7_28
          CFI FunCall _ZN13BluetoothTaskC1Ev
        BL       _ZN13BluetoothTaskC1Ev
        LDR.N    R0,??DataTable7_29
          CFI FunCall _ZN17DisplayUpdateTaskC1Ev
        BL       _ZN17DisplayUpdateTaskC1Ev
        LDR.N    R0,??DataTable7_30
          CFI FunCall _ZN15MeasurementTaskIL_Z5eventEEC1Ev
        BL       _ZN15MeasurementTaskIL_Z5eventEEC1Ev
        ADD      SP,SP,#+100
          CFI CFA R13+4
        POP      {PC}             ;; return
          CFI EndBlock cfiBlock0

        SECTION `.bss`:DATA:REORDER:NOROOT(0)
        SECTION_GROUP _ZGV20bluetoothTransceiver
        DATA
// __absolute unsigned char <_ZGV20bluetoothTransceiver>
_ZGV20bluetoothTransceiver:
        DS8 1

        SECTION `.bss`:DATA:REORDER:NOROOT(0)
        SECTION_GROUP _ZGV6bme280
        DATA
// __absolute unsigned char <_ZGV6bme280>
_ZGV6bme280:
        DS8 1

        SECTION `.bss`:DATA:REORDER:NOROOT(0)
        SECTION_GROUP _ZGV11temperature
        DATA
// __absolute unsigned char <_ZGV11temperature>
_ZGV11temperature:
        DS8 1

        SECTION `.bss`:DATA:REORDER:NOROOT(0)
        SECTION_GROUP _ZGV8pressure
        DATA
// __absolute unsigned char <_ZGV8pressure>
_ZGV8pressure:
        DS8 1

        SECTION `.bss`:DATA:REORDER:NOROOT(0)
        SECTION_GROUP _ZGV8humidity
        DATA
// __absolute unsigned char <_ZGV8humidity>
_ZGV8humidity:
        DS8 1

        SECTION `.bss`:DATA:REORDER:NOROOT(0)
        SECTION_GROUP _ZGV8dewPoint
        DATA
// __absolute unsigned char <_ZGV8dewPoint>
_ZGV8dewPoint:
        DS8 1

        SECTION `.bss`:DATA:REORDER:NOROOT(0)
        SECTION_GROUP _ZGV11eInkDisplay
        DATA
// __absolute unsigned char <_ZGV11eInkDisplay>
_ZGV11eInkDisplay:
        DS8 1

        SECTION `.bss`:DATA:REORDER:NOROOT(2)
        SECTION_GROUP bluetoothTransceiver
        DATA
// __absolute usartDriver<Usart2> bluetoothTransceiver
bluetoothTransceiver:
        DS8 2'068

        SECTION `.data`:DATA:REORDER:NOROOT(2)
        SECTION_GROUP spi1Transceiver
        DATA
// __absolute SpiDriver<Spi1> spi1Transceiver
spi1Transceiver:
        DATA8
        DC8 0, 0, 0, 0, 0, 0, 0, 0, 0, 0, 0, 0, 0, 0, 0, 0, 0, 0, 0, 0, 0, 0, 0
        DC8 0, 0, 0, 0, 0, 0, 0, 0, 0, 0, 0, 0, 0, 0, 0, 0, 0, 0, 0, 0, 0, 0, 0
        DC8 0, 0, 0, 0, 0, 0, 0, 0, 0, 0, 0, 0, 0, 0, 0, 0, 0, 0, 0, 0, 0, 0, 0
        DC8 0, 0, 0, 0, 0, 0, 0, 0, 0, 0, 0, 0, 0, 0, 0, 0, 0, 0, 0, 0, 0, 0, 0
        DC8 0, 0, 0, 0, 0, 0, 0, 0, 0, 0, 0, 0, 0, 0, 0, 0, 0, 0, 0, 0, 0, 0, 0
        DC8 0, 0, 0, 0, 0, 0, 0, 0, 0, 0, 0, 0, 0, 0, 0, 0, 0, 0, 0, 0, 0, 0, 0
        DC8 0, 0, 0, 0, 0, 0, 0, 0, 0, 0, 0, 0, 0, 0, 0, 0, 0, 0, 0, 0, 0, 0, 0
        DC8 0, 0, 0, 0, 0, 0, 0, 0, 0, 0, 0, 0, 0, 0, 0, 0, 0, 0, 0, 0, 0, 0, 0
        DC8 0, 0, 0, 0, 0, 0, 0, 0, 0, 0, 0, 0, 0, 0, 0, 0, 0, 0, 0, 0, 0, 0, 0
        DC8 0, 0, 0, 0, 0, 0, 0, 0, 0, 0, 0, 0, 0, 0, 0, 0, 0, 0, 0, 0, 0, 0, 0
        DC8 0, 0, 0, 0, 0, 0, 0, 0, 0, 0, 0, 0, 0, 0, 0, 0, 0, 0, 0, 0, 0, 0, 0
        DC8 0, 0, 0, 0, 0, 0, 0, 0, 0, 0, 0, 0, 0, 0, 0, 0, 0, 0, 0, 0, 0, 0, 0
        DC8 0, 0, 0, 0, 0, 0, 0, 0, 0, 0, 0, 0, 0, 0, 0, 0, 0, 0, 0, 0, 0, 0, 0
        DC8 0, 0, 0, 0, 0, 0, 0, 0, 0, 0, 0, 0, 0, 0, 0, 0, 0, 0, 0, 0, 0, 0, 0
        DC8 0, 0, 0, 0, 0, 0, 0, 0, 0, 0, 0, 0, 0, 0, 0, 0, 0, 0, 0, 0, 0, 0, 0
        DC8 0, 0, 0, 0, 0, 0, 0, 0, 0, 0, 0, 0, 0, 0, 0, 0, 0, 0, 0, 0, 0, 0, 0
        DC8 0, 0, 0, 0, 0, 0, 0, 0, 0, 0, 0, 0, 0, 0, 0, 0, 0, 0, 0, 0, 0, 0, 0
        DC8 0, 0, 0, 0, 0, 0, 0, 0, 0
        DATA32
        DC32 1, 1
        DATA8
        DC8 0, 0, 0, 0
        DATA32
        DC32 0, 0

        SECTION `.data`:DATA:REORDER:NOROOT(2)
        SECTION_GROUP spi2Transceiver
        DATA
// __absolute SpiDriverOnlyTransmit<Spi2> spi2Transceiver
spi2Transceiver:
        DATA8
        DC8 0, 0, 0, 0, 0, 0, 0, 0, 0, 0, 0, 0, 0, 0, 0, 0, 0, 0, 0, 0, 0, 0, 0
        DC8 0, 0, 0, 0, 0, 0, 0, 0, 0, 0, 0, 0, 0, 0, 0, 0, 0, 0, 0, 0, 0, 0, 0
        DC8 0, 0, 0, 0, 0, 0, 0, 0, 0, 0, 0, 0, 0, 0, 0, 0, 0, 0, 0, 0, 0, 0, 0
        DC8 0, 0, 0, 0, 0, 0, 0, 0, 0, 0, 0, 0, 0, 0, 0, 0, 0, 0, 0, 0, 0, 0, 0
        DC8 0, 0, 0, 0, 0, 0, 0, 0, 0, 0, 0, 0, 0, 0, 0, 0, 0, 0, 0, 0, 0, 0, 0
        DC8 0, 0, 0, 0, 0, 0, 0, 0, 0, 0, 0, 0, 0, 0, 0, 0, 0, 0, 0, 0, 0, 0, 0
        DC8 0, 0, 0, 0, 0, 0, 0, 0, 0, 0, 0, 0, 0, 0, 0, 0, 0, 0, 0, 0, 0, 0, 0
        DC8 0, 0, 0, 0, 0, 0, 0, 0, 0, 0, 0, 0, 0, 0, 0, 0, 0, 0, 0, 0, 0, 0, 0
        DC8 0, 0, 0, 0, 0, 0, 0, 0, 0, 0, 0, 0, 0, 0, 0, 0, 0, 0, 0, 0, 0, 0, 0
        DC8 0, 0, 0, 0, 0, 0, 0, 0, 0, 0, 0, 0, 0, 0, 0, 0, 0, 0, 0, 0, 0, 0, 0
        DC8 0, 0, 0, 0, 0, 0, 0, 0, 0, 0, 0, 0, 0, 0, 0, 0, 0, 0, 0, 0, 0, 0, 0
        DC8 0, 0, 0, 0, 0, 0, 0, 0, 0, 0, 0, 0, 0, 0, 0, 0, 0, 0, 0, 0, 0, 0, 0
        DC8 0, 0, 0, 0, 0, 0, 0, 0, 0, 0, 0, 0, 0, 0, 0, 0, 0, 0, 0, 0, 0, 0, 0
        DC8 0, 0, 0, 0, 0, 0, 0, 0, 0, 0, 0, 0, 0, 0, 0, 0, 0, 0, 0, 0, 0, 0, 0
        DC8 0, 0, 0, 0, 0, 0, 0, 0, 0, 0, 0, 0, 0, 0, 0, 0, 0, 0, 0, 0, 0, 0, 0
        DC8 0, 0, 0, 0, 0, 0, 0, 0, 0, 0, 0, 0, 0, 0, 0, 0, 0, 0, 0, 0, 0, 0, 0
        DC8 0, 0, 0, 0, 0, 0, 0, 0, 0, 0, 0, 0, 0, 0, 0, 0, 0, 0, 0, 0, 0, 0, 0
        DC8 0, 0, 0, 0, 0, 0, 0, 0, 0, 0, 0, 0, 0, 0, 0, 0, 0, 0, 0, 0, 0, 0, 0
        DC8 0, 0, 0, 0, 0, 0, 0, 0, 0, 0, 0, 0, 0, 0, 0, 0, 0, 0, 0, 0, 0, 0, 0
        DC8 0, 0, 0, 0, 0, 0, 0, 0, 0, 0, 0, 0, 0, 0, 0, 0, 0, 0, 0, 0, 0, 0, 0
        DC8 0, 0, 0, 0, 0, 0, 0, 0, 0, 0, 0, 0, 0, 0, 0, 0, 0, 0, 0, 0, 0, 0, 0
        DC8 0, 0, 0, 0, 0, 0, 0, 0, 0, 0, 0, 0, 0, 0, 0, 0, 0, 0, 0, 0, 0, 0, 0
        DC8 0, 0, 0, 0, 0, 0, 0, 0, 0, 0, 0, 0, 0, 0, 0, 0, 0, 0, 0, 0, 0, 0, 0
        DC8 0, 0, 0, 0, 0, 0, 0, 0, 0, 0, 0, 0, 0, 0, 0, 0, 0, 0, 0, 0, 0, 0, 0
        DC8 0, 0, 0, 0, 0, 0, 0, 0, 0, 0, 0, 0, 0, 0, 0, 0, 0, 0, 0, 0, 0, 0, 0
        DC8 0, 0, 0, 0, 0, 0, 0, 0, 0, 0, 0, 0, 0, 0, 0, 0, 0, 0, 0, 0, 0, 0, 0
        DC8 0, 0, 0, 0, 0, 0, 0, 0, 0, 0, 0, 0, 0, 0, 0, 0, 0, 0, 0, 0, 0, 0, 0
        DC8 0, 0, 0, 0, 0, 0, 0, 0, 0, 0, 0, 0, 0, 0, 0, 0, 0, 0, 0, 0, 0, 0, 0
        DC8 0, 0, 0, 0, 0, 0, 0, 0, 0, 0, 0, 0, 0, 0, 0, 0, 0, 0, 0, 0, 0, 0, 0
        DC8 0, 0, 0, 0, 0, 0, 0, 0, 0, 0, 0, 0, 0, 0, 0, 0, 0, 0, 0, 0, 0, 0, 0
        DC8 0, 0, 0, 0, 0, 0, 0, 0, 0, 0, 0, 0, 0, 0, 0, 0, 0, 0, 0, 0, 0, 0, 0
        DC8 0, 0, 0, 0, 0, 0, 0, 0, 0, 0, 0, 0, 0, 0, 0, 0, 0, 0, 0, 0, 0, 0, 0
        DC8 0, 0, 0, 0, 0, 0, 0, 0, 0, 0, 0, 0, 0, 0, 0, 0, 0, 0, 0, 0, 0, 0, 0
        DC8 0, 0, 0, 0, 0, 0, 0, 0, 0, 0, 0, 0, 0, 0, 0, 0, 0, 0, 0, 0, 0, 0, 0
        DC8 0, 0, 0, 0, 0, 0, 0, 0, 0, 0, 0, 0, 0, 0, 0, 0, 0, 0, 0, 0, 0, 0, 0
        DC8 0, 0, 0, 0, 0, 0, 0, 0, 0, 0, 0, 0, 0, 0, 0, 0, 0, 0, 0, 0, 0, 0, 0
        DC8 0, 0, 0, 0, 0, 0, 0, 0, 0, 0, 0, 0, 0, 0, 0, 0, 0, 0, 0, 0, 0, 0, 0
        DC8 0, 0, 0, 0, 0, 0, 0, 0, 0, 0, 0, 0, 0, 0, 0, 0, 0, 0, 0, 0, 0, 0, 0
        DC8 0, 0, 0, 0, 0, 0, 0, 0, 0, 0, 0, 0, 0, 0, 0, 0, 0, 0, 0, 0, 0, 0, 0
        DC8 0, 0, 0, 0, 0, 0, 0, 0, 0, 0, 0, 0, 0, 0, 0, 0, 0, 0, 0, 0, 0, 0, 0
        DC8 0, 0, 0, 0, 0, 0, 0, 0, 0, 0, 0, 0, 0, 0, 0, 0, 0, 0, 0, 0, 0, 0, 0
        DC8 0, 0, 0, 0, 0, 0, 0, 0, 0, 0, 0, 0, 0, 0, 0, 0, 0, 0, 0, 0, 0, 0, 0
        DC8 0, 0, 0, 0, 0, 0, 0, 0, 0, 0, 0, 0, 0, 0, 0, 0, 0, 0, 0, 0, 0, 0, 0
        DC8 0, 0, 0, 0, 0, 0, 0, 0, 0, 0, 0, 0, 0, 0, 0, 0, 0, 0, 0, 0, 0, 0, 0
        DC8 0, 0, 0, 0, 0, 0, 0, 0, 0, 0, 0, 0, 0, 0, 0, 0, 0, 0, 0, 0, 0, 0, 0
        DC8 0, 0, 0, 0, 0, 0, 0, 0, 0, 0, 0, 0, 0, 0, 0, 0, 0, 0, 0, 0, 0, 0, 0
        DC8 0, 0, 0, 0, 0, 0, 0, 0, 0, 0, 0, 0, 0, 0, 0, 0, 0, 0, 0, 0, 0, 0, 0
        DC8 0, 0, 0, 0, 0, 0, 0, 0, 0, 0, 0, 0, 0, 0, 0, 0, 0, 0, 0, 0, 0, 0, 0
        DC8 0, 0, 0, 0, 0, 0, 0, 0, 0, 0, 0, 0, 0, 0, 0, 0, 0, 0, 0, 0, 0, 0, 0
        DC8 0, 0, 0, 0, 0, 0, 0, 0, 0, 0, 0, 0, 0, 0, 0, 0, 0, 0, 0, 0, 0, 0, 0
        DC8 0, 0, 0, 0, 0, 0, 0, 0, 0, 0, 0, 0, 0, 0, 0, 0, 0, 0, 0, 0, 0, 0, 0
        DC8 0, 0, 0, 0, 0, 0, 0, 0, 0, 0, 0, 0, 0, 0, 0, 0, 0, 0, 0, 0, 0, 0, 0
        DC8 0, 0, 0, 0, 0, 0, 0, 0, 0, 0, 0, 0, 0, 0, 0, 0, 0, 0, 0, 0, 0, 0, 0
        DC8 0, 0, 0, 0, 0, 0, 0, 0, 0, 0, 0, 0, 0, 0, 0, 0, 0, 0, 0, 0, 0, 0, 0
        DC8 0, 0, 0, 0, 0, 0, 0, 0, 0, 0, 0, 0, 0, 0, 0, 0, 0, 0, 0, 0, 0, 0, 0
        DC8 0, 0, 0, 0, 0, 0, 0, 0, 0, 0, 0, 0, 0, 0, 0, 0, 0, 0, 0, 0, 0, 0, 0
        DC8 0, 0, 0, 0, 0, 0, 0, 0, 0, 0, 0, 0, 0, 0, 0, 0, 0, 0, 0, 0, 0, 0, 0
        DC8 0, 0, 0, 0, 0, 0, 0, 0, 0, 0, 0, 0, 0, 0, 0, 0, 0, 0, 0, 0, 0, 0, 0
        DC8 0, 0, 0, 0, 0, 0, 0, 0, 0, 0, 0, 0, 0, 0, 0, 0, 0, 0, 0, 0, 0, 0, 0
        DC8 0, 0, 0, 0, 0, 0, 0, 0, 0, 0, 0, 0, 0, 0, 0, 0, 0, 0, 0, 0, 0, 0, 0
        DC8 0, 0, 0, 0, 0, 0, 0, 0, 0, 0, 0, 0, 0, 0, 0, 0, 0, 0, 0, 0, 0, 0, 0
        DC8 0, 0, 0, 0, 0, 0, 0, 0, 0, 0, 0, 0, 0, 0, 0, 0, 0, 0, 0, 0, 0, 0, 0
        DC8 0, 0, 0, 0, 0, 0, 0, 0, 0, 0, 0, 0, 0, 0, 0, 0, 0, 0, 0, 0, 0, 0, 0
        DC8 0, 0, 0, 0, 0, 0, 0, 0, 0, 0, 0, 0, 0, 0, 0, 0, 0, 0, 0, 0, 0, 0, 0
        DC8 0, 0, 0, 0, 0, 0, 0, 0, 0, 0, 0, 0, 0, 0, 0, 0, 0, 0, 0, 0, 0, 0, 0
        DC8 0, 0, 0, 0, 0, 0, 0, 0, 0, 0, 0, 0, 0, 0, 0, 0, 0, 0, 0, 0, 0, 0, 0
        DC8 0, 0, 0, 0, 0, 0, 0, 0, 0, 0, 0, 0, 0, 0, 0, 0, 0, 0, 0, 0, 0, 0, 0
        DC8 0, 0, 0, 0, 0, 0, 0, 0, 0, 0, 0, 0, 0, 0, 0, 0, 0, 0, 0, 0, 0, 0, 0
        DC8 0, 0, 0, 0, 0, 0, 0, 0, 0, 0, 0, 0, 0, 0, 0, 0, 0, 0, 0, 0, 0, 0, 0
        DC8 0, 0, 0, 0, 0, 0, 0, 0, 0, 0, 0, 0, 0, 0, 0, 0, 0, 0, 0, 0, 0, 0, 0
        DC8 0, 0, 0, 0, 0, 0, 0, 0, 0, 0, 0, 0, 0, 0, 0, 0, 0, 0, 0, 0, 0, 0, 0
        DC8 0, 0, 0, 0, 0, 0, 0, 0, 0, 0, 0, 0, 0, 0, 0, 0, 0, 0, 0, 0, 0, 0, 0
        DC8 0, 0, 0, 0, 0, 0, 0, 0, 0, 0, 0, 0, 0, 0, 0, 0, 0, 0, 0, 0, 0, 0, 0
        DC8 0, 0, 0, 0, 0, 0, 0, 0, 0, 0, 0, 0, 0, 0, 0, 0, 0, 0, 0, 0, 0, 0, 0
        DC8 0, 0, 0, 0, 0, 0, 0, 0, 0, 0, 0, 0, 0, 0, 0, 0, 0, 0, 0, 0, 0, 0, 0
        DC8 0, 0, 0, 0, 0, 0, 0, 0, 0, 0, 0, 0, 0, 0, 0, 0, 0, 0, 0, 0, 0, 0, 0
        DC8 0, 0, 0, 0, 0, 0, 0, 0, 0, 0, 0, 0, 0, 0, 0, 0, 0, 0, 0, 0, 0, 0, 0
        DC8 0, 0, 0, 0, 0, 0, 0, 0, 0, 0, 0, 0, 0, 0, 0, 0, 0, 0, 0, 0, 0, 0, 0
        DC8 0, 0, 0, 0, 0, 0, 0, 0, 0, 0, 0, 0, 0, 0, 0, 0, 0, 0, 0, 0, 0, 0, 0
        DC8 0, 0, 0, 0, 0, 0, 0, 0, 0, 0, 0, 0, 0, 0, 0, 0, 0, 0, 0, 0, 0, 0, 0
        DC8 0, 0, 0, 0, 0, 0, 0, 0, 0, 0, 0, 0, 0, 0, 0, 0, 0, 0, 0, 0, 0, 0, 0
        DC8 0, 0, 0, 0, 0, 0, 0, 0, 0, 0, 0, 0, 0, 0, 0, 0, 0, 0, 0, 0, 0, 0, 0
        DC8 0, 0, 0, 0, 0, 0, 0, 0, 0, 0, 0, 0, 0, 0, 0, 0, 0, 0, 0, 0, 0, 0, 0
        DC8 0, 0, 0, 0, 0, 0, 0, 0, 0, 0, 0, 0, 0, 0, 0, 0, 0, 0, 0, 0, 0, 0, 0
        DC8 0, 0, 0, 0, 0, 0, 0, 0, 0, 0, 0, 0, 0, 0, 0, 0, 0, 0, 0, 0, 0, 0, 0
        DC8 0, 0, 0, 0, 0, 0, 0, 0, 0, 0, 0, 0, 0, 0, 0, 0, 0, 0, 0, 0, 0, 0, 0
        DC8 0, 0, 0, 0, 0, 0, 0, 0, 0, 0, 0, 0, 0, 0, 0, 0, 0, 0, 0, 0, 0, 0, 0
        DC8 0, 0, 0, 0, 0, 0, 0, 0, 0, 0, 0, 0, 0, 0, 0, 0, 0, 0, 0, 0, 0, 0, 0
        DC8 0, 0, 0, 0, 0, 0, 0, 0, 0, 0, 0, 0, 0, 0, 0, 0, 0, 0, 0, 0, 0, 0, 0
        DC8 0, 0, 0, 0, 0, 0, 0, 0, 0, 0, 0, 0, 0, 0, 0, 0, 0, 0, 0, 0, 0, 0, 0
        DC8 0, 0, 0, 0, 0, 0, 0, 0, 0, 0, 0, 0, 0, 0, 0, 0, 0, 0, 0, 0, 0, 0, 0
        DC8 0, 0, 0, 0, 0, 0, 0, 0, 0, 0, 0, 0, 0, 0, 0, 0, 0, 0, 0, 0, 0, 0, 0
        DC8 0, 0, 0, 0, 0, 0, 0, 0, 0, 0, 0, 0, 0, 0, 0, 0, 0, 0, 0, 0, 0, 0, 0
        DC8 0, 0, 0, 0, 0, 0, 0, 0, 0, 0, 0, 0, 0, 0, 0, 0, 0, 0, 0, 0, 0, 0, 0
        DC8 0, 0, 0, 0, 0, 0, 0, 0, 0, 0, 0, 0, 0, 0, 0, 0, 0, 0, 0, 0, 0, 0, 0
        DC8 0, 0, 0, 0, 0, 0, 0, 0, 0, 0, 0, 0, 0, 0, 0, 0, 0, 0, 0, 0, 0, 0, 0
        DC8 0, 0, 0, 0, 0, 0, 0, 0, 0, 0, 0, 0, 0, 0, 0, 0, 0, 0, 0, 0, 0, 0, 0
        DC8 0, 0, 0, 0, 0, 0, 0, 0, 0, 0, 0, 0, 0, 0, 0, 0, 0, 0, 0, 0, 0, 0, 0
        DC8 0, 0, 0, 0, 0, 0, 0, 0, 0, 0, 0, 0, 0, 0, 0, 0, 0, 0, 0, 0, 0, 0, 0
        DC8 0, 0, 0, 0, 0, 0, 0, 0, 0, 0, 0, 0, 0, 0, 0, 0, 0, 0, 0, 0, 0, 0, 0
        DC8 0, 0, 0, 0, 0, 0, 0, 0, 0, 0, 0, 0, 0, 0, 0, 0, 0, 0, 0, 0, 0, 0, 0
        DC8 0, 0, 0, 0, 0, 0, 0, 0, 0, 0, 0, 0, 0, 0, 0, 0, 0, 0, 0, 0, 0, 0, 0
        DC8 0, 0, 0, 0, 0, 0, 0, 0, 0, 0, 0, 0, 0, 0, 0, 0, 0, 0, 0, 0, 0, 0, 0
        DC8 0, 0, 0, 0, 0, 0, 0, 0, 0, 0, 0, 0, 0, 0, 0, 0, 0, 0, 0, 0, 0, 0, 0
        DC8 0, 0, 0, 0, 0, 0, 0, 0, 0, 0, 0, 0, 0, 0, 0, 0, 0, 0, 0, 0, 0, 0, 0
        DC8 0, 0, 0, 0, 0, 0, 0, 0, 0, 0, 0, 0, 0, 0, 0, 0, 0, 0, 0, 0, 0, 0, 0
        DC8 0, 0, 0, 0, 0, 0, 0, 0, 0, 0, 0, 0, 0, 0, 0, 0, 0, 0, 0, 0, 0, 0, 0
        DC8 0, 0, 0, 0, 0, 0, 0, 0, 0, 0, 0, 0, 0, 0, 0, 0, 0, 0, 0, 0, 0, 0, 0
        DC8 0, 0, 0, 0, 0, 0, 0, 0, 0, 0, 0, 0, 0, 0, 0, 0, 0, 0, 0, 0, 0, 0, 0
        DC8 0, 0, 0, 0, 0, 0, 0, 0, 0, 0, 0, 0, 0, 0, 0, 0, 0, 0, 0, 0, 0, 0, 0
        DC8 0, 0, 0, 0, 0, 0, 0, 0, 0, 0, 0, 0, 0, 0, 0, 0, 0, 0, 0, 0, 0, 0, 0
        DC8 0, 0, 0, 0, 0, 0, 0, 0, 0, 0, 0, 0, 0, 0, 0, 0, 0, 0, 0, 0, 0, 0, 0
        DC8 0, 0, 0, 0, 0, 0, 0, 0, 0, 0, 0, 0, 0, 0, 0, 0, 0, 0, 0, 0, 0, 0, 0
        DC8 0, 0, 0, 0, 0, 0, 0, 0, 0, 0, 0, 0, 0, 0, 0, 0, 0, 0, 0, 0, 0, 0, 0
        DC8 0, 0, 0, 0, 0, 0, 0, 0, 0, 0, 0, 0, 0, 0, 0, 0, 0, 0, 0, 0, 0, 0, 0
        DC8 0, 0, 0, 0, 0, 0, 0, 0, 0, 0, 0, 0, 0, 0, 0, 0, 0, 0, 0, 0, 0, 0, 0
        DC8 0, 0, 0, 0, 0, 0, 0, 0, 0, 0, 0, 0, 0, 0, 0, 0, 0, 0, 0, 0, 0, 0, 0
        DC8 0, 0, 0, 0, 0, 0, 0, 0, 0, 0, 0, 0, 0, 0, 0, 0, 0, 0, 0, 0, 0, 0, 0
        DC8 0, 0, 0, 0, 0, 0, 0, 0, 0, 0, 0, 0, 0, 0, 0, 0, 0, 0, 0, 0, 0, 0, 0
        DC8 0, 0, 0, 0, 0, 0, 0, 0, 0, 0, 0, 0, 0, 0, 0, 0, 0, 0, 0, 0, 0, 0, 0
        DC8 0, 0, 0, 0, 0, 0, 0, 0, 0, 0, 0, 0, 0, 0, 0, 0, 0, 0, 0, 0, 0, 0, 0
        DC8 0, 0, 0, 0, 0, 0, 0, 0, 0, 0, 0, 0, 0, 0, 0, 0, 0, 0, 0, 0, 0, 0, 0
        DC8 0, 0, 0, 0, 0, 0, 0, 0, 0, 0, 0, 0, 0, 0, 0, 0, 0, 0, 0, 0, 0, 0, 0
        DC8 0, 0, 0, 0, 0, 0, 0, 0, 0, 0, 0, 0, 0, 0, 0, 0, 0, 0, 0, 0, 0, 0, 0
        DC8 0, 0, 0, 0, 0, 0, 0, 0, 0, 0, 0, 0, 0, 0, 0, 0, 0, 0, 0, 0, 0, 0, 0
        DC8 0, 0, 0, 0, 0, 0, 0, 0, 0, 0, 0, 0, 0, 0, 0, 0, 0, 0, 0, 0, 0, 0, 0
        DC8 0, 0, 0, 0, 0, 0, 0, 0, 0, 0, 0, 0, 0, 0, 0, 0, 0, 0, 0, 0, 0, 0, 0
        DC8 0, 0, 0, 0, 0, 0, 0, 0, 0, 0, 0, 0, 0, 0, 0, 0, 0, 0, 0, 0, 0, 0, 0
        DC8 0, 0, 0, 0, 0, 0, 0, 0, 0, 0, 0, 0, 0, 0, 0, 0, 0, 0, 0, 0, 0, 0, 0
        DC8 0, 0, 0, 0, 0, 0, 0, 0, 0, 0, 0, 0, 0, 0, 0, 0, 0, 0, 0, 0, 0, 0, 0
        DC8 0, 0, 0, 0, 0, 0, 0, 0, 0, 0, 0, 0, 0, 0, 0, 0, 0, 0, 0, 0, 0, 0, 0
        DC8 0, 0, 0, 0, 0, 0, 0, 0, 0, 0, 0, 0, 0, 0, 0, 0, 0, 0, 0, 0, 0, 0, 0
        DC8 0, 0, 0, 0, 0, 0, 0, 0, 0, 0, 0, 0, 0, 0, 0, 0, 0, 0, 0, 0, 0, 0, 0
        DC8 0, 0, 0, 0, 0, 0, 0, 0, 0, 0, 0, 0, 0, 0, 0, 0, 0, 0, 0, 0, 0, 0, 0
        DC8 0, 0, 0, 0, 0, 0, 0, 0, 0, 0, 0, 0, 0, 0, 0, 0, 0, 0, 0, 0, 0, 0, 0
        DC8 0, 0, 0, 0, 0, 0, 0, 0, 0, 0, 0, 0, 0, 0, 0, 0, 0, 0, 0, 0, 0, 0, 0
        DC8 0, 0, 0, 0, 0, 0, 0, 0, 0, 0, 0, 0, 0, 0, 0, 0, 0, 0, 0, 0, 0, 0, 0
        DC8 0, 0, 0, 0, 0, 0, 0, 0, 0, 0, 0, 0, 0, 0, 0, 0, 0, 0, 0, 0, 0, 0, 0
        DC8 0, 0, 0, 0, 0, 0, 0, 0, 0, 0, 0, 0, 0, 0, 0, 0, 0, 0, 0, 0, 0, 0, 0
        DC8 0, 0, 0, 0, 0, 0, 0, 0, 0, 0, 0, 0, 0, 0, 0, 0, 0, 0, 0, 0, 0, 0, 0
        DC8 0, 0, 0, 0, 0, 0, 0, 0, 0, 0, 0, 0, 0, 0, 0, 0, 0, 0, 0, 0, 0, 0, 0
        DC8 0, 0, 0, 0, 0, 0, 0, 0, 0, 0, 0, 0, 0, 0, 0, 0, 0, 0, 0, 0, 0, 0, 0
        DC8 0, 0, 0, 0, 0, 0, 0, 0, 0, 0, 0, 0, 0, 0, 0, 0, 0, 0, 0, 0, 0, 0, 0
        DC8 0, 0, 0, 0, 0, 0, 0, 0, 0, 0, 0, 0, 0, 0, 0, 0, 0, 0, 0, 0, 0, 0, 0
        DC8 0, 0, 0, 0, 0, 0, 0, 0, 0, 0, 0, 0, 0, 0, 0, 0, 0, 0, 0, 0, 0, 0, 0
        DC8 0, 0, 0, 0, 0, 0, 0, 0, 0, 0, 0, 0, 0, 0, 0, 0, 0, 0, 0, 0, 0, 0, 0
        DC8 0, 0, 0, 0, 0, 0, 0, 0, 0, 0, 0, 0, 0, 0, 0, 0, 0, 0, 0, 0, 0, 0, 0
        DC8 0, 0, 0, 0, 0, 0, 0, 0, 0, 0, 0, 0, 0, 0, 0, 0, 0, 0, 0, 0, 0, 0, 0
        DC8 0, 0, 0, 0, 0, 0, 0, 0, 0, 0, 0, 0, 0, 0, 0, 0, 0, 0, 0, 0, 0, 0, 0
        DC8 0, 0, 0, 0, 0, 0, 0, 0, 0, 0, 0, 0, 0, 0, 0, 0, 0, 0, 0, 0, 0, 0, 0
        DC8 0, 0, 0, 0, 0, 0, 0, 0, 0, 0, 0, 0, 0, 0, 0, 0, 0, 0, 0, 0, 0, 0, 0
        DC8 0, 0, 0, 0, 0, 0, 0, 0, 0, 0, 0, 0, 0, 0, 0, 0, 0, 0, 0, 0, 0, 0, 0
        DC8 0, 0, 0, 0, 0, 0, 0, 0, 0, 0, 0, 0, 0, 0, 0, 0, 0, 0, 0, 0, 0, 0, 0
        DC8 0, 0, 0, 0, 0, 0, 0, 0, 0, 0, 0, 0, 0, 0, 0, 0, 0, 0, 0, 0, 0, 0, 0
        DC8 0, 0, 0, 0, 0, 0, 0, 0, 0, 0, 0, 0, 0, 0, 0, 0, 0, 0, 0, 0, 0, 0, 0
        DC8 0, 0, 0, 0, 0, 0, 0, 0, 0, 0, 0, 0, 0, 0, 0, 0, 0, 0, 0, 0, 0, 0, 0
        DC8 0, 0, 0, 0, 0, 0, 0, 0, 0, 0, 0, 0, 0, 0, 0, 0, 0, 0, 0, 0, 0, 0, 0
        DC8 0, 0, 0, 0, 0, 0, 0, 0, 0, 0, 0, 0, 0, 0, 0, 0, 0, 0, 0, 0, 0, 0, 0
        DC8 0, 0, 0, 0, 0, 0, 0, 0, 0, 0, 0, 0, 0, 0, 0, 0, 0, 0, 0, 0, 0, 0, 0
        DC8 0, 0, 0, 0, 0, 0, 0, 0, 0, 0, 0, 0, 0, 0, 0, 0, 0, 0, 0, 0, 0, 0, 0
        DC8 0, 0, 0, 0, 0, 0, 0, 0, 0, 0, 0, 0, 0, 0, 0, 0, 0, 0, 0, 0, 0, 0, 0
        DC8 0, 0, 0, 0, 0, 0, 0, 0, 0, 0, 0, 0, 0, 0, 0, 0, 0, 0, 0, 0, 0, 0, 0
        DC8 0, 0, 0, 0, 0, 0, 0, 0, 0, 0, 0, 0, 0, 0, 0, 0, 0, 0, 0, 0, 0, 0, 0
        DC8 0, 0, 0, 0, 0, 0, 0, 0, 0, 0, 0, 0, 0, 0, 0, 0, 0, 0, 0, 0, 0, 0, 0
        DC8 0, 0, 0, 0, 0, 0, 0, 0, 0, 0, 0, 0, 0, 0, 0, 0, 0, 0, 0, 0, 0, 0, 0
        DC8 0, 0, 0, 0, 0, 0, 0, 0, 0, 0, 0, 0, 0, 0, 0, 0, 0, 0, 0, 0, 0, 0, 0
        DC8 0, 0, 0, 0, 0, 0, 0, 0, 0, 0, 0, 0, 0, 0, 0, 0, 0, 0, 0, 0, 0, 0, 0
        DC8 0, 0, 0, 0, 0, 0, 0, 0, 0, 0, 0, 0, 0, 0, 0, 0, 0, 0, 0, 0, 0, 0, 0
        DC8 0, 0, 0, 0, 0, 0, 0, 0, 0, 0, 0, 0, 0, 0, 0, 0, 0, 0, 0, 0, 0, 0, 0
        DC8 0, 0, 0, 0, 0, 0, 0, 0, 0, 0, 0, 0, 0, 0, 0, 0, 0, 0, 0, 0, 0, 0, 0
        DC8 0, 0, 0, 0, 0, 0, 0, 0, 0, 0, 0, 0, 0, 0, 0, 0, 0, 0, 0, 0, 0, 0, 0
        DC8 0, 0, 0, 0, 0, 0, 0, 0, 0, 0, 0, 0, 0, 0, 0, 0, 0, 0, 0, 0, 0, 0, 0
        DC8 0, 0, 0, 0, 0, 0, 0, 0, 0, 0, 0, 0, 0, 0, 0, 0, 0, 0, 0, 0, 0, 0, 0
        DC8 0, 0, 0, 0, 0, 0, 0, 0, 0, 0, 0, 0, 0, 0, 0, 0, 0, 0, 0, 0, 0, 0, 0
        DC8 0, 0, 0, 0, 0, 0, 0, 0, 0, 0, 0, 0, 0, 0, 0, 0, 0, 0, 0, 0, 0, 0, 0
        DC8 0, 0, 0, 0, 0, 0, 0, 0, 0, 0, 0, 0, 0, 0, 0, 0, 0, 0, 0, 0, 0, 0, 0
        DC8 0, 0, 0, 0, 0, 0, 0, 0, 0, 0, 0, 0, 0, 0, 0, 0, 0, 0, 0, 0, 0, 0, 0
        DC8 0, 0, 0, 0, 0, 0, 0, 0, 0, 0, 0, 0, 0, 0, 0, 0, 0, 0, 0, 0, 0, 0, 0
        DC8 0, 0, 0, 0, 0, 0, 0, 0, 0, 0, 0, 0, 0, 0, 0, 0, 0, 0, 0, 0, 0, 0, 0
        DC8 0, 0, 0, 0, 0, 0, 0, 0, 0, 0, 0, 0, 0, 0, 0, 0, 0, 0, 0, 0, 0, 0, 0
        DC8 0, 0, 0, 0, 0, 0, 0, 0, 0, 0, 0, 0, 0, 0, 0, 0, 0, 0, 0, 0, 0, 0, 0
        DC8 0, 0, 0, 0, 0, 0, 0, 0, 0, 0, 0, 0, 0, 0, 0, 0, 0, 0, 0, 0, 0, 0, 0
        DC8 0, 0, 0, 0, 0, 0, 0, 0, 0, 0, 0, 0, 0, 0, 0, 0, 0, 0, 0, 0, 0, 0, 0
        DC8 0, 0, 0, 0, 0, 0, 0, 0, 0, 0, 0, 0, 0, 0, 0, 0, 0, 0, 0, 0, 0, 0, 0
        DC8 0, 0, 0, 0, 0, 0, 0, 0, 0, 0, 0, 0, 0, 0, 0, 0, 0, 0, 0, 0, 0, 0, 0
        DC8 0, 0, 0, 0, 0, 0, 0, 0, 0, 0, 0, 0, 0, 0, 0, 0, 0, 0, 0, 0, 0, 0, 0
        DC8 0, 0, 0, 0, 0, 0, 0, 0, 0, 0, 0, 0, 0, 0, 0, 0, 0, 0, 0, 0, 0, 0, 0
        DC8 0, 0, 0, 0, 0, 0, 0, 0, 0, 0, 0, 0, 0, 0, 0, 0, 0, 0, 0, 0, 0, 0, 0
        DC8 0, 0, 0, 0, 0, 0, 0, 0, 0, 0, 0, 0, 0, 0, 0, 0, 0, 0, 0, 0, 0, 0, 0
        DC8 0, 0, 0, 0, 0, 0, 0, 0, 0, 0, 0, 0, 0, 0, 0, 0, 0, 0, 0, 0, 0, 0, 0
        DC8 0, 0, 0, 0, 0, 0, 0, 0, 0, 0, 0, 0, 0, 0, 0, 0, 0, 0, 0, 0, 0, 0, 0
        DC8 0, 0, 0, 0, 0, 0, 0, 0, 0, 0, 0, 0, 0, 0, 0, 0, 0, 0, 0, 0, 0, 0, 0
        DC8 0, 0, 0, 0, 0, 0, 0, 0, 0, 0, 0, 0, 0, 0, 0, 0, 0, 0, 0, 0, 0, 0, 0
        DC8 0, 0, 0, 0, 0, 0, 0, 0, 0, 0, 0, 0, 0, 0, 0, 0, 0, 0, 0, 0, 0, 0, 0
        DC8 0, 0, 0, 0, 0, 0, 0, 0, 0, 0, 0, 0, 0, 0, 0, 0, 0, 0, 0, 0, 0, 0, 0
        DC8 0, 0, 0, 0, 0, 0, 0, 0, 0, 0, 0, 0, 0, 0, 0, 0, 0, 0, 0, 0, 0, 0, 0
        DC8 0, 0, 0, 0, 0, 0, 0, 0, 0, 0, 0, 0, 0, 0, 0, 0, 0, 0, 0, 0, 0, 0, 0
        DC8 0, 0, 0, 0, 0, 0, 0, 0, 0, 0, 0, 0, 0, 0, 0, 0, 0, 0, 0, 0, 0, 0, 0
        DC8 0, 0, 0, 0, 0, 0, 0, 0, 0, 0, 0, 0, 0, 0, 0, 0, 0, 0, 0, 0, 0, 0, 0
        DC8 0, 0, 0, 0, 0, 0, 0, 0, 0, 0, 0, 0, 0, 0, 0, 0, 0, 0, 0, 0, 0, 0, 0
        DC8 0, 0, 0, 0, 0, 0, 0, 0, 0, 0, 0, 0, 0, 0, 0, 0, 0, 0, 0, 0, 0, 0, 0
        DC8 0, 0, 0, 0, 0, 0, 0, 0, 0, 0, 0, 0, 0, 0, 0, 0, 0, 0, 0, 0, 0, 0, 0
        DC8 0, 0, 0, 0, 0, 0, 0, 0, 0, 0, 0, 0, 0, 0, 0, 0, 0, 0, 0, 0, 0, 0, 0
        DC8 0, 0, 0, 0, 0, 0, 0, 0, 0, 0, 0, 0, 0, 0, 0, 0, 0, 0, 0, 0, 0, 0, 0
        DC8 0, 0, 0, 0, 0, 0, 0, 0, 0, 0, 0, 0, 0, 0, 0, 0, 0, 0, 0, 0, 0, 0, 0
        DC8 0, 0, 0, 0, 0, 0, 0, 0, 0, 0, 0, 0, 0, 0, 0, 0, 0, 0, 0, 0, 0, 0, 0
        DC8 0, 0, 0, 0, 0, 0, 0, 0, 0, 0, 0, 0, 0, 0, 0, 0, 0, 0, 0, 0, 0, 0, 0
        DC8 0, 0, 0, 0, 0, 0, 0, 0, 0, 0, 0, 0, 0, 0, 0, 0, 0, 0, 0, 0, 0, 0, 0
        DC8 0, 0, 0, 0, 0, 0, 0, 0, 0, 0, 0, 0, 0, 0, 0, 0, 0, 0, 0, 0, 0, 0, 0
        DC8 0, 0, 0, 0, 0, 0, 0, 0, 0, 0, 0, 0, 0, 0, 0, 0, 0, 0, 0, 0, 0, 0, 0
        DC8 0, 0, 0, 0, 0, 0, 0, 0, 0, 0, 0, 0, 0, 0, 0, 0, 0, 0, 0, 0, 0, 0, 0
        DC8 0, 0, 0, 0, 0, 0, 0, 0, 0, 0, 0, 0, 0, 0, 0, 0, 0, 0, 0, 0, 0, 0, 0
        DC8 0, 0, 0, 0, 0, 0, 0, 0, 0, 0, 0, 0, 0, 0, 0, 0, 0, 0, 0, 0, 0, 0, 0
        DC8 0, 0, 0, 0, 0, 0, 0, 0, 0, 0, 0, 0, 0, 0, 0, 0, 0, 0, 0, 0, 0, 0, 0
        DC8 0, 0, 0, 0, 0, 0, 0, 0, 0, 0, 0, 0, 0, 0, 0, 0, 0, 0, 0, 0, 0, 0, 0
        DC8 0, 0, 0, 0, 0, 0, 0, 0, 0, 0, 0, 0, 0, 0, 0, 0, 0, 0, 0, 0, 0, 0, 0
        DC8 0, 0, 0, 0, 0, 0, 0, 0, 0, 0, 0, 0, 0, 0, 0, 0, 0, 0, 0, 0, 0, 0, 0
        DC8 0, 0, 0, 0, 0, 0, 0, 0, 0, 0, 0, 0, 0, 0, 0, 0, 0, 0, 0, 0, 0, 0, 0
        DC8 0, 0, 0, 0, 0, 0, 0, 0, 0, 0, 0, 0, 0, 0, 0, 0, 0, 0, 0, 0, 0, 0, 0
        DC8 0, 0, 0, 0, 0, 0, 0, 0, 0, 0, 0, 0, 0, 0, 0, 0, 0, 0, 0, 0, 0, 0, 0
        DC8 0, 0, 0, 0, 0, 0, 0, 0, 0, 0, 0, 0, 0, 0, 0, 0, 0, 0, 0, 0, 0, 0, 0
        DC8 0, 0, 0, 0, 0, 0, 0, 0, 0, 0, 0, 0, 0, 0, 0, 0, 0, 0, 0, 0, 0, 0, 0
        DC8 0, 0, 0, 0, 0, 0, 0, 0, 0, 0, 0, 0, 0, 0, 0, 0, 0, 0, 0, 0, 0, 0, 0
        DC8 0, 0, 0, 0, 0, 0, 0, 0, 0, 0, 0, 0, 0, 0, 0, 0, 0, 0, 0, 0, 0, 0, 0
        DC8 0, 0, 0, 0, 0, 0, 0, 0, 0, 0, 0, 0, 0, 0, 0, 0, 0, 0, 0, 0, 0, 0, 0
        DC8 0, 0, 0, 0, 0, 0, 0, 0, 0, 0, 0, 0, 0, 0, 0, 0, 0, 0, 0, 0, 0, 0, 0
        DC8 0, 0, 0, 0, 0, 0, 0, 0, 0, 0, 0, 0, 0, 0, 0, 0, 0, 0, 0, 0, 0, 0, 0
        DC8 0, 0, 0, 0, 0, 0, 0, 0, 0, 0, 0, 0, 0, 0, 0, 0, 0, 0, 0, 0, 0, 0, 0
        DC8 0, 0, 0, 0, 0, 0, 0, 0, 0, 0, 0, 0, 0, 0, 0, 0, 0, 0, 0, 0, 0, 0, 0
        DC8 0, 0, 0, 0, 0, 0, 0, 0, 0, 0, 0, 0, 0, 0, 0, 0, 0, 0, 0, 0, 0, 0, 0
        DC8 0, 0, 0, 0, 0, 0, 0, 0, 0, 0, 0, 0, 0, 0, 0, 0, 0, 0, 0, 0, 0, 0, 0
        DC8 0, 0, 0, 0, 0, 0, 0, 0, 0, 0, 0, 0, 0, 0, 0, 0, 0, 0, 0, 0, 0, 0, 0
        DC8 0, 0, 0, 0, 0, 0, 0, 0, 0, 0, 0, 0, 0, 0, 0, 0, 0, 0, 0, 0, 0, 0, 0
        DC8 0, 0, 0, 0, 0, 0, 0, 0, 0, 0, 0, 0, 0, 0, 0, 0, 0, 0, 0, 0, 0, 0, 0
        DC8 0, 0, 0, 0, 0, 0, 0, 0, 0, 0, 0, 0, 0, 0, 0, 0, 0, 0, 0, 0, 0, 0, 0
        DC8 0, 0, 0, 0, 0, 0, 0, 0, 0, 0, 0, 0, 0, 0, 0, 0, 0, 0, 0, 0, 0, 0, 0
        DC8 0, 0, 0, 0, 0, 0, 0, 0, 0, 0, 0, 0, 0, 0, 0, 0, 0, 0, 0, 0, 0, 0, 0
        DC8 0, 0, 0, 0, 0, 0, 0, 0, 0, 0, 0, 0, 0, 0, 0, 0, 0, 0, 0, 0, 0, 0, 0
        DC8 0, 0, 0, 0, 0, 0, 0, 0, 0, 0, 0, 0, 0, 0, 0, 0, 0, 0, 0, 0, 0, 0, 0
        DC8 0, 0, 0, 0, 0, 0, 0, 0, 0, 0, 0, 0, 0, 0, 0, 0, 0, 0, 0, 0, 0, 0, 0
        DC8 0, 0, 0, 0, 0, 0, 0, 0, 0, 0, 0, 0, 0, 0, 0, 0, 0, 0, 0, 0, 0, 0, 0
        DC8 0, 0, 0, 0, 0, 0, 0, 0, 0, 0, 0, 0, 0, 0, 0, 0, 0, 0, 0, 0, 0, 0, 0
        DC8 0, 0, 0, 0, 0, 0, 0, 0, 0, 0, 0, 0, 0, 0, 0, 0, 0, 0, 0, 0, 0, 0, 0
        DC8 0, 0, 0, 0, 0, 0, 0, 0, 0, 0, 0, 0, 0, 0, 0, 0, 0, 0, 0, 0, 0, 0, 0
        DC8 0, 0, 0, 0, 0, 0, 0, 0, 0, 0, 0, 0, 0, 0, 0, 0, 0, 0, 0, 0, 0, 0, 0
        DC8 0, 0, 0, 0, 0, 0, 0, 0, 0, 0, 0, 0, 0, 0, 0, 0, 0, 0, 0, 0, 0, 0, 0
        DC8 0, 0, 0, 0, 0, 0, 0, 0, 0, 0, 0, 0, 0, 0, 0, 0, 0, 0, 0, 0, 0, 0, 0
        DC8 0, 0, 0, 0, 0, 0, 0, 0, 0, 0, 0, 0, 0, 0, 0, 0, 0, 0, 0, 0, 0, 0, 0
        DC8 0, 0, 0, 0, 0, 0, 0, 0, 0, 0, 0, 0, 0, 0, 0, 0, 0, 0, 0, 0, 0, 0, 0
        DC8 0, 0, 0, 0, 0, 0, 0, 0, 0, 0, 0, 0, 0, 0, 0, 0, 0, 0, 0, 0, 0, 0, 0
        DC8 0, 0, 0, 0, 0, 0, 0, 0, 0, 0, 0, 0, 0, 0, 0, 0, 0, 0, 0, 0, 0, 0, 0
        DC8 0, 0, 0, 0, 0, 0, 0, 0, 0, 0, 0, 0, 0, 0, 0, 0, 0, 0, 0, 0, 0, 0, 0
        DC8 0, 0, 0, 0, 0, 0, 0, 0, 0, 0, 0, 0, 0, 0, 0, 0, 0, 0, 0, 0, 0, 0, 0
        DC8 0, 0, 0, 0, 0, 0, 0, 0, 0, 0, 0, 0, 0, 0, 0, 0, 0, 0, 0, 0, 0, 0, 0
        DC8 0, 0, 0, 0, 0, 0, 0, 0, 0, 0, 0, 0, 0, 0, 0, 0, 0, 0, 0, 0, 0, 0, 0
        DC8 0, 0, 0, 0, 0, 0, 0, 0, 0, 0, 0, 0, 0, 0, 0, 0, 0, 0, 0, 0, 0, 0, 0
        DC8 0, 0, 0, 0, 0, 0, 0, 0, 0, 0, 0, 0, 0, 0, 0, 0, 0, 0, 0, 0, 0, 0, 0
        DC8 0, 0, 0, 0, 0, 0, 0, 0, 0, 0, 0, 0, 0, 0, 0, 0, 0, 0, 0, 0, 0, 0, 0
        DC8 0, 0, 0, 0, 0, 0, 0, 0, 0, 0, 0, 0, 0, 0, 0, 0, 0, 0, 0, 0, 0, 0, 0
        DC8 0, 0, 0, 0, 0, 0, 0, 0, 0, 0, 0, 0, 0, 0, 0, 0, 0, 0, 0, 0, 0, 0, 0
        DC8 0, 0, 0, 0, 0, 0, 0, 0, 0, 0, 0, 0, 0, 0, 0, 0, 0, 0, 0, 0, 0, 0, 0
        DC8 0, 0, 0, 0, 0, 0, 0, 0, 0, 0, 0, 0, 0, 0, 0, 0, 0, 0, 0, 0, 0, 0, 0
        DC8 0, 0, 0, 0, 0, 0, 0, 0, 0, 0, 0, 0, 0, 0, 0, 0, 0, 0, 0, 0, 0, 0, 0
        DC8 0, 0, 0, 0, 0, 0, 0, 0, 0, 0, 0, 0, 0, 0, 0, 0, 0, 0, 0, 0, 0, 0, 0
        DC8 0, 0, 0, 0, 0, 0, 0, 0, 0, 0, 0, 0, 0, 0, 0, 0, 0, 0, 0, 0, 0, 0, 0
        DC8 0, 0, 0, 0, 0, 0, 0, 0, 0, 0, 0, 0, 0, 0, 0, 0, 0, 0, 0, 0, 0, 0, 0
        DC8 0, 0, 0, 0, 0, 0, 0, 0, 0, 0, 0, 0, 0, 0, 0, 0, 0, 0, 0, 0, 0, 0, 0
        DC8 0, 0, 0, 0, 0, 0, 0, 0, 0, 0, 0, 0, 0, 0, 0, 0, 0, 0, 0, 0, 0, 0, 0
        DC8 0, 0, 0, 0, 0, 0, 0, 0, 0, 0, 0, 0, 0, 0, 0, 0, 0, 0, 0, 0, 0, 0, 0
        DC8 0, 0, 0, 0, 0, 0, 0, 0, 0, 0, 0, 0, 0, 0, 0, 0, 0, 0, 0, 0, 0, 0, 0
        DC8 0, 0, 0, 0, 0, 0, 0, 0, 0, 0, 0, 0, 0, 0, 0, 0, 0, 0, 0, 0, 0, 0, 0
        DC8 0, 0, 0, 0, 0, 0, 0, 0, 0, 0, 0, 0, 0, 0, 0, 0, 0, 0, 0, 0, 0, 0, 0
        DC8 0, 0, 0, 0, 0, 0, 0, 0, 0, 0, 0, 0, 0, 0, 0, 0, 0, 0, 0, 0, 0, 0, 0
        DC8 0, 0, 0, 0, 0, 0, 0, 0, 0, 0, 0, 0, 0, 0, 0, 0, 0, 0, 0, 0, 0, 0, 0
        DC8 0, 0, 0, 0, 0, 0, 0, 0, 0, 0, 0, 0, 0, 0, 0, 0, 0, 0, 0, 0, 0, 0, 0
        DC8 0, 0, 0, 0, 0, 0, 0, 0, 0, 0, 0, 0, 0, 0, 0, 0, 0, 0, 0, 0, 0, 0, 0
        DC8 0, 0, 0, 0, 0, 0, 0, 0, 0, 0, 0, 0, 0, 0, 0, 0, 0, 0, 0, 0, 0, 0, 0
        DC8 0, 0, 0, 0, 0, 0, 0, 0, 0, 0, 0, 0, 0, 0, 0, 0, 0, 0, 0, 0, 0, 0, 0
        DC8 0, 0, 0, 0, 0, 0, 0, 0, 0, 0, 0, 0, 0, 0, 0, 0, 0, 0, 0, 0, 0, 0, 0
        DC8 0, 0, 0, 0, 0, 0, 0, 0, 0, 0, 0, 0, 0, 0, 0, 0, 0, 0, 0, 0, 0, 0, 0
        DC8 0, 0, 0, 0, 0, 0, 0, 0, 0, 0, 0, 0, 0, 0, 0, 0, 0, 0, 0, 0, 0, 0, 0
        DC8 0, 0, 0, 0, 0, 0, 0, 0, 0, 0, 0, 0, 0, 0, 0, 0, 0, 0, 0, 0, 0, 0, 0
        DC8 0, 0, 0, 0, 0, 0, 0, 0, 0, 0, 0, 0, 0, 0, 0, 0, 0, 0, 0, 0, 0, 0, 0
        DC8 0, 0, 0, 0, 0, 0, 0, 0, 0, 0, 0, 0, 0, 0, 0, 0, 0, 0, 0, 0, 0, 0, 0
        DC8 0, 0, 0, 0, 0, 0, 0, 0, 0, 0, 0, 0, 0, 0, 0, 0, 0, 0, 0, 0, 0, 0, 0
        DC8 0, 0, 0, 0, 0, 0, 0, 0, 0, 0, 0, 0, 0, 0, 0, 0, 0, 0, 0, 0, 0, 0, 0
        DC8 0, 0, 0, 0, 0, 0, 0, 0, 0, 0, 0, 0, 0, 0, 0, 0, 0, 0, 0, 0, 0, 0, 0
        DC8 0, 0, 0, 0, 0, 0, 0, 0, 0, 0, 0, 0, 0, 0, 0, 0, 0, 0, 0, 0, 0, 0, 0
        DC8 0, 0, 0, 0, 0, 0, 0, 0, 0, 0, 0, 0, 0, 0, 0, 0, 0, 0, 0, 0, 0, 0, 0
        DC8 0, 0, 0, 0, 0, 0, 0, 0, 0, 0, 0, 0, 0, 0, 0, 0, 0, 0, 0, 0, 0, 0, 0
        DC8 0, 0, 0, 0, 0, 0, 0, 0, 0, 0, 0, 0, 0, 0, 0, 0, 0, 0, 0, 0, 0, 0, 0
        DC8 0, 0, 0, 0, 0, 0, 0, 0, 0, 0, 0, 0, 0, 0, 0, 0, 0, 0, 0, 0, 0, 0, 0
        DC8 0, 0, 0, 0, 0, 0, 0, 0, 0, 0, 0, 0, 0, 0, 0, 0, 0, 0, 0, 0, 0, 0, 0
        DC8 0, 0, 0, 0, 0, 0, 0, 0, 0, 0, 0, 0, 0, 0, 0, 0, 0, 0, 0, 0, 0, 0, 0
        DC8 0, 0, 0, 0, 0, 0, 0, 0, 0, 0, 0, 0, 0, 0, 0, 0, 0, 0, 0, 0, 0, 0, 0
        DC8 0, 0, 0, 0, 0, 0, 0, 0, 0, 0, 0, 0, 0, 0, 0, 0, 0, 0, 0, 0, 0, 0, 0
        DC8 0, 0, 0, 0, 0, 0, 0, 0, 0, 0, 0, 0, 0, 0, 0, 0, 0, 0, 0, 0, 0, 0, 0
        DC8 0, 0, 0, 0, 0, 0, 0, 0, 0, 0, 0, 0, 0, 0, 0, 0, 0, 0, 0, 0, 0, 0, 0
        DC8 0, 0, 0, 0, 0, 0, 0, 0, 0, 0, 0, 0, 0, 0, 0, 0, 0, 0, 0, 0, 0, 0, 0
        DC8 0, 0, 0, 0, 0, 0, 0, 0, 0, 0, 0, 0, 0, 0, 0, 0, 0, 0, 0, 0, 0, 0, 0
        DC8 0, 0, 0, 0, 0, 0, 0, 0, 0, 0, 0, 0, 0, 0, 0, 0, 0, 0, 0, 0, 0, 0, 0
        DC8 0, 0, 0, 0, 0, 0, 0, 0, 0, 0, 0, 0, 0, 0, 0, 0, 0, 0, 0, 0, 0, 0, 0
        DC8 0, 0, 0, 0, 0, 0, 0, 0, 0, 0, 0, 0, 0, 0, 0, 0, 0, 0, 0, 0, 0, 0, 0
        DC8 0, 0, 0, 0, 0, 0, 0, 0, 0, 0, 0, 0, 0, 0, 0, 0, 0, 0, 0, 0, 0, 0, 0
        DC8 0, 0, 0, 0, 0, 0, 0, 0, 0, 0, 0, 0, 0, 0, 0, 0, 0, 0, 0, 0, 0, 0, 0
        DC8 0, 0, 0, 0, 0, 0, 0, 0, 0, 0, 0, 0, 0, 0, 0, 0, 0, 0, 0, 0, 0, 0, 0
        DC8 0, 0, 0, 0, 0, 0, 0, 0, 0, 0, 0, 0, 0, 0, 0, 0, 0, 0, 0, 0, 0, 0, 0
        DC8 0, 0, 0, 0, 0, 0, 0, 0, 0, 0, 0, 0, 0, 0, 0, 0, 0, 0, 0, 0, 0, 0, 0
        DC8 0, 0, 0, 0, 0, 0, 0, 0, 0, 0, 0, 0, 0, 0, 0, 0, 0, 0, 0, 0, 0, 0, 0
        DC8 0, 0, 0, 0, 0, 0, 0, 0, 0, 0, 0, 0, 0, 0, 0, 0, 0, 0, 0, 0, 0, 0, 0
        DC8 0, 0, 0, 0, 0, 0, 0, 0, 0, 0, 0, 0, 0, 0, 0, 0, 0, 0, 0, 0, 0, 0, 0
        DC8 0, 0, 0, 0, 0, 0, 0, 0, 0, 0, 0, 0, 0, 0, 0, 0, 0, 0, 0, 0, 0, 0, 0
        DC8 0, 0, 0, 0, 0, 0, 0, 0, 0, 0, 0, 0, 0, 0, 0, 0, 0, 0, 0, 0, 0, 0, 0
        DC8 0, 0, 0, 0, 0, 0, 0, 0, 0, 0, 0, 0, 0, 0, 0, 0, 0, 0, 0, 0, 0, 0, 0
        DC8 0, 0, 0, 0, 0, 0, 0, 0, 0, 0, 0, 0, 0, 0, 0, 0, 0, 0, 0, 0, 0, 0, 0
        DC8 0, 0, 0, 0, 0, 0, 0, 0, 0, 0, 0, 0, 0, 0, 0, 0, 0, 0, 0, 0, 0, 0, 0
        DC8 0, 0, 0, 0, 0, 0, 0, 0, 0, 0, 0, 0, 0, 0, 0, 0, 0, 0, 0, 0, 0, 0, 0
        DC8 0, 0, 0, 0, 0, 0, 0, 0, 0, 0, 0, 0, 0, 0, 0, 0, 0, 0, 0, 0, 0, 0, 0
        DC8 0, 0, 0, 0, 0, 0, 0, 0, 0, 0, 0, 0, 0, 0, 0, 0, 0, 0, 0, 0, 0, 0, 0
        DC8 0, 0, 0, 0, 0, 0, 0, 0, 0, 0, 0, 0, 0, 0, 0, 0, 0, 0, 0, 0, 0, 0, 0
        DC8 0, 0, 0, 0, 0, 0, 0, 0, 0, 0, 0, 0, 0, 0, 0, 0, 0, 0, 0, 0, 0, 0, 0
        DC8 0, 0, 0, 0, 0, 0, 0, 0, 0, 0, 0, 0, 0, 0, 0, 0, 0, 0, 0, 0, 0, 0, 0
        DC8 0, 0, 0, 0, 0, 0, 0, 0, 0, 0, 0, 0, 0, 0, 0, 0, 0, 0, 0, 0, 0, 0, 0
        DC8 0, 0, 0, 0, 0, 0, 0, 0, 0, 0, 0, 0, 0, 0, 0, 0, 0, 0, 0, 0, 0, 0, 0
        DC8 0, 0, 0, 0, 0, 0, 0, 0, 0, 0, 0, 0, 0, 0, 0, 0, 0, 0, 0, 0, 0, 0, 0
        DC8 0, 0, 0, 0, 0, 0, 0, 0, 0, 0, 0, 0, 0, 0, 0, 0, 0, 0, 0, 0, 0, 0, 0
        DC8 0, 0, 0, 0, 0, 0, 0, 0, 0, 0, 0, 0, 0, 0, 0, 0, 0, 0, 0, 0, 0, 0, 0
        DC8 0, 0, 0, 0, 0, 0, 0, 0, 0, 0, 0, 0, 0, 0, 0, 0, 0, 0, 0, 0, 0, 0, 0
        DC8 0, 0, 0, 0, 0, 0, 0, 0, 0, 0, 0, 0, 0, 0, 0, 0, 0, 0, 0, 0, 0, 0, 0
        DC8 0, 0, 0, 0, 0, 0, 0, 0, 0, 0, 0, 0, 0, 0, 0, 0, 0, 0, 0, 0, 0, 0, 0
        DC8 0, 0, 0, 0, 0, 0, 0, 0, 0, 0, 0, 0, 0, 0, 0, 0, 0, 0, 0, 0, 0, 0, 0
        DC8 0, 0, 0, 0, 0, 0, 0, 0, 0, 0, 0, 0, 0, 0, 0, 0, 0, 0, 0, 0, 0, 0, 0
        DC8 0, 0, 0, 0, 0, 0, 0, 0, 0, 0, 0, 0, 0, 0, 0, 0, 0, 0, 0, 0, 0, 0, 0
        DC8 0, 0, 0, 0, 0, 0, 0, 0, 0, 0, 0, 0, 0, 0, 0, 0, 0, 0, 0, 0, 0, 0, 0
        DC8 0, 0, 0, 0, 0, 0, 0, 0, 0, 0, 0, 0, 0, 0, 0, 0, 0, 0, 0, 0, 0, 0, 0
        DC8 0, 0, 0, 0, 0, 0, 0, 0, 0, 0, 0, 0, 0, 0, 0, 0, 0, 0, 0, 0, 0, 0, 0
        DC8 0, 0, 0, 0, 0, 0, 0, 0, 0, 0, 0, 0, 0, 0, 0, 0, 0, 0, 0, 0, 0, 0, 0
        DC8 0, 0, 0, 0, 0, 0, 0, 0, 0, 0, 0, 0, 0, 0, 0, 0, 0, 0, 0, 0, 0, 0, 0
        DC8 0, 0, 0, 0, 0, 0, 0, 0, 0, 0, 0, 0, 0, 0, 0, 0, 0, 0, 0, 0, 0, 0, 0
        DC8 0, 0, 0, 0, 0, 0, 0, 0, 0, 0, 0, 0, 0, 0, 0, 0, 0, 0, 0, 0, 0, 0, 0
        DC8 0, 0, 0, 0, 0, 0, 0, 0, 0, 0, 0, 0, 0, 0, 0, 0, 0, 0, 0, 0, 0, 0, 0
        DC8 0, 0, 0, 0, 0, 0, 0, 0, 0, 0, 0, 0, 0, 0, 0, 0, 0, 0, 0, 0, 0, 0, 0
        DC8 0, 0, 0, 0, 0, 0, 0, 0, 0, 0, 0, 0, 0, 0, 0, 0, 0, 0, 0, 0, 0, 0, 0
        DC8 0, 0, 0, 0, 0, 0, 0, 0, 0, 0, 0, 0, 0, 0, 0, 0, 0, 0, 0, 0, 0, 0, 0
        DC8 0, 0, 0, 0, 0, 0, 0, 0, 0, 0, 0, 0, 0, 0, 0, 0, 0, 0, 0, 0, 0, 0, 0
        DC8 0, 0, 0, 0, 0, 0, 0, 0, 0, 0, 0, 0, 0, 0, 0, 0, 0, 0, 0, 0, 0, 0, 0
        DC8 0, 0, 0, 0, 0, 0, 0, 0, 0, 0, 0, 0, 0, 0, 0, 0, 0, 0, 0, 0, 0, 0, 0
        DC8 0, 0, 0, 0, 0, 0, 0, 0, 0, 0, 0, 0, 0, 0, 0, 0, 0, 0, 0, 0, 0, 0, 0
        DC8 0, 0, 0, 0, 0, 0, 0, 0, 0, 0, 0, 0, 0, 0, 0, 0, 0, 0, 0, 0, 0, 0, 0
        DC8 0, 0, 0, 0, 0, 0, 0, 0, 0, 0, 0, 0, 0, 0, 0, 0, 0, 0, 0, 0, 0, 0, 0
        DC8 0, 0, 0, 0, 0, 0, 0, 0, 0, 0, 0, 0, 0, 0, 0, 0, 0, 0, 0, 0, 0, 0, 0
        DC8 0, 0, 0, 0, 0, 0, 0, 0, 0, 0, 0, 0, 0, 0, 0, 0, 0, 0, 0, 0, 0, 0, 0
        DC8 0, 0, 0, 0, 0, 0, 0, 0, 0, 0, 0, 0, 0, 0, 0, 0, 0, 0, 0, 0, 0, 0, 0
        DC8 0, 0, 0, 0, 0, 0, 0, 0, 0, 0, 0, 0, 0, 0, 0, 0, 0, 0, 0, 0, 0, 0, 0
        DC8 0, 0, 0, 0, 0, 0, 0, 0, 0, 0, 0, 0, 0, 0, 0, 0, 0, 0, 0, 0, 0, 0, 0
        DC8 0, 0, 0, 0, 0, 0, 0, 0, 0, 0, 0, 0, 0, 0, 0, 0, 0, 0, 0, 0, 0, 0, 0
        DC8 0, 0, 0, 0, 0, 0, 0, 0, 0, 0, 0, 0, 0, 0, 0, 0, 0, 0, 0, 0, 0, 0, 0
        DC8 0, 0, 0, 0, 0, 0, 0, 0, 0, 0, 0, 0, 0, 0, 0, 0, 0, 0, 0, 0, 0, 0, 0
        DC8 0, 0, 0, 0, 0, 0, 0, 0, 0, 0, 0, 0, 0, 0, 0, 0, 0, 0, 0, 0, 0, 0, 0
        DC8 0, 0, 0, 0, 0, 0, 0, 0, 0, 0, 0, 0, 0, 0, 0, 0, 0, 0, 0, 0, 0, 0, 0
        DC8 0, 0, 0, 0, 0, 0, 0, 0, 0, 0, 0, 0, 0, 0, 0, 0, 0, 0, 0, 0, 0, 0, 0
        DC8 0, 0, 0, 0, 0, 0, 0, 0, 0, 0, 0, 0, 0, 0, 0, 0, 0, 0, 0, 0, 0, 0, 0
        DC8 0, 0, 0, 0, 0, 0, 0, 0, 0, 0, 0, 0, 0, 0, 0, 0, 0, 0, 0, 0, 0, 0, 0
        DC8 0, 0, 0, 0, 0, 0, 0, 0, 0, 0, 0, 0, 0, 0, 0, 0, 0, 0, 0, 0, 0, 0, 0
        DC8 0, 0, 0, 0, 0, 0, 0, 0, 0, 0, 0, 0, 0, 0, 0, 0, 0, 0, 0, 0, 0, 0, 0
        DC8 0, 0, 0, 0, 0, 0, 0, 0, 0, 0, 0, 0, 0, 0, 0, 0, 0, 0, 0, 0, 0, 0, 0
        DC8 0, 0, 0, 0, 0, 0, 0, 0, 0, 0, 0, 0, 0, 0, 0, 0, 0, 0, 0, 0, 0, 0, 0
        DC8 0, 0, 0, 0, 0, 0, 0, 0, 0, 0, 0, 0, 0, 0, 0, 0, 0, 0, 0, 0, 0, 0, 0
        DC8 0, 0, 0, 0, 0, 0, 0, 0, 0, 0, 0, 0, 0, 0, 0, 0, 0, 0, 0, 0, 0, 0, 0
        DC8 0, 0, 0, 0, 0, 0, 0, 0, 0, 0, 0, 0, 0, 0, 0, 0, 0, 0, 0, 0, 0, 0, 0
        DC8 0, 0, 0, 0, 0, 0, 0, 0, 0, 0, 0, 0, 0, 0, 0, 0, 0, 0, 0, 0, 0, 0, 0
        DC8 0, 0, 0, 0, 0, 0, 0, 0, 0, 0, 0, 0, 0, 0, 0, 0, 0, 0, 0, 0, 0, 0, 0
        DC8 0, 0, 0, 0, 0, 0, 0, 0, 0, 0, 0, 0, 0, 0, 0, 0, 0, 0, 0, 0, 0, 0, 0
        DC8 0, 0, 0, 0, 0, 0, 0, 0, 0, 0, 0, 0, 0, 0, 0, 0, 0, 0, 0, 0, 0, 0, 0
        DC8 0, 0, 0, 0, 0, 0, 0, 0, 0, 0, 0, 0, 0, 0, 0, 0, 0, 0, 0, 0, 0, 0, 0
        DC8 0, 0, 0, 0, 0, 0, 0, 0, 0, 0, 0, 0, 0, 0, 0, 0, 0, 0, 0, 0, 0, 0, 0
        DC8 0, 0, 0, 0, 0, 0, 0, 0, 0, 0, 0, 0, 0, 0, 0, 0, 0, 0, 0, 0, 0, 0, 0
        DC8 0, 0, 0, 0, 0, 0, 0, 0, 0, 0, 0, 0, 0, 0, 0, 0, 0, 0, 0, 0, 0, 0, 0
        DC8 0, 0, 0, 0, 0, 0, 0, 0, 0, 0, 0, 0, 0, 0, 0, 0, 0, 0, 0, 0, 0, 0, 0
        DC8 0, 0, 0, 0, 0, 0, 0, 0, 0, 0, 0, 0, 0, 0, 0, 0, 0, 0, 0, 0, 0, 0, 0
        DC8 0, 0, 0, 0, 0, 0, 0, 0, 0, 0, 0, 0, 0, 0, 0, 0, 0, 0, 0, 0, 0, 0, 0
        DC8 0, 0, 0, 0, 0, 0, 0, 0, 0, 0, 0, 0, 0, 0, 0, 0, 0, 0, 0, 0, 0, 0, 0
        DC8 0, 0, 0, 0, 0, 0, 0, 0, 0, 0, 0, 0, 0, 0, 0, 0, 0, 0, 0, 0, 0, 0, 0
        DC8 0, 0, 0, 0, 0, 0, 0, 0, 0, 0, 0, 0, 0, 0, 0, 0, 0, 0, 0, 0, 0, 0, 0
        DC8 0, 0, 0, 0, 0, 0, 0, 0, 0, 0, 0, 0, 0, 0, 0, 0, 0, 0, 0, 0, 0, 0, 0
        DC8 0, 0, 0, 0, 0, 0, 0, 0, 0, 0, 0, 0, 0, 0, 0, 0, 0, 0, 0, 0, 0, 0, 0
        DC8 0, 0, 0, 0, 0, 0, 0, 0, 0, 0, 0, 0, 0, 0, 0, 0, 0, 0, 0, 0, 0, 0, 0
        DC8 0, 0, 0, 0, 0, 0, 0, 0, 0, 0, 0, 0, 0, 0, 0, 0, 0, 0, 0, 0, 0, 0, 0
        DC8 0, 0, 0, 0, 0, 0, 0, 0, 0, 0, 0, 0, 0, 0, 0, 0, 0, 0, 0, 0, 0, 0, 0
        DC8 0, 0, 0, 0, 0, 0, 0, 0, 0, 0, 0, 0, 0, 0, 0, 0, 0, 0, 0, 0, 0, 0, 0
        DC8 0, 0, 0, 0, 0, 0, 0, 0, 0, 0, 0, 0, 0, 0, 0, 0, 0, 0, 0, 0, 0, 0, 0
        DC8 0, 0, 0, 0, 0, 0, 0, 0, 0, 0, 0, 0, 0, 0, 0, 0, 0, 0, 0, 0, 0, 0, 0
        DC8 0, 0, 0, 0, 0, 0, 0, 0, 0, 0, 0, 0, 0, 0, 0, 0, 0, 0, 0, 0, 0, 0, 0
        DC8 0, 0, 0, 0, 0, 0, 0, 0, 0, 0, 0, 0, 0, 0, 0, 0, 0, 0, 0, 0, 0, 0, 0
        DC8 0, 0, 0, 0, 0, 0, 0, 0, 0, 0, 0, 0, 0, 0, 0, 0, 0, 0, 0, 0, 0, 0, 0
        DC8 0, 0, 0, 0, 0, 0, 0, 0, 0, 0, 0, 0, 0, 0, 0, 0, 0, 0, 0, 0, 0, 0, 0
        DC8 0, 0, 0, 0, 0, 0, 0, 0, 0, 0, 0, 0, 0, 0, 0, 0, 0, 0, 0, 0, 0, 0, 0
        DC8 0, 0, 0, 0, 0, 0, 0, 0, 0, 0, 0, 0, 0, 0, 0, 0, 0, 0, 0, 0, 0, 0, 0
        DC8 0, 0, 0, 0, 0, 0, 0, 0, 0, 0, 0, 0, 0, 0, 0, 0, 0, 0, 0, 0, 0, 0, 0
        DC8 0, 0, 0, 0, 0, 0, 0, 0, 0, 0, 0, 0, 0, 0, 0, 0, 0, 0, 0, 0, 0, 0, 0
        DC8 0, 0, 0, 0, 0, 0, 0, 0, 0, 0, 0, 0, 0, 0, 0, 0, 0, 0, 0, 0, 0, 0, 0
        DC8 0, 0, 0, 0, 0, 0, 0, 0, 0, 0, 0, 0, 0, 0, 0, 0, 0, 0, 0, 0, 0, 0, 0
        DC8 0, 0, 0, 0, 0, 0, 0, 0, 0, 0, 0, 0, 0, 0, 0, 0, 0, 0, 0, 0, 0, 0, 0
        DC8 0, 0, 0, 0, 0, 0, 0, 0, 0, 0, 0, 0, 0, 0, 0, 0, 0, 0, 0, 0, 0, 0, 0
        DC8 0, 0, 0, 0, 0, 0, 0, 0, 0, 0, 0, 0, 0, 0, 0, 0, 0, 0, 0, 0, 0, 0, 0
        DC8 0, 0, 0, 0, 0, 0, 0, 0, 0, 0, 0, 0, 0, 0, 0, 0, 0, 0, 0, 0, 0, 0, 0
        DC8 0, 0, 0, 0, 0, 0, 0, 0, 0, 0, 0, 0, 0, 0, 0, 0, 0, 0, 0, 0, 0, 0, 0
        DC8 0, 0, 0, 0, 0, 0, 0, 0, 0, 0, 0, 0, 0, 0, 0, 0, 0, 0, 0, 0, 0, 0, 0
        DC8 0, 0, 0, 0, 0, 0, 0, 0, 0, 0, 0, 0, 0, 0, 0, 0, 0, 0, 0, 0, 0, 0, 0
        DC8 0, 0, 0, 0, 0, 0, 0, 0, 0, 0, 0, 0, 0, 0, 0, 0, 0, 0, 0, 0, 0, 0, 0
        DC8 0, 0, 0, 0, 0, 0, 0, 0, 0, 0, 0, 0, 0, 0, 0, 0, 0, 0, 0, 0, 0, 0, 0
        DC8 0, 0, 0, 0, 0, 0, 0, 0, 0, 0, 0, 0, 0, 0, 0, 0, 0, 0, 0, 0, 0, 0, 0
        DC8 0, 0, 0, 0, 0, 0, 0, 0, 0, 0, 0, 0, 0, 0, 0, 0, 0, 0, 0, 0, 0, 0, 0
        DC8 0, 0, 0, 0, 0, 0, 0, 0, 0, 0, 0, 0, 0, 0, 0, 0, 0, 0, 0, 0, 0, 0, 0
        DC8 0, 0, 0, 0, 0, 0, 0, 0, 0, 0, 0, 0, 0, 0, 0, 0, 0, 0, 0, 0, 0, 0, 0
        DC8 0, 0, 0, 0, 0, 0, 0, 0, 0, 0, 0, 0, 0, 0, 0, 0, 0, 0, 0, 0, 0, 0, 0
        DC8 0, 0, 0, 0, 0, 0, 0, 0, 0, 0, 0, 0, 0, 0, 0, 0, 0, 0, 0, 0, 0, 0, 0
        DC8 0, 0, 0, 0, 0, 0, 0, 0, 0, 0, 0, 0, 0, 0, 0, 0, 0, 0, 0, 0, 0, 0, 0
        DC8 0, 0, 0, 0, 0, 0, 0, 0, 0, 0, 0, 0, 0, 0, 0, 0, 0, 0, 0, 0, 0, 0, 0
        DC8 0, 0, 0, 0, 0, 0, 0, 0, 0, 0, 0, 0, 0, 0, 0, 0, 0, 0, 0, 0, 0, 0, 0
        DC8 0, 0, 0, 0, 0, 0, 0, 0, 0, 0, 0, 0, 0, 0, 0, 0, 0, 0, 0, 0, 0, 0, 0
        DC8 0, 0, 0, 0, 0, 0, 0, 0, 0, 0, 0, 0, 0, 0, 0, 0, 0, 0, 0, 0, 0, 0, 0
        DC8 0, 0, 0, 0, 0, 0, 0, 0, 0, 0, 0, 0, 0, 0, 0, 0, 0, 0, 0, 0, 0, 0, 0
        DC8 0, 0, 0, 0, 0, 0, 0, 0, 0, 0, 0, 0, 0, 0, 0, 0, 0, 0, 0, 0, 0, 0, 0
        DC8 0, 0, 0, 0, 0, 0, 0, 0, 0, 0, 0, 0, 0, 0, 0, 0, 0, 0, 0, 0, 0, 0, 0
        DC8 0, 0, 0, 0, 0, 0, 0, 0, 0, 0, 0, 0, 0, 0, 0, 0, 0, 0, 0, 0, 0, 0, 0
        DC8 0, 0, 0, 0, 0, 0, 0, 0, 0, 0, 0, 0, 0, 0, 0, 0, 0, 0, 0, 0, 0, 0, 0
        DC8 0, 0, 0, 0, 0, 0, 0, 0, 0, 0, 0, 0, 0, 0, 0, 0, 0, 0, 0, 0, 0, 0, 0
        DC8 0, 0, 0, 0, 0, 0, 0, 0, 0, 0, 0, 0, 0, 0, 0, 0, 0, 0, 0, 0, 0, 0, 0
        DC8 0, 0, 0, 0, 0, 0, 0, 0, 0, 0, 0, 0, 0, 0, 0, 0, 0, 0, 0, 0, 0, 0, 0
        DC8 0, 0, 0, 0, 0, 0, 0, 0, 0, 0, 0, 0, 0, 0, 0, 0, 0, 0, 0, 0, 0, 0, 0
        DC8 0, 0, 0, 0, 0, 0, 0, 0, 0, 0, 0, 0, 0, 0, 0, 0, 0, 0, 0, 0, 0, 0, 0
        DC8 0, 0, 0, 0, 0, 0, 0, 0, 0, 0, 0, 0, 0, 0, 0, 0, 0, 0, 0, 0, 0, 0, 0
        DC8 0, 0, 0, 0, 0, 0, 0, 0, 0, 0, 0, 0, 0, 0, 0, 0, 0, 0, 0, 0, 0, 0, 0
        DC8 0, 0, 0, 0, 0, 0, 0, 0, 0, 0, 0, 0, 0, 0, 0, 0, 0, 0, 0, 0, 0, 0, 0
        DC8 0, 0, 0, 0, 0, 0, 0, 0, 0, 0, 0, 0, 0, 0, 0, 0, 0, 0, 0, 0, 0, 0, 0
        DC8 0, 0, 0, 0, 0, 0, 0, 0, 0, 0, 0, 0, 0, 0, 0, 0, 0, 0, 0, 0, 0, 0, 0
        DC8 0, 0, 0, 0, 0, 0, 0, 0, 0, 0, 0, 0, 0, 0, 0, 0, 0, 0, 0, 0, 0, 0, 0
        DC8 0, 0, 0, 0, 0, 0, 0, 0, 0, 0, 0, 0, 0, 0, 0, 0, 0, 0, 0, 0, 0, 0, 0
        DC8 0, 0, 0, 0, 0, 0, 0, 0, 0, 0, 0, 0, 0, 0, 0, 0, 0, 0, 0, 0, 0, 0, 0
        DC8 0, 0, 0, 0, 0, 0, 0, 0, 0, 0, 0, 0, 0, 0, 0, 0, 0, 0, 0, 0, 0, 0, 0
        DC8 0, 0, 0, 0, 0, 0, 0, 0, 0, 0, 0, 0, 0, 0, 0, 0, 0, 0, 0, 0, 0, 0, 0
        DC8 0, 0, 0, 0, 0, 0, 0, 0, 0, 0, 0, 0, 0, 0, 0, 0, 0, 0, 0, 0, 0, 0, 0
        DC8 0, 0, 0, 0, 0, 0, 0, 0, 0, 0, 0, 0, 0, 0, 0, 0, 0, 0, 0, 0, 0, 0, 0
        DC8 0, 0, 0, 0, 0, 0, 0, 0, 0, 0, 0, 0, 0, 0, 0, 0, 0, 0, 0, 0, 0, 0, 0
        DC8 0, 0, 0, 0, 0, 0, 0, 0, 0, 0, 0, 0, 0, 0, 0, 0, 0, 0, 0, 0, 0, 0, 0
        DC8 0, 0, 0, 0, 0, 0, 0, 0, 0, 0, 0, 0, 0, 0, 0, 0, 0, 0, 0, 0, 0, 0, 0
        DC8 0, 0, 0, 0, 0, 0, 0, 0, 0, 0, 0, 0, 0, 0, 0, 0, 0, 0, 0, 0, 0, 0, 0
        DC8 0, 0, 0, 0, 0, 0, 0, 0, 0, 0, 0, 0, 0, 0, 0, 0, 0, 0, 0, 0, 0, 0, 0
        DC8 0, 0, 0, 0, 0, 0, 0, 0, 0, 0, 0, 0, 0, 0, 0, 0, 0, 0, 0, 0, 0, 0, 0
        DC8 0, 0, 0, 0, 0, 0, 0, 0, 0, 0, 0, 0, 0, 0, 0, 0, 0, 0, 0, 0, 0, 0, 0
        DC8 0, 0, 0, 0, 0, 0, 0, 0, 0, 0, 0, 0, 0, 0, 0, 0, 0, 0, 0, 0, 0, 0, 0
        DC8 0, 0, 0, 0, 0, 0, 0, 0, 0, 0, 0, 0, 0, 0, 0, 0, 0, 0, 0, 0, 0, 0, 0
        DC8 0, 0, 0, 0, 0, 0, 0, 0, 0, 0, 0, 0, 0, 0, 0, 0, 0, 0, 0, 0, 0, 0, 0
        DC8 0, 0, 0, 0, 0, 0, 0, 0, 0, 0, 0, 0, 0, 0, 0, 0, 0, 0, 0, 0, 0, 0, 0
        DC8 0, 0, 0, 0, 0, 0, 0, 0, 0, 0, 0, 0, 0, 0, 0, 0, 0, 0, 0, 0, 0, 0, 0
        DC8 0, 0, 0, 0, 0, 0, 0, 0, 0, 0, 0, 0, 0, 0, 0, 0, 0, 0, 0, 0, 0, 0, 0
        DC8 0, 0, 0, 0, 0, 0, 0, 0, 0, 0, 0, 0, 0, 0, 0, 0, 0, 0, 0, 0, 0, 0, 0
        DC8 0, 0, 0, 0, 0, 0, 0, 0, 0, 0, 0, 0, 0, 0, 0, 0, 0, 0, 0, 0, 0, 0, 0
        DC8 0, 0, 0, 0, 0, 0, 0, 0, 0, 0, 0, 0, 0, 0, 0, 0, 0, 0, 0, 0, 0, 0, 0
        DC8 0, 0, 0, 0, 0, 0, 0, 0, 0, 0, 0, 0, 0, 0, 0, 0, 0, 0, 0, 0, 0, 0, 0
        DC8 0, 0, 0, 0, 0, 0, 0, 0, 0, 0, 0, 0, 0, 0, 0, 0, 0, 0, 0, 0, 0, 0, 0
        DC8 0, 0, 0, 0, 0, 0, 0, 0, 0, 0, 0, 0, 0, 0, 0, 0, 0, 0, 0, 0, 0, 0, 0
        DC8 0, 0, 0, 0, 0, 0, 0, 0, 0, 0, 0, 0, 0, 0, 0, 0, 0, 0, 0, 0, 0, 0, 0
        DC8 0, 0, 0, 0, 0, 0, 0, 0, 0, 0, 0, 0, 0, 0, 0, 0, 0, 0, 0, 0, 0, 0, 0
        DC8 0, 0, 0, 0, 0, 0, 0, 0, 0, 0, 0, 0, 0, 0, 0, 0, 0, 0, 0, 0, 0, 0, 0
        DC8 0, 0, 0, 0, 0, 0, 0, 0, 0, 0, 0, 0, 0, 0, 0, 0, 0, 0, 0, 0, 0, 0, 0
        DC8 0, 0, 0, 0, 0, 0, 0, 0, 0, 0, 0, 0, 0, 0, 0, 0, 0, 0, 0, 0, 0, 0, 0
        DC8 0, 0, 0, 0, 0, 0, 0, 0, 0, 0, 0, 0, 0, 0, 0, 0, 0, 0, 0, 0, 0, 0, 0
        DC8 0, 0, 0, 0, 0, 0, 0, 0, 0, 0, 0, 0, 0, 0, 0, 0, 0, 0, 0, 0, 0, 0, 0
        DC8 0, 0, 0, 0, 0, 0, 0, 0, 0, 0, 0, 0, 0, 0, 0, 0, 0, 0, 0, 0, 0, 0, 0
        DC8 0, 0, 0, 0, 0, 0, 0, 0, 0, 0, 0, 0, 0, 0, 0, 0, 0, 0, 0, 0, 0, 0, 0
        DC8 0, 0, 0, 0, 0, 0, 0, 0, 0, 0, 0, 0, 0, 0, 0, 0, 0, 0, 0, 0, 0, 0, 0
        DC8 0, 0, 0, 0, 0, 0, 0, 0, 0, 0, 0, 0, 0, 0, 0, 0, 0, 0, 0, 0, 0, 0, 0
        DC8 0, 0, 0, 0, 0, 0, 0, 0, 0, 0, 0, 0, 0, 0, 0, 0, 0, 0, 0, 0, 0, 0, 0
        DC8 0, 0, 0, 0, 0, 0, 0, 0, 0, 0, 0, 0, 0, 0, 0, 0, 0, 0, 0, 0, 0, 0, 0
        DC8 0, 0, 0, 0, 0, 0, 0, 0, 0, 0, 0, 0, 0, 0, 0, 0, 0, 0, 0, 0, 0, 0, 0
        DC8 0, 0, 0, 0, 0, 0, 0, 0, 0, 0, 0, 0, 0, 0, 0, 0, 0, 0, 0, 0, 0, 0, 0
        DC8 0, 0, 0, 0, 0, 0, 0, 0, 0, 0, 0, 0, 0, 0, 0, 0, 0, 0, 0, 0, 0, 0, 0
        DC8 0, 0, 0, 0, 0, 0, 0, 0, 0, 0, 0, 0, 0, 0, 0, 0, 0, 0, 0, 0, 0, 0, 0
        DC8 0, 0, 0, 0, 0, 0, 0, 0, 0, 0, 0, 0, 0, 0, 0, 0, 0, 0, 0, 0, 0, 0, 0
        DC8 0, 0, 0, 0, 0, 0, 0, 0, 0, 0, 0, 0, 0, 0, 0, 0, 0, 0, 0, 0, 0, 0, 0
        DC8 0, 0, 0, 0, 0, 0, 0, 0, 0, 0, 0, 0, 0, 0, 0, 0, 0, 0, 0, 0, 0, 0, 0
        DC8 0, 0, 0, 0, 0, 0, 0, 0, 0, 0, 0, 0, 0, 0, 0, 0, 0, 0, 0, 0, 0, 0, 0
        DC8 0, 0, 0, 0, 0, 0, 0, 0, 0, 0, 0, 0, 0, 0, 0, 0, 0, 0, 0, 0, 0, 0, 0
        DC8 0, 0, 0, 0, 0, 0, 0, 0, 0, 0, 0, 0, 0, 0, 0, 0, 0, 0, 0, 0, 0, 0, 0
        DC8 0, 0, 0, 0, 0, 0, 0, 0, 0, 0, 0, 0, 0, 0, 0, 0, 0, 0, 0, 0, 0, 0, 0
        DC8 0, 0, 0, 0, 0, 0, 0, 0, 0, 0, 0, 0, 0, 0, 0, 0, 0, 0, 0, 0, 0, 0, 0
        DC8 0, 0, 0, 0, 0, 0, 0, 0, 0, 0, 0, 0, 0, 0, 0, 0, 0, 0, 0, 0, 0, 0, 0
        DC8 0, 0, 0, 0, 0, 0, 0, 0, 0, 0, 0, 0, 0, 0, 0, 0, 0, 0, 0, 0, 0, 0, 0
        DC8 0, 0, 0, 0, 0, 0, 0, 0, 0, 0, 0, 0, 0, 0, 0, 0, 0, 0, 0, 0, 0, 0, 0
        DC8 0, 0, 0, 0, 0, 0, 0, 0, 0, 0, 0, 0, 0, 0, 0, 0, 0, 0, 0, 0, 0, 0, 0
        DC8 0, 0, 0, 0, 0, 0, 0, 0, 0, 0, 0, 0, 0, 0, 0, 0, 0, 0, 0, 0, 0, 0, 0
        DC8 0, 0, 0, 0, 0, 0, 0, 0, 0, 0, 0, 0, 0, 0, 0, 0, 0, 0, 0, 0, 0, 0, 0
        DC8 0, 0, 0, 0, 0, 0, 0, 0, 0, 0, 0, 0, 0, 0, 0, 0, 0, 0, 0, 0, 0, 0, 0
        DC8 0, 0, 0, 0, 0, 0, 0, 0, 0, 0, 0, 0, 0, 0, 0, 0, 0, 0, 0, 0, 0, 0, 0
        DC8 0, 0, 0, 0, 0, 0, 0, 0, 0, 0, 0, 0, 0, 0, 0, 0, 0, 0, 0, 0, 0, 0, 0
        DC8 0, 0, 0, 0, 0, 0, 0, 0, 0, 0, 0, 0, 0, 0, 0, 0, 0, 0, 0, 0, 0, 0, 0
        DC8 0, 0, 0, 0, 0, 0, 0, 0, 0, 0, 0, 0, 0, 0, 0, 0, 0, 0, 0, 0, 0, 0, 0
        DC8 0, 0, 0, 0, 0, 0, 0, 0, 0, 0, 0, 0, 0, 0, 0, 0, 0, 0, 0, 0, 0, 0, 0
        DC8 0, 0, 0, 0, 0, 0, 0, 0, 0, 0, 0, 0, 0, 0, 0, 0, 0, 0, 0, 0, 0, 0, 0
        DC8 0, 0, 0, 0, 0, 0, 0, 0, 0, 0, 0, 0, 0, 0, 0, 0, 0, 0, 0, 0, 0, 0, 0
        DC8 0, 0, 0, 0, 0, 0, 0, 0, 0, 0, 0, 0, 0, 0, 0, 0, 0, 0, 0, 0, 0, 0, 0
        DC8 0, 0, 0, 0, 0, 0, 0, 0, 0, 0, 0, 0, 0, 0, 0, 0, 0, 0, 0, 0, 0, 0, 0
        DC8 0, 0, 0, 0, 0, 0, 0, 0, 0, 0, 0, 0, 0, 0, 0, 0, 0, 0, 0, 0, 0, 0, 0
        DC8 0, 0, 0, 0, 0, 0, 0, 0, 0, 0, 0, 0, 0, 0, 0, 0, 0, 0, 0, 0, 0, 0, 0
        DC8 0, 0, 0, 0, 0, 0, 0, 0, 0, 0, 0, 0, 0, 0, 0, 0, 0, 0, 0, 0, 0, 0, 0
        DC8 0, 0, 0, 0, 0, 0, 0, 0, 0, 0, 0, 0, 0, 0, 0, 0, 0, 0, 0, 0, 0, 0, 0
        DC8 0, 0, 0, 0, 0, 0, 0, 0, 0, 0, 0, 0, 0, 0, 0, 0, 0, 0, 0, 0, 0, 0, 0
        DC8 0, 0, 0, 0, 0, 0, 0, 0, 0, 0, 0, 0, 0, 0, 0, 0, 0, 0, 0, 0, 0, 0, 0
        DC8 0, 0, 0, 0, 0, 0, 0, 0, 0, 0, 0, 0, 0, 0, 0, 0, 0, 0, 0, 0, 0, 0, 0
        DC8 0, 0, 0, 0, 0, 0, 0, 0, 0, 0, 0, 0, 0, 0, 0, 0, 0, 0, 0, 0, 0, 0, 0
        DC8 0, 0, 0, 0, 0, 0, 0, 0, 0, 0, 0, 0, 0, 0, 0, 0, 0, 0, 0, 0, 0, 0, 0
        DC8 0, 0, 0, 0, 0, 0, 0, 0, 0, 0, 0, 0, 0, 0, 0, 0, 0, 0, 0, 0, 0, 0, 0
        DC8 0, 0, 0, 0, 0, 0, 0, 0, 0, 0, 0, 0, 0, 0, 0, 0, 0, 0, 0, 0, 0, 0, 0
        DC8 0, 0, 0, 0, 0, 0, 0, 0, 0, 0, 0, 0, 0, 0, 0, 0, 0, 0, 0, 0, 0, 0, 0
        DC8 0, 0, 0, 0, 0, 0, 0, 0, 0, 0, 0, 0, 0, 0, 0, 0, 0, 0, 0, 0, 0, 0, 0
        DC8 0, 0, 0, 0, 0, 0, 0, 0, 0, 0, 0, 0, 0, 0, 0, 0, 0, 0, 0, 0, 0, 0, 0
        DC8 0, 0, 0, 0, 0, 0, 0, 0, 0, 0, 0, 0, 0, 0, 0, 0, 0, 0, 0, 0, 0, 0, 0
        DC8 0, 0, 0, 0, 0, 0, 0, 0, 0, 0, 0, 0, 0, 0, 0, 0, 0, 0, 0, 0, 0, 0, 0
        DC8 0, 0, 0, 0, 0, 0, 0, 0, 0, 0, 0, 0, 0, 0, 0, 0, 0, 0, 0, 0, 0, 0, 0
        DC8 0, 0, 0, 0, 0, 0, 0, 0, 0, 0, 0, 0, 0, 0, 0, 0, 0, 0, 0, 0, 0, 0, 0
        DC8 0, 0, 0, 0, 0, 0, 0, 0, 0, 0, 0, 0, 0, 0, 0, 0, 0, 0, 0, 0, 0, 0, 0
        DC8 0, 0, 0, 0, 0, 0, 0, 0, 0, 0, 0, 0, 0, 0, 0, 0, 0, 0, 0, 0, 0, 0, 0
        DC8 0, 0, 0, 0, 0, 0, 0, 0, 0, 0, 0, 0, 0, 0, 0, 0, 0, 0, 0, 0, 0, 0, 0
        DC8 0, 0, 0, 0, 0, 0, 0, 0, 0, 0, 0, 0, 0, 0, 0, 0, 0, 0, 0, 0, 0, 0, 0
        DC8 0, 0, 0, 0, 0, 0, 0, 0, 0, 0, 0, 0, 0, 0, 0, 0, 0, 0, 0, 0, 0, 0, 0
        DC8 0, 0, 0, 0, 0, 0, 0, 0, 0, 0, 0, 0, 0, 0, 0, 0, 0, 0, 0, 0, 0, 0, 0
        DC8 0, 0, 0, 0, 0, 0, 0, 0, 0, 0, 0, 0, 0, 0, 0, 0, 0, 0, 0, 0, 0, 0, 0
        DC8 0, 0, 0, 0, 0, 0, 0, 0, 0, 0, 0, 0, 0, 0, 0, 0, 0, 0, 0, 0, 0, 0, 0
        DC8 0, 0, 0, 0, 0, 0, 0, 0, 0, 0, 0, 0, 0, 0, 0, 0, 0, 0, 0, 0, 0, 0, 0
        DC8 0, 0, 0, 0, 0, 0, 0, 0, 0, 0, 0, 0, 0, 0, 0, 0, 0, 0, 0, 0, 0, 0, 0
        DC8 0, 0, 0, 0, 0, 0, 0, 0, 0, 0, 0, 0, 0, 0, 0, 0, 0, 0, 0, 0, 0, 0, 0
        DC8 0, 0, 0, 0, 0, 0, 0, 0, 0, 0, 0, 0, 0, 0, 0, 0, 0, 0, 0, 0, 0, 0, 0
        DC8 0, 0, 0, 0, 0, 0, 0, 0, 0, 0, 0, 0, 0, 0, 0, 0, 0, 0, 0, 0, 0, 0, 0
        DC8 0, 0, 0, 0, 0, 0, 0, 0, 0, 0, 0, 0, 0, 0, 0, 0, 0, 0, 0, 0, 0, 0, 0
        DC8 0, 0, 0, 0, 0, 0, 0, 0, 0, 0, 0, 0, 0, 0, 0, 0, 0, 0, 0, 0, 0, 0, 0
        DC8 0, 0, 0, 0, 0, 0, 0, 0, 0, 0, 0, 0, 0, 0, 0, 0, 0, 0, 0, 0, 0, 0, 0
        DC8 0, 0, 0, 0, 0, 0, 0, 0, 0, 0, 0, 0, 0, 0, 0, 0, 0, 0, 0, 0, 0, 0, 0
        DC8 0, 0, 0, 0, 0, 0, 0, 0, 0, 0, 0, 0, 0, 0, 0, 0, 0, 0, 0, 0, 0, 0, 0
        DC8 0, 0, 0, 0, 0, 0, 0, 0, 0, 0, 0, 0, 0, 0, 0, 0, 0, 0, 0, 0, 0, 0, 0
        DC8 0, 0, 0, 0, 0, 0, 0, 0, 0, 0, 0, 0, 0, 0, 0, 0, 0, 0, 0, 0, 0, 0, 0
        DC8 0, 0, 0, 0, 0, 0, 0, 0, 0, 0, 0, 0, 0, 0, 0, 0, 0, 0, 0, 0, 0, 0, 0
        DC8 0, 0, 0, 0, 0, 0, 0, 0, 0, 0, 0, 0, 0, 0, 0, 0, 0, 0, 0, 0, 0, 0, 0
        DC8 0, 0, 0, 0, 0, 0, 0, 0, 0, 0, 0, 0, 0, 0, 0, 0, 0, 0, 0, 0, 0, 0, 0
        DC8 0, 0, 0, 0, 0, 0, 0, 0, 0, 0, 0, 0, 0, 0, 0, 0, 0, 0, 0, 0, 0, 0, 0
        DC8 0, 0, 0, 0, 0, 0, 0, 0, 0, 0, 0, 0, 0, 0, 0, 0, 0, 0, 0, 0, 0, 0, 0
        DC8 0, 0, 0, 0, 0, 0, 0, 0, 0, 0, 0, 0, 0, 0, 0, 0, 0, 0, 0, 0, 0, 0, 0
        DC8 0, 0, 0, 0, 0, 0, 0, 0, 0, 0, 0, 0, 0, 0, 0, 0, 0, 0, 0, 0, 0, 0, 0
        DC8 0, 0, 0, 0, 0, 0, 0, 0, 0, 0, 0, 0, 0, 0, 0, 0, 0, 0, 0, 0, 0, 0, 0
        DC8 0, 0, 0, 0, 0, 0, 0, 0, 0, 0, 0, 0, 0, 0, 0, 0, 0, 0, 0, 0, 0, 0, 0
        DC8 0, 0, 0, 0, 0, 0, 0, 0, 0, 0, 0, 0, 0, 0, 0, 0, 0, 0, 0, 0, 0, 0, 0
        DC8 0, 0, 0, 0, 0, 0, 0, 0, 0, 0, 0, 0, 0, 0, 0, 0, 0, 0, 0, 0, 0, 0, 0
        DC8 0, 0, 0, 0, 0, 0, 0, 0, 0, 0, 0, 0, 0, 0, 0, 0, 0, 0, 0, 0, 0, 0, 0
        DC8 0, 0, 0, 0, 0, 0, 0, 0, 0, 0, 0, 0, 0, 0, 0, 0, 0, 0, 0, 0, 0, 0, 0
        DC8 0, 0, 0, 0, 0, 0, 0, 0, 0, 0, 0, 0, 0, 0, 0, 0, 0, 0, 0, 0, 0, 0, 0
        DC8 0, 0, 0, 0, 0, 0, 0, 0, 0, 0, 0, 0, 0, 0, 0, 0, 0, 0, 0, 0, 0, 0, 0
        DC8 0, 0, 0, 0, 0, 0, 0, 0, 0, 0, 0, 0, 0, 0, 0, 0, 0, 0, 0, 0, 0, 0, 0
        DC8 0, 0, 0, 0, 0, 0, 0, 0, 0, 0, 0, 0, 0, 0, 0, 0, 0, 0, 0, 0, 0, 0, 0
        DC8 0, 0, 0, 0, 0, 0, 0, 0, 0, 0, 0, 0, 0, 0, 0, 0, 0, 0, 0, 0, 0, 0, 0
        DC8 0, 0, 0, 0, 0, 0, 0, 0, 0, 0, 0, 0, 0, 0, 0, 0, 0, 0, 0, 0, 0, 0, 0
        DC8 0, 0, 0, 0, 0, 0, 0, 0, 0, 0, 0, 0, 0, 0, 0, 0, 0, 0, 0, 0, 0, 0, 0
        DC8 0, 0, 0, 0, 0, 0, 0, 0, 0, 0, 0, 0, 0, 0, 0, 0, 0, 0, 0, 0, 0, 0, 0
        DC8 0, 0, 0, 0, 0, 0, 0, 0, 0, 0, 0, 0, 0, 0, 0, 0, 0, 0, 0, 0, 0, 0, 0
        DC8 0, 0, 0, 0, 0, 0, 0, 0, 0, 0, 0, 0, 0, 0, 0, 0, 0, 0, 0, 0, 0, 0, 0
        DC8 0, 0, 0, 0, 0, 0, 0, 0, 0, 0, 0, 0, 0, 0, 0, 0, 0, 0, 0, 0, 0, 0, 0
        DC8 0, 0, 0, 0, 0, 0, 0, 0, 0, 0, 0, 0, 0, 0, 0, 0, 0, 0, 0, 0, 0, 0, 0
        DC8 0, 0, 0, 0, 0, 0, 0, 0, 0, 0, 0, 0, 0, 0, 0, 0, 0, 0, 0, 0, 0, 0, 0
        DC8 0, 0, 0, 0, 0, 0, 0, 0, 0, 0, 0, 0, 0, 0, 0, 0, 0, 0, 0, 0, 0, 0, 0
        DC8 0, 0, 0, 0, 0, 0, 0, 0, 0, 0, 0, 0, 0, 0, 0, 0, 0, 0, 0, 0, 0, 0, 0
        DC8 0, 0, 0, 0, 0, 0, 0, 0, 0, 0, 0, 0, 0, 0, 0, 0, 0, 0, 0, 0, 0, 0, 0
        DC8 0, 0, 0, 0, 0, 0, 0, 0, 0, 0, 0, 0, 0, 0, 0, 0, 0, 0, 0, 0, 0, 0, 0
        DC8 0, 0, 0, 0, 0, 0, 0, 0, 0, 0, 0, 0, 0, 0, 0, 0, 0, 0, 0, 0, 0, 0, 0
        DC8 0, 0, 0, 0, 0, 0, 0, 0, 0, 0, 0, 0, 0, 0, 0, 0, 0, 0, 0, 0, 0, 0, 0
        DC8 0, 0, 0, 0, 0, 0, 0, 0, 0, 0, 0, 0, 0, 0, 0, 0, 0, 0, 0, 0, 0, 0, 0
        DC8 0, 0, 0, 0, 0, 0, 0, 0, 0, 0, 0, 0, 0, 0, 0, 0, 0, 0, 0, 0, 0, 0, 0
        DC8 0, 0, 0, 0, 0, 0, 0, 0, 0, 0, 0, 0, 0, 0, 0, 0, 0, 0, 0, 0, 0, 0, 0
        DC8 0, 0, 0, 0, 0, 0, 0, 0, 0, 0, 0, 0, 0, 0, 0, 0, 0, 0, 0, 0, 0, 0, 0
        DC8 0, 0, 0, 0, 0, 0, 0, 0, 0, 0, 0, 0, 0, 0, 0, 0, 0, 0, 0, 0, 0, 0, 0
        DC8 0, 0, 0, 0, 0, 0, 0, 0, 0, 0, 0, 0, 0, 0, 0, 0, 0, 0, 0, 0, 0, 0, 0
        DC8 0, 0, 0, 0, 0, 0, 0, 0, 0, 0, 0, 0, 0, 0, 0, 0, 0, 0, 0, 0, 0, 0, 0
        DC8 0, 0, 0, 0, 0, 0, 0, 0, 0, 0, 0, 0, 0, 0, 0, 0, 0, 0, 0, 0, 0, 0, 0
        DC8 0, 0, 0, 0, 0, 0, 0, 0, 0, 0, 0, 0, 0, 0, 0, 0, 0, 0, 0, 0, 0, 0, 0
        DC8 0, 0, 0, 0, 0, 0, 0, 0, 0, 0, 0, 0, 0, 0, 0, 0, 0, 0, 0, 0, 0, 0, 0
        DC8 0, 0, 0, 0, 0, 0, 0, 0, 0, 0, 0, 0, 0, 0, 0, 0, 0, 0, 0, 0, 0, 0, 0
        DC8 0, 0, 0, 0, 0, 0, 0, 0, 0, 0, 0, 0, 0, 0, 0, 0, 0, 0, 0, 0, 0, 0, 0
        DC8 0, 0, 0, 0, 0, 0, 0, 0, 0, 0, 0, 0, 0, 0, 0, 0, 0, 0, 0, 0, 0, 0, 0
        DC8 0, 0, 0, 0, 0, 0, 0, 0, 0, 0, 0, 0, 0, 0, 0, 0, 0, 0, 0, 0, 0, 0, 0
        DC8 0, 0, 0, 0, 0, 0, 0, 0, 0, 0, 0, 0, 0, 0, 0, 0, 0, 0, 0, 0, 0, 0, 0
        DC8 0, 0, 0, 0, 0, 0, 0, 0, 0, 0, 0, 0, 0, 0, 0, 0, 0, 0, 0, 0, 0, 0, 0
        DC8 0, 0, 0, 0, 0, 0, 0, 0, 0, 0, 0, 0, 0, 0, 0, 0, 0, 0, 0, 0, 0, 0, 0
        DC8 0, 0, 0, 0, 0, 0, 0, 0, 0, 0, 0, 0, 0, 0, 0, 0, 0, 0, 0, 0, 0, 0, 0
        DC8 0, 0, 0, 0, 0, 0, 0, 0, 0, 0, 0, 0, 0, 0, 0, 0, 0, 0, 0, 0, 0, 0, 0
        DC8 0, 0, 0, 0, 0, 0, 0, 0, 0, 0, 0, 0, 0, 0, 0, 0, 0, 0, 0, 0, 0, 0, 0
        DC8 0, 0, 0, 0, 0, 0, 0, 0, 0, 0, 0, 0, 0, 0, 0, 0, 0, 0, 0, 0, 0, 0, 0
        DC8 0, 0, 0, 0, 0, 0, 0, 0, 0, 0, 0, 0, 0, 0, 0, 0, 0, 0, 0, 0, 0, 0, 0
        DC8 0, 0, 0, 0, 0, 0, 0, 0, 0, 0, 0, 0, 0, 0, 0, 0, 0, 0, 0, 0, 0, 0, 0
        DC8 0, 0, 0, 0, 0, 0, 0, 0, 0, 0, 0, 0, 0, 0, 0, 0, 0, 0, 0, 0, 0, 0, 0
        DC8 0, 0, 0, 0, 0, 0, 0, 0, 0, 0, 0, 0, 0, 0, 0, 0, 0, 0, 0, 0, 0, 0, 0
        DC8 0, 0, 0, 0, 0, 0, 0, 0, 0, 0, 0, 0, 0, 0, 0, 0, 0, 0, 0, 0, 0, 0, 0
        DC8 0, 0, 0, 0, 0, 0, 0, 0, 0, 0, 0, 0, 0, 0, 0, 0, 0, 0, 0, 0, 0, 0, 0
        DC8 0, 0, 0, 0, 0, 0, 0, 0, 0, 0, 0, 0, 0, 0, 0, 0, 0, 0, 0, 0, 0, 0, 0
        DC8 0, 0, 0, 0, 0, 0, 0, 0, 0, 0, 0, 0, 0, 0, 0, 0, 0, 0, 0, 0, 0, 0, 0
        DC8 0, 0, 0, 0, 0, 0, 0, 0, 0, 0, 0, 0, 0, 0, 0, 0, 0, 0, 0, 0, 0, 0, 0
        DC8 0, 0, 0, 0, 0, 0, 0, 0, 0, 0, 0, 0, 0, 0, 0, 0, 0, 0, 0, 0, 0, 0, 0
        DC8 0, 0, 0, 0, 0, 0, 0, 0, 0, 0, 0, 0, 0, 0, 0, 0, 0, 0, 0, 0, 0, 0, 0
        DC8 0, 0, 0, 0, 0, 0, 0, 0, 0, 0, 0, 0, 0, 0, 0, 0, 0, 0, 0, 0, 0, 0, 0
        DC8 0, 0, 0, 0, 0, 0, 0, 0, 0, 0, 0, 0, 0, 0, 0, 0, 0, 0, 0, 0, 0, 0, 0
        DC8 0, 0, 0, 0, 0, 0, 0, 0, 0, 0, 0, 0, 0, 0, 0, 0, 0, 0, 0, 0, 0, 0, 0
        DC8 0, 0, 0, 0, 0, 0, 0, 0, 0, 0, 0, 0, 0, 0, 0, 0, 0, 0, 0, 0, 0, 0, 0
        DC8 0, 0, 0, 0, 0, 0, 0, 0, 0, 0, 0, 0, 0, 0, 0, 0, 0, 0, 0, 0, 0, 0, 0
        DC8 0, 0, 0, 0, 0, 0, 0, 0, 0, 0, 0, 0, 0, 0, 0, 0, 0, 0, 0, 0, 0, 0, 0
        DC8 0, 0, 0, 0, 0, 0, 0, 0, 0, 0, 0, 0, 0, 0, 0, 0, 0, 0, 0, 0, 0, 0, 0
        DC8 0, 0, 0, 0, 0, 0, 0, 0, 0, 0, 0, 0, 0, 0, 0, 0, 0, 0, 0, 0, 0, 0, 0
        DC8 0, 0, 0, 0, 0, 0, 0, 0, 0, 0, 0, 0, 0, 0, 0, 0, 0, 0, 0, 0, 0, 0, 0
        DC8 0, 0, 0, 0, 0, 0, 0, 0, 0, 0, 0, 0, 0, 0, 0, 0, 0, 0, 0, 0, 0, 0, 0
        DC8 0, 0, 0, 0, 0, 0, 0, 0, 0, 0, 0, 0, 0, 0, 0, 0, 0, 0, 0, 0, 0, 0, 0
        DC8 0, 0, 0, 0, 0, 0, 0, 0, 0, 0, 0, 0, 0, 0, 0, 0, 0, 0, 0, 0, 0, 0, 0
        DC8 0, 0, 0, 0, 0, 0, 0, 0, 0, 0, 0, 0, 0, 0, 0, 0, 0, 0, 0, 0, 0, 0, 0
        DC8 0, 0, 0, 0, 0, 0, 0, 0, 0, 0, 0, 0, 0, 0, 0, 0, 0, 0, 0, 0, 0, 0, 0
        DC8 0, 0, 0, 0, 0, 0, 0, 0, 0, 0, 0, 0, 0, 0, 0, 0, 0, 0, 0, 0, 0, 0, 0
        DC8 0, 0, 0, 0, 0, 0, 0, 0, 0, 0, 0, 0, 0, 0, 0, 0, 0, 0, 0, 0, 0, 0, 0
        DC8 0, 0, 0, 0, 0, 0, 0, 0, 0, 0, 0, 0, 0, 0, 0, 0, 0, 0, 0, 0, 0, 0, 0
        DC8 0, 0, 0, 0, 0, 0, 0, 0, 0, 0, 0, 0, 0, 0, 0, 0, 0, 0, 0, 0, 0, 0, 0
        DC8 0, 0, 0, 0, 0, 0, 0, 0, 0, 0, 0, 0, 0, 0, 0, 0, 0, 0, 0, 0, 0, 0, 0
        DC8 0, 0, 0, 0, 0, 0, 0, 0, 0, 0, 0, 0, 0, 0, 0, 0, 0, 0, 0, 0, 0, 0, 0
        DC8 0, 0, 0, 0, 0, 0, 0, 0, 0, 0, 0, 0, 0, 0, 0, 0, 0, 0, 0, 0, 0, 0, 0
        DC8 0, 0, 0, 0, 0, 0, 0, 0, 0, 0, 0, 0, 0, 0, 0, 0, 0, 0, 0, 0, 0, 0, 0
        DC8 0, 0, 0, 0, 0, 0, 0, 0, 0, 0, 0, 0, 0, 0, 0, 0, 0, 0, 0, 0, 0, 0, 0
        DC8 0, 0, 0, 0, 0, 0, 0, 0, 0, 0, 0, 0, 0, 0, 0, 0, 0, 0, 0, 0, 0, 0, 0
        DC8 0, 0, 0, 0, 0, 0, 0, 0, 0, 0, 0, 0, 0, 0, 0, 0, 0, 0, 0, 0, 0, 0, 0
        DC8 0, 0, 0, 0, 0, 0, 0, 0, 0, 0, 0, 0, 0, 0, 0, 0, 0, 0, 0, 0, 0, 0, 0
        DC8 0, 0, 0, 0, 0, 0, 0, 0, 0, 0, 0, 0, 0, 0, 0, 0, 0, 0, 0, 0, 0, 0, 0
        DC8 0, 0, 0, 0, 0, 0, 0, 0, 0, 0, 0, 0, 0, 0, 0, 0, 0, 0, 0, 0, 0, 0, 0
        DC8 0, 0, 0, 0, 0, 0, 0, 0, 0, 0, 0, 0, 0, 0, 0, 0, 0, 0, 0, 0, 0, 0, 0
        DC8 0, 0, 0, 0, 0, 0, 0, 0, 0, 0, 0, 0, 0, 0, 0, 0, 0, 0, 0, 0, 0, 0, 0
        DC8 0, 0, 0, 0, 0, 0, 0, 0, 0, 0, 0, 0, 0, 0, 0, 0, 0, 0, 0, 0, 0, 0, 0
        DC8 0, 0, 0, 0, 0, 0, 0, 0, 0, 0, 0, 0, 0, 0, 0, 0, 0, 0, 0, 0, 0, 0, 0
        DC8 0, 0, 0, 0, 0, 0, 0, 0, 0, 0, 0, 0, 0, 0, 0, 0, 0, 0, 0, 0, 0, 0, 0
        DC8 0, 0, 0, 0, 0, 0, 0, 0, 0, 0, 0, 0, 0, 0, 0, 0, 0, 0, 0, 0, 0, 0, 0
        DC8 0, 0, 0, 0, 0, 0, 0, 0, 0, 0, 0, 0, 0, 0, 0, 0, 0, 0, 0, 0, 0, 0, 0
        DC8 0, 0, 0, 0, 0, 0, 0, 0, 0, 0, 0, 0, 0, 0, 0, 0, 0, 0, 0, 0, 0, 0, 0
        DC8 0, 0, 0, 0, 0, 0, 0, 0, 0, 0, 0, 0, 0, 0, 0, 0, 0, 0, 0, 0, 0, 0, 0
        DC8 0, 0, 0, 0, 0, 0, 0, 0, 0, 0, 0, 0, 0, 0, 0, 0, 0, 0, 0, 0, 0, 0, 0
        DC8 0, 0, 0, 0, 0, 0, 0, 0, 0, 0, 0, 0, 0, 0, 0, 0, 0, 0, 0, 0, 0, 0, 0
        DC8 0, 0, 0, 0, 0, 0, 0, 0, 0, 0, 0, 0, 0, 0, 0, 0, 0, 0, 0, 0, 0, 0, 0
        DC8 0, 0, 0, 0, 0, 0, 0, 0, 0, 0, 0, 0, 0, 0, 0, 0, 0, 0, 0, 0, 0, 0, 0
        DC8 0, 0, 0, 0, 0, 0, 0, 0, 0, 0, 0, 0, 0, 0, 0, 0, 0, 0, 0, 0, 0, 0, 0
        DC8 0, 0, 0, 0, 0, 0, 0, 0, 0, 0, 0, 0, 0, 0, 0, 0, 0, 0, 0, 0, 0, 0, 0
        DC8 0, 0, 0, 0, 0, 0, 0, 0, 0, 0, 0, 0, 0, 0, 0, 0, 0, 0, 0, 0, 0, 0, 0
        DC8 0, 0, 0, 0, 0, 0, 0, 0, 0, 0, 0, 0, 0, 0, 0, 0, 0, 0, 0, 0, 0, 0, 0
        DC8 0, 0, 0, 0, 0, 0, 0, 0, 0, 0, 0, 0, 0, 0, 0, 0, 0, 0, 0, 0, 0, 0, 0
        DC8 0, 0, 0, 0, 0, 0, 0, 0, 0, 0, 0, 0, 0, 0, 0, 0, 0, 0, 0, 0, 0, 0, 0
        DC8 0, 0, 0, 0, 0, 0, 0, 0, 0, 0, 0, 0, 0, 0, 0, 0, 0, 0, 0, 0, 0, 0, 0
        DC8 0, 0, 0, 0, 0, 0, 0, 0, 0, 0, 0, 0, 0, 0, 0, 0, 0, 0, 0, 0, 0, 0, 0
        DC8 0, 0, 0, 0, 0, 0, 0, 0, 0, 0, 0, 0, 0, 0, 0, 0, 0, 0, 0, 0, 0, 0, 0
        DC8 0, 0, 0, 0, 0, 0, 0, 0, 0, 0, 0, 0, 0, 0, 0, 0, 0, 0, 0, 0, 0, 0, 0
        DC8 0, 0, 0, 0, 0, 0, 0, 0, 0, 0, 0, 0, 0, 0, 0, 0, 0, 0, 0, 0, 0, 0, 0
        DC8 0, 0, 0, 0, 0, 0, 0, 0, 0, 0, 0, 0, 0, 0, 0, 0, 0, 0, 0, 0, 0, 0, 0
        DC8 0, 0, 0, 0, 0, 0, 0, 0, 0, 0, 0, 0, 0, 0, 0, 0, 0, 0, 0, 0, 0, 0, 0
        DC8 0, 0, 0, 0, 0, 0, 0, 0, 0, 0, 0, 0, 0, 0, 0, 0, 0, 0, 0, 0, 0, 0, 0
        DC8 0, 0, 0, 0, 0, 0, 0, 0, 0, 0, 0, 0, 0, 0, 0, 0, 0, 0, 0, 0, 0, 0, 0
        DC8 0, 0, 0, 0, 0, 0, 0, 0, 0, 0, 0, 0, 0, 0, 0, 0, 0, 0, 0, 0, 0, 0, 0
        DC8 0, 0, 0, 0, 0, 0, 0, 0, 0, 0, 0, 0, 0, 0, 0, 0, 0, 0, 0, 0, 0, 0, 0
        DC8 0, 0, 0, 0, 0, 0, 0, 0, 0, 0, 0, 0, 0, 0, 0, 0, 0, 0, 0, 0, 0, 0, 0
        DC8 0, 0, 0, 0, 0, 0, 0, 0, 0, 0, 0, 0, 0, 0, 0, 0, 0, 0, 0, 0, 0, 0, 0
        DC8 0, 0, 0, 0, 0, 0, 0, 0, 0, 0, 0, 0, 0, 0, 0, 0, 0, 0, 0, 0, 0, 0, 0
        DC8 0, 0, 0, 0, 0, 0, 0, 0, 0, 0, 0, 0, 0, 0, 0, 0, 0, 0, 0, 0, 0, 0, 0
        DC8 0, 0, 0, 0, 0, 0, 0, 0, 0, 0, 0, 0, 0, 0, 0, 0, 0, 0, 0, 0, 0, 0, 0
        DC8 0, 0, 0, 0, 0, 0, 0, 0, 0, 0, 0, 0, 0, 0, 0, 0, 0, 0, 0, 0, 0, 0, 0
        DC8 0, 0, 0, 0, 0, 0, 0, 0, 0, 0, 0, 0, 0, 0, 0, 0, 0, 0, 0, 0, 0, 0, 0
        DC8 0, 0, 0, 0, 0, 0, 0, 0, 0, 0, 0, 0, 0, 0, 0, 0, 0, 0, 0, 0, 0, 0, 0
        DC8 0, 0, 0, 0, 0, 0, 0, 0, 0, 0, 0, 0, 0, 0, 0, 0, 0, 0, 0, 0, 0, 0, 0
        DC8 0, 0, 0, 0, 0, 0, 0, 0, 0, 0, 0, 0, 0, 0, 0, 0, 0, 0, 0, 0, 0, 0, 0
        DC8 0, 0, 0, 0, 0, 0, 0, 0, 0, 0, 0, 0, 0, 0, 0, 0, 0, 0, 0, 0, 0, 0, 0
        DC8 0, 0, 0, 0, 0, 0, 0, 0, 0, 0, 0, 0, 0, 0, 0, 0, 0, 0, 0, 0, 0, 0, 0
        DC8 0, 0, 0, 0, 0, 0, 0, 0, 0, 0, 0, 0, 0, 0, 0, 0, 0, 0, 0, 0, 0, 0, 0
        DC8 0, 0, 0, 0, 0, 0, 0, 0, 0, 0, 0, 0, 0, 0, 0, 0, 0, 0, 0, 0, 0, 0, 0
        DC8 0, 0, 0, 0, 0, 0, 0, 0, 0, 0, 0, 0, 0, 0, 0, 0, 0, 0, 0, 0, 0, 0, 0
        DC8 0, 0, 0, 0, 0, 0, 0, 0, 0, 0, 0, 0, 0, 0, 0, 0, 0, 0, 0, 0, 0, 0, 0
        DC8 0, 0, 0, 0, 0, 0, 0, 0, 0, 0, 0, 0, 0, 0, 0, 0, 0, 0, 0, 0, 0, 0, 0
        DC8 0, 0, 0, 0, 0, 0, 0, 0, 0, 0, 0, 0, 0, 0, 0, 0, 0, 0, 0, 0, 0, 0, 0
        DC8 0, 0, 0, 0, 0, 0, 0, 0, 0, 0, 0, 0, 0, 0, 0, 0, 0, 0, 0, 0, 0, 0, 0
        DC8 0, 0, 0, 0, 0, 0, 0, 0, 0, 0, 0, 0, 0, 0, 0, 0, 0, 0, 0, 0, 0, 0, 0
        DC8 0, 0, 0, 0, 0, 0, 0, 0, 0, 0, 0, 0, 0, 0, 0, 0, 0, 0, 0, 0, 0, 0, 0
        DC8 0, 0, 0, 0, 0, 0, 0, 0, 0, 0, 0, 0, 0, 0, 0, 0, 0, 0, 0, 0, 0, 0, 0
        DC8 0, 0, 0, 0, 0, 0, 0, 0, 0, 0, 0, 0, 0, 0, 0, 0, 0, 0, 0, 0, 0, 0, 0
        DC8 0, 0, 0, 0, 0, 0, 0, 0, 0, 0, 0, 0, 0, 0, 0, 0, 0, 0, 0, 0, 0, 0, 0
        DC8 0, 0, 0, 0, 0, 0, 0, 0, 0, 0, 0, 0, 0, 0, 0, 0, 0, 0, 0, 0, 0, 0, 0
        DC8 0, 0, 0, 0, 0, 0, 0, 0, 0, 0, 0, 0, 0, 0, 0, 0, 0, 0, 0, 0, 0, 0, 0
        DC8 0, 0, 0, 0, 0, 0, 0, 0, 0, 0, 0, 0, 0, 0, 0, 0, 0, 0, 0, 0, 0, 0, 0
        DC8 0, 0, 0, 0, 0, 0, 0, 0, 0, 0, 0, 0, 0, 0, 0, 0, 0, 0, 0, 0, 0, 0, 0
        DC8 0, 0, 0, 0, 0, 0, 0, 0, 0, 0, 0, 0, 0, 0, 0, 0, 0, 0, 0, 0, 0, 0, 0
        DC8 0, 0, 0, 0, 0, 0, 0, 0, 0, 0, 0, 0, 0, 0, 0, 0, 0, 0, 0, 0, 0, 0, 0
        DC8 0, 0, 0, 0, 0, 0, 0, 0, 0, 0, 0, 0, 0, 0, 0, 0, 0, 0, 0, 0, 0, 0, 0
        DC8 0, 0, 0, 0, 0, 0, 0, 0, 0, 0, 0, 0, 0, 0, 0, 0, 0, 0, 0, 0, 0, 0, 0
        DC8 0, 0, 0, 0, 0, 0, 0, 0, 0, 0, 0, 0, 0, 0, 0, 0, 0, 0, 0, 0, 0, 0, 0
        DC8 0, 0, 0, 0, 0, 0, 0, 0, 0, 0, 0, 0, 0, 0, 0, 0, 0, 0, 0, 0, 0, 0, 0
        DC8 0, 0, 0, 0, 0, 0, 0, 0, 0, 0, 0, 0, 0, 0, 0, 0, 0, 0, 0, 0, 0, 0, 0
        DC8 0, 0, 0, 0, 0, 0, 0, 0, 0, 0, 0, 0, 0, 0, 0, 0, 0, 0, 0, 0, 0, 0, 0
        DC8 0, 0, 0, 0, 0, 0, 0, 0, 0, 0, 0, 0, 0, 0, 0, 0, 0, 0, 0, 0, 0, 0, 0
        DC8 0, 0, 0, 0, 0, 0, 0, 0, 0, 0, 0, 0, 0, 0, 0, 0, 0, 0, 0, 0, 0, 0, 0
        DC8 0, 0, 0, 0, 0, 0, 0, 0, 0, 0, 0, 0, 0, 0, 0, 0, 0, 0, 0, 0, 0, 0, 0
        DC8 0, 0, 0, 0, 0, 0, 0, 0, 0, 0, 0, 0, 0, 0, 0, 0, 0, 0, 0, 0, 0, 0, 0
        DC8 0, 0, 0, 0, 0, 0, 0, 0, 0, 0, 0, 0, 0, 0, 0, 0, 0, 0, 0, 0, 0, 0, 0
        DC8 0, 0, 0, 0, 0, 0, 0, 0, 0, 0, 0, 0, 0, 0, 0, 0, 0, 0, 0, 0, 0, 0, 0
        DC8 0, 0, 0, 0, 0, 0, 0, 0, 0, 0, 0, 0, 0, 0, 0, 0, 0, 0, 0, 0, 0, 0, 0
        DC8 0, 0, 0, 0, 0, 0, 0, 0, 0, 0, 0, 0, 0, 0, 0, 0, 0, 0, 0, 0, 0, 0, 0
        DC8 0, 0, 0, 0, 0, 0, 0, 0, 0, 0, 0, 0, 0, 0, 0, 0, 0, 0, 0, 0, 0, 0, 0
        DC8 0, 0, 0, 0, 0, 0, 0, 0, 0, 0, 0, 0, 0, 0, 0, 0, 0, 0, 0, 0, 0, 0, 0
        DC8 0, 0, 0, 0, 0, 0, 0, 0, 0, 0, 0, 0, 0, 0, 0, 0, 0, 0, 0, 0, 0, 0, 0
        DC8 0, 0, 0, 0, 0, 0, 0, 0, 0, 0, 0, 0, 0, 0, 0, 0, 0, 0, 0, 0, 0, 0, 0
        DC8 0, 0, 0, 0, 0, 0, 0, 0, 0, 0, 0, 0, 0, 0, 0, 0, 0, 0, 0, 0, 0, 0, 0
        DC8 0, 0, 0, 0, 0, 0, 0, 0, 0, 0, 0, 0, 0, 0, 0, 0, 0, 0, 0, 0, 0, 0, 0
        DC8 0, 0, 0, 0, 0, 0, 0, 0, 0, 0, 0, 0, 0, 0, 0, 0, 0, 0, 0, 0, 0, 0, 0
        DC8 0, 0, 0, 0, 0, 0, 0, 0, 0, 0, 0, 0, 0, 0, 0, 0, 0, 0, 0, 0, 0, 0, 0
        DC8 0, 0, 0, 0, 0, 0, 0, 0, 0, 0, 0, 0, 0, 0, 0, 0, 0, 0, 0, 0, 0, 0, 0
        DC8 0, 0, 0, 0, 0, 0, 0, 0, 0, 0, 0, 0, 0, 0, 0, 0, 0, 0, 0, 0, 0, 0, 0
        DC8 0, 0, 0, 0, 0, 0, 0, 0, 0, 0, 0, 0, 0, 0, 0, 0, 0, 0, 0, 0, 0, 0, 0
        DC8 0, 0, 0, 0, 0, 0, 0, 0, 0, 0, 0, 0, 0, 0, 0, 0, 0, 0, 0, 0, 0, 0, 0
        DC8 0, 0, 0, 0, 0, 0, 0, 0, 0, 0, 0, 0, 0, 0, 0, 0, 0, 0, 0, 0, 0, 0, 0
        DC8 0, 0, 0, 0, 0, 0, 0, 0, 0, 0, 0, 0, 0, 0, 0, 0, 0, 0, 0, 0, 0, 0, 0
        DC8 0, 0, 0, 0, 0, 0, 0, 0, 0, 0, 0, 0, 0, 0, 0, 0, 0, 0, 0, 0, 0, 0, 0
        DC8 0, 0, 0, 0, 0, 0, 0, 0, 0, 0, 0, 0, 0, 0, 0, 0, 0, 0, 0, 0, 0, 0, 0
        DC8 0, 0, 0, 0, 0, 0, 0, 0, 0, 0, 0, 0, 0, 0, 0, 0, 0, 0, 0, 0, 0, 0, 0
        DC8 0, 0, 0, 0, 0, 0, 0, 0, 0, 0, 0, 0, 0, 0, 0, 0, 0, 0, 0, 0, 0, 0, 0
        DC8 0, 0, 0, 0, 0, 0, 0, 0, 0, 0, 0, 0, 0, 0, 0, 0, 0, 0, 0, 0, 0, 0, 0
        DC8 0, 0, 0, 0, 0, 0, 0, 0, 0, 0, 0, 0, 0, 0, 0, 0, 0, 0, 0, 0, 0, 0, 0
        DC8 0, 0, 0, 0, 0, 0, 0, 0, 0, 0, 0, 0, 0, 0, 0, 0, 0, 0, 0, 0, 0, 0, 0
        DC8 0, 0, 0, 0, 0, 0, 0, 0, 0, 0, 0, 0, 0, 0, 0, 0, 0, 0, 0, 0, 0, 0, 0
        DC8 0, 0, 0, 0, 0, 0, 0, 0, 0, 0, 0, 0, 0, 0, 0, 0, 0, 0, 0, 0, 0, 0, 0
        DC8 0, 0, 0, 0, 0, 0, 0, 0, 0, 0, 0, 0, 0, 0, 0, 0, 0, 0, 0, 0, 0, 0, 0
        DC8 0, 0, 0, 0, 0, 0, 0, 0, 0, 0, 0, 0, 0, 0, 0, 0, 0, 0, 0, 0, 0, 0, 0
        DC8 0, 0, 0, 0, 0, 0, 0, 0, 0, 0, 0, 0, 0, 0, 0, 0, 0, 0, 0, 0, 0, 0, 0
        DC8 0, 0, 0, 0, 0, 0, 0, 0, 0, 0, 0, 0, 0, 0, 0, 0, 0, 0, 0, 0, 0, 0, 0
        DC8 0, 0, 0, 0, 0, 0, 0, 0, 0, 0, 0, 0, 0, 0, 0, 0, 0, 0, 0, 0, 0, 0, 0
        DC8 0, 0, 0, 0, 0, 0, 0, 0, 0, 0, 0, 0, 0, 0, 0, 0, 0, 0, 0, 0, 0, 0, 0
        DC8 0, 0, 0, 0, 0, 0, 0, 0, 0, 0, 0, 0, 0, 0, 0, 0, 0, 0, 0, 0, 0, 0, 0
        DC8 0, 0, 0, 0, 0, 0, 0, 0, 0, 0, 0, 0, 0, 0, 0, 0, 0, 0, 0, 0, 0, 0, 0
        DC8 0, 0, 0, 0, 0, 0, 0, 0, 0, 0, 0, 0, 0, 0, 0, 0, 0, 0, 0, 0, 0, 0, 0
        DC8 0, 0, 0, 0, 0, 0, 0, 0, 0, 0, 0, 0, 0, 0, 0, 0, 0, 0, 0, 0, 0, 0, 0
        DC8 0, 0, 0, 0, 0, 0, 0, 0, 0, 0, 0, 0, 0, 0, 0, 0, 0, 0, 0, 0, 0, 0, 0
        DC8 0, 0, 0, 0, 0, 0, 0, 0, 0, 0, 0, 0, 0, 0, 0, 0, 0, 0, 0, 0, 0, 0, 0
        DC8 0, 0, 0, 0, 0, 0, 0, 0, 0, 0, 0, 0, 0, 0, 0, 0, 0, 0, 0, 0, 0, 0, 0
        DC8 0, 0, 0, 0, 0, 0, 0, 0, 0, 0, 0, 0, 0, 0, 0, 0, 0, 0, 0, 0, 0, 0, 0
        DC8 0, 0, 0, 0, 0, 0, 0, 0, 0, 0, 0, 0, 0, 0, 0, 0, 0, 0, 0, 0, 0, 0, 0
        DC8 0, 0, 0, 0, 0, 0, 0, 0, 0, 0, 0, 0, 0, 0, 0, 0, 0, 0, 0, 0, 0, 0, 0
        DC8 0, 0, 0, 0, 0, 0, 0, 0, 0, 0, 0, 0, 0, 0, 0, 0, 0, 0, 0, 0, 0, 0, 0
        DC8 0, 0, 0, 0, 0, 0, 0, 0, 0, 0, 0, 0, 0, 0, 0, 0, 0, 0, 0, 0, 0, 0, 0
        DC8 0, 0, 0, 0, 0, 0, 0, 0, 0, 0, 0, 0, 0, 0, 0, 0, 0, 0, 0, 0, 0, 0, 0
        DC8 0, 0, 0, 0, 0, 0, 0, 0, 0, 0, 0, 0, 0, 0, 0, 0, 0, 0, 0, 0, 0, 0, 0
        DC8 0, 0, 0, 0, 0, 0, 0, 0, 0, 0, 0, 0, 0, 0, 0, 0, 0, 0, 0, 0, 0, 0, 0
        DC8 0, 0, 0, 0, 0, 0, 0, 0, 0, 0, 0, 0, 0, 0, 0, 0, 0, 0, 0, 0, 0, 0, 0
        DC8 0, 0, 0, 0, 0, 0, 0, 0, 0, 0, 0, 0, 0, 0, 0, 0, 0, 0, 0, 0, 0, 0, 0
        DC8 0, 0, 0, 0, 0, 0, 0, 0, 0, 0, 0, 0, 0, 0, 0, 0, 0, 0, 0, 0, 0, 0, 0
        DC8 0, 0, 0, 0, 0, 0, 0, 0, 0, 0, 0, 0, 0, 0, 0, 0, 0, 0, 0, 0, 0, 0, 0
        DC8 0, 0, 0, 0, 0, 0, 0, 0, 0, 0, 0, 0, 0, 0, 0, 0, 0, 0, 0, 0, 0, 0, 0
        DC8 0, 0, 0, 0, 0, 0, 0, 0, 0, 0, 0, 0, 0, 0, 0, 0, 0, 0, 0, 0, 0, 0, 0
        DC8 0, 0, 0, 0, 0, 0, 0, 0, 0, 0, 0, 0, 0, 0, 0, 0, 0, 0, 0, 0, 0, 0, 0
        DC8 0, 0, 0, 0, 0, 0, 0, 0, 0, 0, 0, 0, 0, 0, 0, 0, 0, 0, 0, 0, 0, 0, 0
        DC8 0, 0, 0, 0, 0, 0, 0, 0, 0, 0, 0, 0, 0, 0, 0, 0, 0, 0, 0, 0, 0, 0, 0
        DC8 0, 0, 0, 0, 0, 0, 0, 0, 0, 0, 0, 0, 0, 0, 0, 0, 0, 0, 0, 0, 0, 0, 0
        DC8 0, 0, 0, 0, 0, 0, 0, 0, 0, 0, 0, 0, 0, 0, 0, 0, 0, 0, 0, 0, 0, 0, 0
        DC8 0, 0, 0, 0, 0, 0, 0, 0, 0, 0, 0, 0, 0, 0, 0, 0, 0, 0, 0, 0, 0, 0, 0
        DC8 0, 0, 0, 0, 0, 0, 0, 0, 0, 0, 0, 0, 0, 0, 0, 0, 0, 0, 0, 0, 0, 0, 0
        DC8 0, 0, 0, 0, 0, 0, 0, 0, 0, 0, 0, 0, 0, 0, 0, 0, 0, 0, 0, 0, 0, 0, 0
        DC8 0, 0, 0, 0, 0, 0, 0, 0, 0, 0, 0, 0, 0, 0, 0, 0, 0, 0, 0, 0, 0, 0, 0
        DC8 0, 0, 0, 0, 0, 0, 0, 0, 0, 0, 0, 0, 0, 0, 0, 0, 0, 0, 0, 0, 0, 0, 0
        DC8 0, 0, 0, 0, 0, 0, 0, 0, 0, 0, 0, 0, 0, 0, 0, 0, 0, 0, 0, 0, 0, 0, 0
        DC8 0, 0, 0, 0, 0, 0, 0, 0, 0, 0, 0, 0, 0, 0, 0, 0, 0, 0, 0, 0, 0, 0, 0
        DC8 0, 0, 0, 0, 0, 0, 0, 0, 0, 0, 0, 0, 0, 0, 0, 0, 0, 0, 0, 0, 0, 0, 0
        DC8 0, 0, 0, 0, 0, 0, 0, 0, 0, 0, 0, 0, 0, 0, 0, 0, 0, 0, 0, 0, 0, 0, 0
        DC8 0, 0, 0, 0, 0, 0, 0, 0, 0, 0, 0, 0, 0, 0, 0, 0, 0, 0, 0, 0, 0, 0, 0
        DC8 0, 0, 0, 0, 0, 0, 0, 0, 0, 0, 0, 0, 0, 0, 0, 0, 0, 0, 0, 0, 0, 0, 0
        DC8 0, 0, 0, 0, 0, 0, 0, 0, 0, 0, 0, 0, 0, 0, 0, 0, 0, 0, 0, 0, 0, 0, 0
        DC8 0, 0, 0, 0, 0, 0, 0, 0, 0, 0, 0, 0, 0, 0, 0, 0, 0, 0, 0, 0, 0, 0, 0
        DC8 0, 0, 0, 0, 0, 0, 0, 0, 0, 0, 0, 0, 0, 0, 0, 0, 0, 0, 0, 0, 0, 0, 0
        DC8 0, 0, 0, 0, 0, 0, 0, 0, 0, 0, 0, 0, 0, 0, 0, 0, 0, 0, 0, 0, 0, 0, 0
        DC8 0, 0, 0, 0, 0, 0, 0, 0, 0, 0, 0, 0, 0, 0, 0, 0, 0, 0, 0, 0, 0, 0, 0
        DC8 0, 0, 0, 0, 0, 0, 0, 0, 0, 0, 0, 0, 0, 0, 0, 0, 0, 0, 0, 0, 0, 0, 0
        DC8 0, 0, 0, 0, 0, 0, 0, 0, 0, 0, 0, 0, 0, 0, 0, 0, 0, 0, 0, 0, 0, 0, 0
        DC8 0, 0, 0, 0, 0, 0, 0, 0, 0, 0, 0, 0, 0, 0, 0, 0, 0, 0, 0, 0, 0, 0, 0
        DC8 0, 0, 0, 0, 0, 0, 0, 0, 0, 0, 0, 0, 0, 0, 0, 0, 0, 0, 0, 0, 0, 0, 0
        DC8 0, 0, 0, 0, 0, 0, 0, 0, 0, 0, 0, 0, 0, 0, 0, 0, 0, 0, 0, 0, 0, 0, 0
        DC8 0, 0, 0, 0, 0, 0, 0, 0, 0, 0, 0, 0, 0, 0, 0, 0, 0, 0, 0, 0, 0, 0, 0
        DC8 0, 0, 0, 0, 0, 0, 0, 0, 0, 0, 0, 0, 0, 0, 0, 0, 0, 0, 0, 0, 0, 0, 0
        DC8 0, 0, 0, 0, 0, 0, 0, 0, 0, 0, 0, 0, 0, 0, 0, 0, 0, 0, 0, 0, 0, 0, 0
        DC8 0, 0, 0, 0, 0, 0, 0, 0, 0, 0, 0, 0, 0, 0, 0, 0, 0, 0, 0, 0, 0, 0, 0
        DC8 0, 0, 0, 0, 0, 0, 0, 0, 0, 0, 0, 0, 0, 0, 0, 0, 0, 0, 0, 0, 0, 0, 0
        DC8 0, 0, 0, 0, 0, 0, 0, 0, 0, 0, 0, 0, 0, 0, 0, 0, 0, 0, 0, 0, 0, 0, 0
        DC8 0, 0, 0, 0, 0, 0, 0, 0, 0, 0, 0, 0, 0, 0, 0, 0, 0, 0, 0, 0, 0, 0, 0
        DC8 0, 0, 0, 0, 0, 0, 0, 0, 0, 0, 0, 0, 0, 0, 0, 0, 0, 0, 0, 0, 0, 0, 0
        DC8 0, 0, 0, 0, 0, 0, 0, 0, 0, 0, 0, 0, 0, 0, 0, 0, 0, 0, 0, 0, 0, 0, 0
        DC8 0, 0, 0, 0, 0, 0, 0, 0, 0, 0, 0, 0, 0, 0, 0, 0, 0, 0, 0, 0, 0, 0, 0
        DC8 0, 0, 0, 0, 0, 0, 0, 0, 0, 0, 0, 0, 0, 0, 0, 0, 0, 0, 0, 0, 0, 0, 0
        DC8 0, 0, 0, 0, 0, 0, 0, 0, 0, 0, 0, 0, 0, 0, 0, 0, 0, 0, 0, 0, 0, 0, 0
        DC8 0, 0, 0, 0, 0, 0, 0, 0, 0, 0, 0, 0, 0, 0, 0, 0, 0, 0, 0, 0, 0, 0, 0
        DC8 0, 0, 0, 0, 0, 0, 0, 0, 0, 0, 0, 0, 0, 0, 0, 0, 0, 0, 0, 0, 0, 0, 0
        DC8 0, 0, 0, 0, 0, 0, 0, 0, 0, 0, 0, 0, 0, 0, 0, 0, 0, 0, 0, 0, 0, 0, 0
        DC8 0, 0, 0, 0, 0, 0, 0, 0, 0, 0, 0, 0, 0, 0, 0, 0, 0, 0, 0, 0, 0, 0, 0
        DC8 0, 0, 0, 0, 0, 0, 0, 0, 0, 0, 0, 0, 0, 0, 0, 0, 0, 0, 0, 0, 0, 0, 0
        DC8 0, 0, 0, 0, 0, 0, 0, 0, 0, 0, 0, 0, 0, 0, 0, 0, 0, 0, 0, 0, 0, 0, 0
        DC8 0, 0, 0, 0, 0, 0, 0, 0, 0, 0, 0, 0, 0, 0, 0, 0, 0, 0, 0, 0, 0, 0, 0
        DC8 0, 0, 0, 0, 0, 0, 0, 0, 0, 0, 0, 0, 0, 0, 0, 0, 0, 0, 0, 0, 0, 0, 0
        DC8 0, 0, 0, 0, 0, 0, 0, 0, 0, 0, 0, 0, 0, 0, 0, 0, 0, 0, 0, 0, 0, 0, 0
        DC8 0, 0, 0, 0, 0, 0, 0, 0, 0, 0, 0, 0, 0, 0, 0, 0, 0, 0, 0, 0, 0, 0, 0
        DC8 0, 0, 0, 0, 0, 0, 0, 0, 0, 0, 0, 0, 0, 0, 0, 0, 0, 0, 0, 0, 0, 0, 0
        DC8 0, 0, 0, 0, 0, 0, 0, 0, 0, 0, 0, 0, 0, 0, 0, 0, 0, 0, 0, 0, 0, 0, 0
        DC8 0, 0, 0, 0, 0, 0, 0, 0, 0, 0, 0, 0, 0, 0, 0, 0, 0, 0, 0, 0, 0, 0, 0
        DC8 0, 0, 0, 0, 0, 0, 0, 0, 0, 0, 0, 0, 0, 0, 0, 0, 0, 0, 0, 0, 0, 0, 0
        DC8 0, 0, 0, 0, 0, 0, 0, 0, 0, 0, 0, 0, 0, 0, 0, 0, 0, 0, 0, 0, 0, 0, 0
        DC8 0, 0, 0, 0, 0, 0, 0, 0, 0, 0, 0, 0, 0, 0, 0, 0, 0, 0, 0, 0, 0, 0, 0
        DC8 0, 0, 0, 0, 0, 0, 0, 0, 0, 0, 0, 0, 0, 0, 0, 0, 0, 0, 0, 0, 0, 0, 0
        DC8 0, 0, 0, 0, 0, 0, 0, 0, 0, 0, 0, 0, 0, 0, 0, 0, 0, 0, 0, 0, 0, 0, 0
        DC8 0, 0, 0, 0, 0, 0, 0, 0, 0, 0, 0, 0, 0, 0, 0, 0, 0, 0, 0, 0, 0, 0, 0
        DC8 0, 0, 0, 0, 0, 0, 0, 0, 0, 0, 0, 0, 0, 0, 0, 0, 0, 0, 0, 0, 0, 0, 0
        DC8 0, 0, 0, 0, 0, 0, 0, 0, 0, 0, 0, 0, 0, 0, 0, 0, 0, 0, 0, 0, 0, 0, 0
        DC8 0, 0, 0, 0, 0, 0, 0, 0, 0, 0, 0, 0, 0, 0, 0, 0, 0, 0, 0, 0, 0, 0, 0
        DC8 0, 0, 0, 0, 0, 0, 0, 0, 0, 0, 0, 0, 0, 0, 0, 0, 0, 0, 0, 0, 0, 0, 0
        DC8 0, 0, 0, 0, 0, 0, 0, 0, 0, 0, 0, 0, 0, 0, 0, 0, 0, 0, 0, 0, 0, 0, 0
        DC8 0, 0, 0, 0, 0, 0, 0, 0, 0, 0, 0, 0, 0, 0, 0, 0, 0, 0, 0, 0, 0, 0, 0
        DC8 0, 0, 0, 0, 0, 0, 0, 0, 0, 0, 0, 0, 0, 0, 0, 0, 0, 0, 0, 0, 0, 0, 0
        DC8 0, 0, 0, 0, 0, 0, 0, 0, 0, 0, 0, 0, 0, 0, 0, 0, 0, 0, 0, 0, 0, 0, 0
        DC8 0, 0, 0, 0, 0, 0, 0, 0, 0, 0, 0, 0, 0, 0, 0, 0, 0, 0, 0, 0, 0, 0, 0
        DC8 0, 0, 0, 0, 0, 0, 0, 0, 0, 0, 0, 0, 0, 0, 0, 0, 0, 0, 0, 0, 0, 0, 0
        DC8 0, 0, 0, 0, 0, 0, 0, 0, 0, 0, 0, 0, 0, 0, 0, 0, 0, 0, 0, 0, 0, 0, 0
        DC8 0, 0, 0, 0, 0, 0, 0, 0, 0, 0, 0, 0, 0, 0, 0, 0, 0, 0, 0, 0, 0, 0, 0
        DC8 0, 0, 0, 0, 0, 0, 0, 0, 0, 0, 0, 0, 0, 0, 0, 0, 0, 0, 0, 0, 0, 0, 0
        DC8 0, 0, 0, 0, 0, 0, 0, 0, 0, 0, 0, 0, 0, 0, 0, 0, 0, 0, 0, 0, 0, 0, 0
        DC8 0, 0, 0, 0, 0, 0, 0, 0, 0, 0, 0, 0, 0, 0, 0, 0, 0, 0, 0, 0, 0, 0, 0
        DC8 0, 0, 0, 0, 0, 0, 0, 0, 0, 0, 0, 0, 0, 0, 0, 0, 0, 0, 0, 0, 0, 0, 0
        DC8 0, 0, 0, 0, 0, 0, 0, 0, 0, 0, 0, 0, 0, 0, 0, 0, 0, 0, 0, 0, 0, 0, 0
        DC8 0, 0, 0, 0, 0, 0, 0, 0, 0, 0, 0, 0, 0, 0, 0, 0, 0, 0, 0, 0, 0, 0, 0
        DC8 0, 0, 0, 0, 0, 0, 0, 0, 0, 0, 0, 0, 0, 0, 0, 0, 0, 0, 0, 0, 0, 0, 0
        DC8 0, 0, 0, 0, 0, 0, 0, 0, 0, 0, 0, 0, 0, 0, 0, 0, 0, 0, 0, 0, 0, 0, 0
        DC8 0, 0, 0, 0, 0, 0, 0, 0, 0, 0, 0, 0, 0, 0, 0, 0, 0, 0, 0, 0, 0, 0, 0
        DC8 0, 0, 0, 0, 0, 0, 0, 0, 0, 0, 0, 0, 0, 0, 0, 0, 0, 0, 0, 0, 0, 0, 0
        DC8 0, 0, 0, 0, 0, 0, 0, 0, 0, 0, 0, 0, 0, 0, 0, 0, 0, 0, 0, 0, 0, 0, 0
        DC8 0, 0, 0, 0, 0, 0, 0, 0, 0, 0, 0, 0, 0, 0, 0, 0, 0, 0, 0, 0, 0, 0, 0
        DC8 0, 0, 0, 0, 0, 0, 0, 0, 0, 0, 0, 0, 0, 0, 0, 0, 0, 0, 0, 0, 0, 0, 0
        DC8 0, 0, 0, 0, 0, 0, 0, 0, 0, 0, 0, 0, 0, 0, 0, 0, 0, 0, 0, 0, 0, 0, 0
        DC8 0, 0, 0, 0, 0, 0, 0, 0, 0, 0, 0, 0, 0, 0, 0, 0, 0, 0, 0, 0, 0, 0, 0
        DC8 0, 0, 0, 0, 0, 0, 0, 0, 0, 0, 0, 0, 0, 0, 0, 0, 0, 0, 0, 0, 0, 0, 0
        DC8 0, 0, 0, 0, 0, 0, 0, 0, 0, 0, 0, 0, 0, 0, 0, 0, 0, 0, 0, 0, 0, 0, 0
        DC8 0, 0, 0, 0, 0, 0, 0, 0, 0, 0, 0, 0, 0, 0, 0, 0, 0, 0, 0, 0, 0, 0, 0
        DC8 0, 0, 0, 0, 0, 0, 0, 0, 0, 0, 0, 0, 0, 0, 0, 0, 0, 0, 0, 0, 0, 0, 0
        DC8 0, 0, 0, 0, 0, 0, 0, 0, 0, 0, 0, 0, 0, 0, 0, 0, 0, 0, 0, 0, 0, 0, 0
        DC8 0, 0, 0, 0, 0, 0, 0, 0, 0, 0, 0, 0, 0, 0, 0, 0, 0, 0, 0, 0, 0, 0, 0
        DC8 0, 0, 0, 0, 0, 0, 0, 0, 0, 0, 0, 0, 0, 0, 0, 0, 0, 0, 0, 0, 0, 0, 0
        DC8 0, 0, 0, 0, 0, 0, 0, 0, 0, 0, 0, 0, 0, 0, 0, 0, 0, 0, 0, 0, 0, 0, 0
        DC8 0, 0, 0, 0, 0, 0, 0, 0, 0, 0, 0, 0, 0, 0, 0, 0, 0, 0, 0, 0, 0, 0, 0
        DC8 0, 0, 0, 0, 0, 0, 0, 0, 0, 0, 0, 0, 0, 0, 0, 0, 0, 0, 0, 0, 0, 0, 0
        DC8 0, 0, 0, 0, 0, 0, 0, 0, 0, 0, 0, 0, 0, 0, 0, 0, 0, 0, 0, 0, 0, 0, 0
        DC8 0, 0, 0, 0, 0, 0, 0, 0, 0, 0, 0, 0, 0, 0, 0, 0, 0, 0, 0, 0, 0, 0, 0
        DC8 0, 0, 0, 0, 0, 0, 0, 0, 0, 0, 0, 0, 0, 0, 0, 0, 0, 0, 0, 0, 0, 0, 0
        DC8 0, 0, 0, 0, 0, 0, 0, 0, 0, 0, 0, 0, 0, 0, 0, 0, 0, 0, 0, 0, 0, 0, 0
        DC8 0, 0, 0, 0, 0, 0, 0, 0, 0, 0, 0, 0, 0, 0, 0, 0, 0, 0, 0, 0, 0, 0, 0
        DC8 0, 0, 0, 0, 0, 0, 0, 0, 0, 0, 0, 0, 0, 0, 0, 0, 0, 0, 0, 0, 0, 0, 0
        DC8 0, 0, 0, 0, 0, 0, 0, 0, 0, 0, 0, 0, 0, 0, 0, 0, 0, 0, 0, 0, 0, 0, 0
        DC8 0, 0, 0, 0, 0, 0, 0, 0, 0, 0, 0, 0, 0, 0, 0, 0, 0, 0, 0, 0, 0, 0, 0
        DC8 0, 0, 0, 0, 0, 0, 0, 0, 0, 0, 0, 0, 0, 0, 0, 0, 0, 0, 0, 0, 0, 0, 0
        DC8 0, 0, 0, 0, 0, 0, 0, 0, 0, 0, 0, 0, 0, 0, 0, 0, 0, 0, 0, 0, 0, 0, 0
        DC8 0, 0, 0, 0, 0, 0, 0, 0, 0, 0, 0, 0, 0, 0, 0, 0, 0, 0, 0, 0, 0, 0, 0
        DC8 0, 0, 0, 0, 0, 0, 0, 0, 0, 0, 0, 0, 0, 0, 0, 0, 0, 0, 0, 0, 0, 0, 0
        DC8 0, 0, 0, 0, 0, 0, 0, 0, 0, 0, 0, 0, 0, 0, 0, 0, 0, 0, 0, 0, 0, 0, 0
        DC8 0, 0, 0, 0, 0, 0, 0, 0, 0, 0, 0, 0, 0, 0, 0, 0, 0, 0, 0, 0, 0, 0, 0
        DC8 0, 0, 0, 0, 0, 0, 0, 0, 0, 0, 0, 0, 0, 0, 0, 0, 0, 0, 0, 0, 0, 0, 0
        DC8 0, 0, 0, 0, 0, 0, 0, 0, 0, 0, 0, 0, 0, 0, 0, 0, 0, 0, 0, 0, 0, 0, 0
        DC8 0, 0, 0, 0, 0, 0, 0, 0, 0, 0, 0, 0, 0, 0, 0, 0, 0, 0, 0, 0, 0, 0, 0
        DC8 0, 0, 0, 0, 0, 0, 0, 0, 0, 0, 0, 0, 0
        DATA32
        DC32 1
        DATA8
        DC8 0, 0, 0, 0
        DATA32
        DC32 0

        SECTION `.bss`:DATA:REORDER:NOROOT(3)
        SECTION_GROUP bme280
        DATA
// __absolute BME280Driver<spi1Transceiver, PinCSforBME280> bme280
bme280:
        DS8 80

        SECTION `.data`:DATA:REORDER:NOROOT(2)
        DATA
// __absolute Unit temperatureUnits[3]
temperatureUnits:
        DATA32
        DC32 0, 2, 1

        SECTION `.text`:CODE:NOROOT(2)
          CFI Block cfiBlock1 Using cfiCommon0
          CFI Function _Z7fcnTempv
        THUMB
// __interwork __vfp double fcnTemp()
_Z7fcnTempv:
        PUSH     {R7,LR}
          CFI R14 Frame(CFA, -4)
          CFI CFA R13+8
        LDR.N    R0,??DataTable7_3
          CFI FunCall _ZN12BME280DriverIL_Z15spi1TransceiverE3PinI4PortI5GPIOBELh10EEE14GetTemperatureEv
        BL       _ZN12BME280DriverIL_Z15spi1TransceiverE3PinI4PortI5GPIOBELh10EEE14GetTemperatureEv
        POP      {R0,PC}          ;; return
          CFI EndBlock cfiBlock1

        SECTION `.text`:CODE:NOROOT(2)
          CFI Block cfiBlock2 Using cfiCommon0
          CFI Function _Z8fcnPressv
        THUMB
// __interwork __vfp double fcnPress()
_Z8fcnPressv:
        PUSH     {R7,LR}
          CFI R14 Frame(CFA, -4)
          CFI CFA R13+8
        LDR.N    R0,??DataTable7_3
          CFI FunCall _ZN12BME280DriverIL_Z15spi1TransceiverE3PinI4PortI5GPIOBELh10EEE11GetPressureEv
        BL       _ZN12BME280DriverIL_Z15spi1TransceiverE3PinI4PortI5GPIOBELh10EEE11GetPressureEv
        POP      {R0,PC}          ;; return
          CFI EndBlock cfiBlock2

        SECTION `.text`:CODE:NOROOT(2)
          CFI Block cfiBlock3 Using cfiCommon0
          CFI Function _Z6fcnHumv
        THUMB
// __interwork __vfp double fcnHum()
_Z6fcnHumv:
        PUSH     {R7,LR}
          CFI R14 Frame(CFA, -4)
          CFI CFA R13+8
        LDR.N    R0,??DataTable7_3
          CFI FunCall _ZN12BME280DriverIL_Z15spi1TransceiverE3PinI4PortI5GPIOBELh10EEE11GetHumidityEv
        BL       _ZN12BME280DriverIL_Z15spi1TransceiverE3PinI4PortI5GPIOBELh10EEE11GetHumidityEv
        POP      {R0,PC}          ;; return
          CFI EndBlock cfiBlock3

        SECTION `.text`:CODE:NOROOT(2)
          CFI Block cfiBlock4 Using cfiCommon0
          CFI Function _Z7fcnDewPv
        THUMB
// __interwork __vfp double fcnDewP()
_Z7fcnDewPv:
        PUSH     {R7,LR}
          CFI R14 Frame(CFA, -4)
          CFI CFA R13+8
        LDR.N    R0,??DataTable7_3
          CFI FunCall _ZN12BME280DriverIL_Z15spi1TransceiverE3PinI4PortI5GPIOBELh10EEE11GetDewPointEv
        BL       _ZN12BME280DriverIL_Z15spi1TransceiverE3PinI4PortI5GPIOBELh10EEE11GetDewPointEv
        POP      {R0,PC}          ;; return
          CFI EndBlock cfiBlock4

        SECTION `.bss`:DATA:REORDER:NOROOT(2)
        SECTION_GROUP temperature
        DATA
// __absolute Temperature temperature
temperature:
        DS8 44

        SECTION `.bss`:DATA:REORDER:NOROOT(2)
        SECTION_GROUP pressure
        DATA
// __absolute Measurement pressure
pressure:
        DS8 44

        SECTION `.bss`:DATA:REORDER:NOROOT(2)
        SECTION_GROUP humidity
        DATA
// __absolute Measurement humidity
humidity:
        DS8 44

        SECTION `.bss`:DATA:REORDER:NOROOT(2)
        SECTION_GROUP dewPoint
        DATA
// __absolute Temperature dewPoint
dewPoint:
        DS8 44

        SECTION `.data`:DATA:REORDER:NOROOT(2)
        SECTION_GROUP measurements
        DATA
// __absolute Measurement *measurements[4]
measurements:
        DATA32
        DC32 temperature, pressure, humidity, dewPoint

        SECTION `.data`:DATA:REORDER:NOROOT(2)
        SECTION_GROUP userUnits
        DATA
// __absolute Unit userUnits[4]
userUnits:
        DATA32
        DC32 1, 3, 4, 1

        SECTION `.rodata`:CONST:REORDER:NOROOT(3)
        DATA
?_15:
        DATA64
        DC64 1'000

        SECTION `.rodata`:CONST:REORDER:NOROOT(3)
        DATA
?_16:
        DATA64
        DC64 100

        SECTION `.bss`:DATA:REORDER:NOROOT(2)
        SECTION_GROUP _ZZN15MeasurementTaskIL_Z5eventEE11UnitsUpdateEvE7counter
        DATA
// __absolute int counter
_ZZN15MeasurementTaskIL_Z5eventEE11UnitsUpdateEvE7counter:
        DS8 4

        SECTION `.text`:CODE:NOROOT(2)
          CFI Block cfiBlock5 Using cfiCommon0
          CFI Function SysCtlDelay
          CFI NoCalls
        THUMB
// __interwork __vfp void SysCtlDelay(unsigned long)
SysCtlDelay:
        subs    r0, #1
        bne.n   SysCtlDelay
        bx      lr
        BX       LR               ;; return
          CFI EndBlock cfiBlock5

        SECTION `.text`:CODE:NOROOT(1)
          CFI Block cfiBlock6 Using cfiCommon0
          CFI Function _Z8Delay_msy
        THUMB
// __interwork __vfp void Delay_ms(uint64_t)
_Z8Delay_msy:
        PUSH     {R3-R5,LR}
          CFI R14 Frame(CFA, -4)
          CFI R5 Frame(CFA, -8)
          CFI R4 Frame(CFA, -12)
          CFI CFA R13+16
        MOVS     R4,R0
        MOVS     R5,R1
        LDR.N    R0,??DataTable7_31
        LDR      R2,[R0, #+0]
        MOVS     R3,#+0
        UMULL    R0,R1,R2,R4
        MLA      R1,R2,R5,R1
        MLA      R1,R3,R4,R1
        MOVW     R2,#+3000
        MOVS     R3,#+0
          CFI FunCall __aeabi_uldivmod
        BL       __aeabi_uldivmod
          CFI FunCall SysCtlDelay
        BL       SysCtlDelay
        POP      {R0,R4,R5,PC}    ;; return
          CFI EndBlock cfiBlock6

        SECTION `.rodata`:CONST:REORDER:NOROOT(2)
        DATA
// static __absolute unsigned char const EPD_4IN2_lut_vcom0[44]
EPD_4IN2_lut_vcom0:
        DATA8
        DC8 0, 23, 0, 0, 0, 2, 0, 23, 23, 0, 0, 2, 0, 10, 1, 0, 0, 1, 0, 14, 14
        DC8 0, 0, 2, 0, 0, 0, 0, 0, 0, 0, 0, 0, 0, 0, 0, 0, 0, 0, 0, 0, 0, 0, 0

        SECTION `.rodata`:CONST:REORDER:NOROOT(2)
        DATA
// static __absolute unsigned char const EPD_4IN2_lut_vcom0_quick[44]
EPD_4IN2_lut_vcom0_quick:
        DATA8
        DC8 0, 14, 14, 0, 0, 2, 0, 0, 0, 0, 0, 0, 0, 0, 0, 0, 0, 0, 0, 0, 0, 0
        DC8 0, 0, 0, 0, 0, 0, 0, 0, 0, 0, 0, 0, 0, 0, 0, 0, 0, 0, 0, 0, 0, 0

        SECTION `.rodata`:CONST:REORDER:NOROOT(2)
        DATA
// static __absolute unsigned char const EPD_4IN2_lut_ww[42]
EPD_4IN2_lut_ww:
        DATA8
        DC8 64, 23, 0, 0, 0, 2, 144, 23, 23, 0, 0, 2, 64, 10, 1, 0, 0, 1, 160
        DC8 14, 14, 0, 0, 2, 0, 0, 0, 0, 0, 0, 0, 0, 0, 0, 0, 0, 0, 0, 0, 0, 0
        DC8 0, 0, 0

        SECTION `.rodata`:CONST:REORDER:NOROOT(2)
        DATA
// static __absolute unsigned char const EPD_4IN2_lut_ww_quick[42]
EPD_4IN2_lut_ww_quick:
        DATA8
        DC8 160, 14, 0, 0, 0, 2, 0, 0, 0, 0, 0, 0, 0, 0, 0, 0, 0, 0, 0, 0, 0, 0
        DC8 0, 0, 0, 0, 0, 0, 0, 0, 0, 0, 0, 0, 0, 0, 0, 0, 0, 0, 0, 0, 0, 0

        SECTION `.rodata`:CONST:REORDER:NOROOT(2)
        DATA
// static __absolute unsigned char const EPD_4IN2_lut_bw[42]
EPD_4IN2_lut_bw:
        DATA8
        DC8 64, 23, 0, 0, 0, 2, 144, 23, 23, 0, 0, 2, 64, 10, 1, 0, 0, 1, 160
        DC8 14, 14, 0, 0, 2, 0, 0, 0, 0, 0, 0, 0, 0, 0, 0, 0, 0, 0, 0, 0, 0, 0
        DC8 0, 0, 0

        SECTION `.rodata`:CONST:REORDER:NOROOT(2)
        DATA
// static __absolute unsigned char const EPD_4IN2_lut_bw_quick[42]
EPD_4IN2_lut_bw_quick:
        DATA8
        DC8 160, 14, 0, 0, 0, 2, 0, 0, 0, 0, 0, 0, 0, 0, 0, 0, 0, 0, 0, 0, 0, 0
        DC8 0, 0, 0, 0, 0, 0, 0, 0, 0, 0, 0, 0, 0, 0, 0, 0, 0, 0, 0, 0, 0, 0

        SECTION `.rodata`:CONST:REORDER:NOROOT(2)
        DATA
// static __absolute unsigned char const EPD_4IN2_lut_wb[42]
EPD_4IN2_lut_wb:
        DATA8
        DC8 128, 23, 0, 0, 0, 2, 144, 23, 23, 0, 0, 2, 128, 10, 1, 0, 0, 1, 80
        DC8 14, 14, 0, 0, 2, 0, 0, 0, 0, 0, 0, 0, 0, 0, 0, 0, 0, 0, 0, 0, 0, 0
        DC8 0, 0, 0

        SECTION `.rodata`:CONST:REORDER:NOROOT(2)
        DATA
// static __absolute unsigned char const EPD_4IN2_lut_wb_quick[42]
EPD_4IN2_lut_wb_quick:
        DATA8
        DC8 80, 14, 0, 0, 0, 2, 0, 0, 0, 0, 0, 0, 0, 0, 0, 0, 0, 0, 0, 0, 0, 0
        DC8 0, 0, 0, 0, 0, 0, 0, 0, 0, 0, 0, 0, 0, 0, 0, 0, 0, 0, 0, 0, 0, 0

        SECTION `.rodata`:CONST:REORDER:NOROOT(2)
        DATA
// static __absolute unsigned char const EPD_4IN2_lut_bb[42]
EPD_4IN2_lut_bb:
        DATA8
        DC8 128, 23, 0, 0, 0, 2, 144, 23, 23, 0, 0, 2, 128, 10, 1, 0, 0, 1, 80
        DC8 14, 14, 0, 0, 2, 0, 0, 0, 0, 0, 0, 0, 0, 0, 0, 0, 0, 0, 0, 0, 0, 0
        DC8 0, 0, 0

        SECTION `.rodata`:CONST:REORDER:NOROOT(2)
        DATA
// static __absolute unsigned char const EPD_4IN2_lut_bb_quick[42]
EPD_4IN2_lut_bb_quick:
        DATA8
        DC8 80, 14, 0, 0, 0, 2, 0, 0, 0, 0, 0, 0, 0, 0, 0, 0, 0, 0, 0, 0, 0, 0
        DC8 0, 0, 0, 0, 0, 0, 0, 0, 0, 0, 0, 0, 0, 0, 0, 0, 0, 0, 0, 0, 0, 0

        SECTION `.bss`:DATA:REORDER:NOROOT(0)
        SECTION_GROUP eInkDisplay
        DATA
// __absolute EPDDriver<spi2Transceiver, PinCSforEPD, PinDCforEPD, PinRSTforEPD, PinBSYforEPD> eInkDisplay
eInkDisplay:
        DS8 1

        SECTION `.rodata`:CONST:REORDER:NOROOT(2)
        DATA
// static __absolute uint8_t const segoeUISemibold_24ptBitmaps[7293]
segoeUISemibold_24ptBitmaps:
        DATA8
        DC8 0, 0, 0, 248, 248, 248, 248, 248, 248, 248, 248, 248, 248, 248, 248
        DC8 248, 248, 248, 248, 0, 0, 0, 120, 252, 252, 120, 0, 0, 0, 0, 0, 0
        DC8 0, 0, 0, 0, 0, 0, 0, 255, 192, 255, 192, 255, 192, 255, 192, 255
        DC8 192, 255, 192, 115, 128, 0, 0, 0, 0, 0, 0, 0, 0, 0, 0, 0, 0, 0, 0
        DC8 0, 0, 0, 0, 0, 0, 0, 0, 0, 0, 0, 0, 0, 0, 0, 0, 0, 0, 0, 0, 0, 0, 0
        DC8 0, 0, 0, 0, 0, 0, 0, 0, 0, 0, 0, 0, 0, 0, 0, 0, 0, 0, 3, 207, 0, 3
        DC8 207, 0, 3, 142, 0, 3, 142, 0, 3, 142, 0, 7, 158, 0, 127, 255, 192
        DC8 127, 255, 192, 7, 28, 0, 15, 28, 0, 15, 60, 0, 15, 60, 0, 14, 56, 0
        DC8 255, 255, 128, 255, 255, 128, 30, 120, 0, 28, 112, 0, 28, 112, 0
        DC8 28, 112, 0, 60, 240, 0, 60, 240, 0, 0, 0, 0, 0, 0, 0, 0, 0, 0, 0, 0
        DC8 0, 0, 0, 0, 0, 0, 0, 0, 0, 0, 0, 0, 0, 0, 0, 0, 3, 128, 3, 128, 3
        DC8 128, 15, 248, 63, 252, 127, 252, 127, 140, 251, 128, 251, 128, 251
        DC8 128, 251, 128, 255, 128, 127, 128, 63, 128, 31, 224, 7, 248, 3, 252
        DC8 3, 252, 3, 190, 3, 190, 3, 190, 195, 190, 243, 252, 255, 252, 255
        DC8 248, 63, 224, 3, 128, 3, 128, 3, 128, 0, 0, 0, 0, 0, 0, 0, 0, 0, 0
        DC8 0, 0, 0, 0, 0, 0, 0, 0, 0, 0, 31, 128, 60, 0, 63, 224, 56, 0, 121
        DC8 224, 112, 0, 240, 240, 240, 0, 240, 240, 224, 0, 240, 241, 192, 0
        DC8 240, 241, 192, 0, 240, 243, 128, 0, 240, 247, 128, 0, 121, 231, 0
        DC8 0, 63, 206, 0, 0, 31, 158, 252, 0, 0, 29, 255, 0, 0, 59, 207, 0, 0
        DC8 127, 135, 128, 0, 119, 135, 128, 0, 231, 135, 128, 0, 231, 135, 128
        DC8 1, 199, 135, 128, 3, 199, 135, 128, 3, 131, 207, 0, 7, 1, 254, 0
        DC8 15, 0, 252, 0, 0, 0, 0, 0, 0, 0, 0, 0, 0, 0, 0, 0, 0, 0, 0, 0, 0, 0
        DC8 0, 0, 0, 0, 0, 0, 0, 0, 0, 0, 0, 0, 0, 0, 0, 0, 0, 0, 0, 3, 240, 0
        DC8 15, 252, 0, 15, 252, 0, 31, 62, 0, 30, 30, 0, 30, 30, 60, 30, 30
        DC8 60, 15, 60, 60, 15, 248, 60, 7, 240, 60, 15, 248, 60, 63, 252, 120
        DC8 126, 62, 120, 124, 31, 112, 248, 15, 240, 248, 7, 224, 248, 7, 224
        DC8 248, 3, 192, 252, 7, 224, 126, 31, 240, 127, 254, 255, 63, 252, 127
        DC8 15, 240, 63, 0, 0, 0, 0, 0, 0, 0, 0, 0, 0, 0, 0, 0, 0, 0, 0, 0, 0
        DC8 0, 0, 0, 0, 0, 0, 248, 248, 248, 248, 248, 248, 112, 0, 0, 0, 0, 0
        DC8 0, 0, 0, 0, 0, 0, 0, 0, 0, 0, 0, 0, 0, 0, 0, 0, 0, 0, 0, 0, 0, 0, 0
        DC8 0, 3, 192, 7, 128, 15, 0, 30, 0, 62, 0, 60, 0, 124, 0, 120, 0, 120
        DC8 0, 120, 0, 240, 0, 240, 0, 240, 0, 240, 0, 240, 0, 240, 0, 240, 0
        DC8 240, 0, 240, 0, 120, 0, 120, 0, 120, 0, 60, 0, 60, 0, 30, 0, 15, 0
        DC8 7, 128, 7, 192, 0, 0, 0, 0, 0, 0, 0, 0, 0, 0, 240, 0, 120, 0, 60, 0
        DC8 30, 0, 31, 0, 15, 0, 15, 128, 7, 128, 7, 128, 7, 128, 3, 192, 3
        DC8 192, 3, 192, 3, 192, 3, 192, 3, 192, 3, 192, 3, 192, 3, 192, 7, 128
        DC8 7, 128, 7, 128, 15, 0, 15, 0, 30, 0, 60, 0, 120, 0, 248, 0, 0, 0, 0
        DC8 0, 0, 0, 0, 0, 0, 0, 15, 0, 15, 0, 15, 0, 111, 96, 255, 240, 31
        DC8 128, 31, 128, 31, 128, 63, 192, 121, 224, 0, 0, 0, 0, 0, 0, 0, 0, 0
        DC8 0, 0, 0, 0, 0, 0, 0, 0, 0, 0, 0, 0, 0, 0, 0, 0, 0, 0, 0, 0, 0, 0, 0
        DC8 0, 0, 0, 0, 0, 0, 0, 0, 0, 0, 0, 0, 0, 0, 0, 0, 0, 0, 0, 0, 0, 0, 0
        DC8 0, 0, 0, 3, 192, 3, 192, 3, 192, 3, 192, 3, 192, 3, 192, 255, 255
        DC8 255, 255, 255, 255, 3, 192, 3, 192, 3, 192, 3, 192, 3, 192, 3, 192
        DC8 0, 0, 0, 0, 0, 0, 0, 0, 0, 0, 0, 0, 0, 0, 0, 0, 0, 0, 0, 0, 0, 0, 0
        DC8 0, 0, 0, 0, 0, 0, 0, 0, 0, 0, 0, 0, 0, 0, 0, 0, 0, 60, 124, 120
        DC8 120, 120, 112, 240, 240, 0, 0, 0, 0, 0, 0, 0, 0, 0, 0, 0, 0, 0, 0
        DC8 0, 0, 0, 0, 0, 0, 0, 0, 0, 0, 0, 0, 0, 0, 0, 0, 0, 0, 0, 0, 0, 255
        DC8 192, 255, 192, 0, 0, 0, 0, 0, 0, 0, 0, 0, 0, 0, 0, 0, 0, 0, 0, 0, 0
        DC8 0, 0, 0, 0, 0, 0, 0, 0, 0, 0, 0, 0, 0, 0, 0, 0, 0, 0, 0, 0, 0, 0, 0
        DC8 0, 0, 0, 0, 0, 0, 0, 0, 0, 0, 0, 120, 252, 252, 120, 0, 0, 0, 0, 0
        DC8 0, 0, 0, 0, 0, 0, 0, 0, 0, 31, 0, 30, 0, 62, 0, 62, 0, 60, 0, 124
        DC8 0, 120, 0, 248, 0, 240, 1, 240, 1, 240, 1, 224, 3, 224, 3, 192, 7
        DC8 192, 7, 128, 15, 128, 15, 128, 15, 0, 31, 0, 30, 0, 62, 0, 60, 0
        DC8 124, 0, 124, 0, 120, 0, 248, 0, 0, 0, 0, 0, 0, 0, 0, 0, 0, 0, 0, 0
        DC8 0, 0, 0, 7, 240, 0, 15, 252, 0, 31, 254, 0, 62, 62, 0, 124, 31, 0
        DC8 124, 31, 0, 124, 31, 128, 248, 15, 128, 248, 15, 128, 248, 15, 128
        DC8 248, 15, 128, 248, 15, 128, 248, 15, 128, 248, 15, 128, 248, 15
        DC8 128, 248, 15, 128, 248, 15, 0, 124, 31, 0, 124, 31, 0, 62, 62, 0
        DC8 63, 252, 0, 31, 248, 0, 7, 240, 0, 0, 0, 0, 0, 0, 0, 0, 0, 0, 0, 0
        DC8 0, 0, 0, 0, 0, 0, 0, 0, 0, 0, 0, 0, 0, 0, 0, 0, 3, 128, 63, 128
        DC8 255, 128, 255, 128, 239, 128, 15, 128, 15, 128, 15, 128, 15, 128
        DC8 15, 128, 15, 128, 15, 128, 15, 128, 15, 128, 15, 128, 15, 128, 15
        DC8 128, 15, 128, 15, 128, 15, 128, 255, 248, 255, 248, 255, 248, 0, 0
        DC8 0, 0, 0, 0, 0, 0, 0, 0, 0, 0, 0, 0, 0, 0, 0, 0, 0, 0, 15, 224, 63
        DC8 248, 127, 252, 120, 254, 96, 126, 0, 62, 0, 62, 0, 62, 0, 62, 0
        DC8 124, 0, 124, 0, 248, 1, 240, 3, 224, 7, 224, 15, 192, 31, 128, 63
        DC8 0, 62, 0, 124, 0, 255, 254, 255, 254, 255, 254, 0, 0, 0, 0, 0, 0, 0
        DC8 0, 0, 0, 0, 0, 0, 0, 0, 0, 0, 0, 0, 0, 31, 192, 127, 240, 127, 248
        DC8 112, 252, 96, 124, 0, 124, 0, 124, 0, 124, 0, 248, 1, 248, 63, 224
        DC8 63, 192, 63, 248, 0, 252, 0, 126, 0, 62, 0, 62, 0, 62, 192, 126
        DC8 224, 252, 255, 248, 255, 240, 63, 192, 0, 0, 0, 0, 0, 0, 0, 0, 0, 0
        DC8 0, 0, 0, 0, 0, 0, 0, 0, 0, 0, 0, 0, 0, 0, 63, 0, 0, 63, 0, 0, 127
        DC8 0, 0, 255, 0, 1, 255, 0, 1, 255, 0, 3, 223, 0, 7, 223, 0, 7, 159, 0
        DC8 15, 31, 0, 30, 31, 0, 30, 31, 0, 60, 31, 0, 120, 31, 0, 120, 31, 0
        DC8 255, 255, 224, 255, 255, 224, 255, 255, 224, 0, 31, 0, 0, 31, 0, 0
        DC8 31, 0, 0, 31, 0, 0, 31, 0, 0, 0, 0, 0, 0, 0, 0, 0, 0, 0, 0, 0, 0, 0
        DC8 0, 0, 0, 0, 0, 0, 0, 0, 0, 0, 0, 0, 0, 127, 252, 127, 252, 127, 252
        DC8 120, 0, 120, 0, 120, 0, 120, 0, 120, 0, 120, 0, 127, 224, 127, 248
        DC8 127, 252, 0, 252, 0, 126, 0, 62, 0, 62, 0, 62, 0, 62, 0, 126, 193
        DC8 252, 255, 248, 255, 240, 127, 192, 0, 0, 0, 0, 0, 0, 0, 0, 0, 0, 0
        DC8 0, 0, 0, 0, 0, 0, 0, 0, 0, 1, 254, 7, 254, 15, 254, 31, 134, 62, 0
        DC8 124, 0, 124, 0, 120, 0, 251, 240, 255, 252, 255, 254, 254, 126, 252
        DC8 63, 248, 31, 248, 31, 248, 31, 248, 31, 124, 31, 124, 62, 126, 126
        DC8 63, 252, 31, 248, 7, 224, 0, 0, 0, 0, 0, 0, 0, 0, 0, 0, 0, 0, 0, 0
        DC8 0, 0, 0, 0, 0, 0, 0, 0, 0, 255, 255, 128, 255, 255, 128, 255, 255
        DC8 128, 0, 31, 0, 0, 31, 0, 0, 30, 0, 0, 62, 0, 0, 60, 0, 0, 124, 0, 0
        DC8 124, 0, 0, 248, 0, 0, 248, 0, 0, 240, 0, 1, 240, 0, 1, 240, 0, 3
        DC8 224, 0, 3, 224, 0, 7, 192, 0, 7, 192, 0, 7, 128, 0, 15, 128, 0, 15
        DC8 128, 0, 31, 0, 0, 0, 0, 0, 0, 0, 0, 0, 0, 0, 0, 0, 0, 0, 0, 0, 0, 0
        DC8 0, 0, 0, 0, 0, 0, 0, 0, 0, 0, 0, 0, 0, 7, 240, 0, 31, 252, 0, 63
        DC8 254, 0, 126, 63, 0, 124, 31, 0, 124, 31, 0, 124, 31, 0, 124, 30, 0
        DC8 62, 62, 0, 31, 252, 0, 15, 240, 0, 15, 248, 0, 63, 254, 0, 126, 63
        DC8 0, 124, 31, 0, 248, 15, 128, 248, 15, 128, 248, 15, 128, 252, 31
        DC8 128, 126, 63, 0, 127, 255, 0, 63, 254, 0, 15, 240, 0, 0, 0, 0, 0, 0
        DC8 0, 0, 0, 0, 0, 0, 0, 0, 0, 0, 0, 0, 0, 0, 0, 0, 0, 0, 0, 0, 0, 0, 0
        DC8 0, 0, 7, 240, 0, 31, 252, 0, 63, 254, 0, 126, 63, 0, 124, 31, 0
        DC8 248, 31, 0, 248, 15, 128, 248, 15, 128, 248, 15, 128, 248, 15, 128
        DC8 252, 31, 128, 126, 63, 128, 63, 255, 128, 63, 255, 128, 15, 239
        DC8 128, 0, 15, 0, 0, 31, 0, 0, 31, 0, 0, 62, 0, 96, 252, 0, 127, 248
        DC8 0, 127, 240, 0, 63, 192, 0, 0, 0, 0, 0, 0, 0, 0, 0, 0, 0, 0, 0, 0
        DC8 0, 0, 0, 0, 0, 0, 0, 0, 0, 0, 0, 0, 0, 0, 0, 0, 0, 0, 120, 252, 252
        DC8 120, 0, 0, 0, 0, 0, 0, 0, 0, 120, 252, 252, 120, 0, 0, 0, 0, 0, 0
        DC8 0, 0, 0, 0, 0, 0, 0, 0, 0, 0, 0, 60, 126, 126, 60, 0, 0, 0, 0, 0, 0
        DC8 0, 0, 60, 124, 120, 120, 120, 112, 240, 240, 0, 0, 0, 0, 0, 0, 0, 0
        DC8 0, 0, 0, 0, 0, 0, 0, 0, 0, 0, 0, 0, 6, 0, 30, 0, 126, 1, 252, 3
        DC8 240, 15, 192, 63, 0, 252, 0, 248, 0, 126, 0, 31, 192, 7, 240, 1
        DC8 252, 0, 126, 0, 30, 0, 6, 0, 0, 0, 0, 0, 0, 0, 0, 0, 0, 0, 0, 0, 0
        DC8 0, 0, 0, 0, 0, 0, 0, 0, 0, 0, 0, 0, 0, 0, 0, 0, 0, 0, 0, 0, 0, 0, 0
        DC8 0, 0, 0, 0, 0, 255, 255, 255, 255, 255, 255, 0, 0, 0, 0, 0, 0, 0, 0
        DC8 255, 255, 255, 255, 255, 255, 0, 0, 0, 0, 0, 0, 0, 0, 0, 0, 0, 0, 0
        DC8 0, 0, 0, 0, 0, 0, 0, 0, 0, 0, 0, 0, 0, 0, 0, 0, 0, 0, 0, 0, 0, 0, 0
        DC8 0, 0, 192, 0, 240, 0, 252, 0, 127, 0, 31, 128, 7, 224, 1, 248, 0
        DC8 126, 0, 62, 0, 252, 7, 240, 31, 192, 127, 0, 252, 0, 240, 0, 192, 0
        DC8 0, 0, 0, 0, 0, 0, 0, 0, 0, 0, 0, 0, 0, 0, 0, 0, 0, 0, 0, 0, 0, 0, 0
        DC8 0, 63, 192, 255, 224, 255, 240, 225, 248, 192, 248, 0, 248, 0, 248
        DC8 0, 248, 1, 240, 3, 224, 7, 192, 15, 128, 15, 0, 30, 0, 30, 0, 30, 0
        DC8 30, 0, 0, 0, 0, 0, 15, 0, 31, 128, 31, 128, 15, 0, 0, 0, 0, 0, 0, 0
        DC8 0, 0, 0, 0, 0, 0, 0, 0, 0, 0, 0, 0, 0, 0, 0, 0, 0, 0, 0, 0, 0, 127
        DC8 192, 0, 1, 255, 248, 0, 7, 224, 126, 0, 15, 128, 31, 0, 31, 0, 15
        DC8 128, 62, 0, 7, 128, 60, 62, 227, 192, 120, 255, 227, 192, 120, 243
        DC8 225, 224, 249, 225, 225, 224, 241, 225, 225, 224, 243, 193, 225
        DC8 224, 243, 193, 225, 224, 243, 193, 225, 224, 243, 193, 193, 224
        DC8 243, 195, 195, 192, 243, 195, 227, 192, 121, 231, 231, 128, 121
        DC8 255, 255, 0, 124, 124, 252, 0, 60, 0, 0, 0, 30, 0, 0, 0, 15, 128, 0
        DC8 0, 7, 224, 56, 0, 3, 255, 248, 0, 0, 127, 224, 0, 0, 0, 0, 0, 0, 0
        DC8 0, 0, 0, 0, 0, 0, 0, 0, 0, 0, 0, 0, 0, 0, 0, 0, 0, 0, 0, 0, 252, 0
        DC8 0, 252, 0, 0, 254, 0, 1, 254, 0, 1, 254, 0, 3, 255, 0, 3, 223, 0, 3
        DC8 207, 0, 7, 207, 128, 7, 143, 128, 7, 135, 128, 15, 135, 192, 15, 7
        DC8 192, 31, 3, 224, 31, 255, 224, 31, 255, 224, 63, 255, 240, 62, 1
        DC8 240, 62, 1, 240, 124, 0, 248, 124, 0, 248, 124, 0, 248, 248, 0, 124
        DC8 0, 0, 0, 0, 0, 0, 0, 0, 0, 0, 0, 0, 0, 0, 0, 0, 0, 0, 0, 0, 0, 0, 0
        DC8 0, 0, 0, 0, 255, 224, 255, 248, 255, 252, 248, 126, 248, 62, 248
        DC8 62, 248, 62, 248, 62, 248, 124, 248, 252, 255, 240, 255, 248, 255
        DC8 252, 248, 126, 248, 63, 248, 31, 248, 31, 248, 31, 248, 63, 248
        DC8 126, 255, 254, 255, 248, 255, 224, 0, 0, 0, 0, 0, 0, 0, 0, 0, 0, 0
        DC8 0, 0, 0, 0, 0, 0, 0, 0, 0, 0, 0, 0, 0, 255, 128, 3, 255, 192, 15
        DC8 255, 192, 31, 192, 192, 63, 0, 0, 62, 0, 0, 124, 0, 0, 124, 0, 0
        DC8 248, 0, 0, 248, 0, 0, 248, 0, 0, 248, 0, 0, 248, 0, 0, 248, 0, 0
        DC8 248, 0, 0, 252, 0, 0, 124, 0, 0, 126, 0, 0, 63, 0, 192, 31, 195
        DC8 192, 15, 255, 192, 7, 255, 192, 1, 255, 0, 0, 0, 0, 0, 0, 0, 0, 0
        DC8 0, 0, 0, 0, 0, 0, 0, 0, 0, 0, 0, 0, 0, 0, 0, 0, 0, 0, 0, 0, 0, 0
        DC8 255, 240, 0, 255, 254, 0, 255, 255, 128, 248, 63, 192, 248, 15, 192
        DC8 248, 7, 224, 248, 3, 224, 248, 3, 240, 248, 1, 240, 248, 1, 240
        DC8 248, 1, 240, 248, 1, 240, 248, 1, 240, 248, 1, 240, 248, 1, 240
        DC8 248, 3, 224, 248, 3, 224, 248, 7, 192, 248, 15, 192, 248, 63, 128
        DC8 255, 255, 0, 255, 252, 0, 255, 224, 0, 0, 0, 0, 0, 0, 0, 0, 0, 0, 0
        DC8 0, 0, 0, 0, 0, 0, 0, 0, 0, 0, 0, 0, 0, 0, 0, 0, 0, 255, 252, 255
        DC8 252, 255, 252, 248, 0, 248, 0, 248, 0, 248, 0, 248, 0, 248, 0, 248
        DC8 0, 255, 248, 255, 248, 255, 248, 248, 0, 248, 0, 248, 0, 248, 0
        DC8 248, 0, 248, 0, 248, 0, 255, 252, 255, 252, 255, 252, 0, 0, 0, 0, 0
        DC8 0, 0, 0, 0, 0, 0, 0, 0, 0, 0, 0, 0, 0, 0, 0, 255, 248, 255, 248
        DC8 255, 248, 248, 0, 248, 0, 248, 0, 248, 0, 248, 0, 248, 0, 248, 0
        DC8 255, 240, 255, 240, 255, 240, 248, 0, 248, 0, 248, 0, 248, 0, 248
        DC8 0, 248, 0, 248, 0, 248, 0, 248, 0, 248, 0, 0, 0, 0, 0, 0, 0, 0, 0
        DC8 0, 0, 0, 0, 0, 0, 0, 0, 0, 0, 0, 0, 0, 0, 0, 0, 255, 128, 3, 255
        DC8 224, 15, 255, 224, 31, 193, 224, 63, 0, 96, 62, 0, 0, 124, 0, 0
        DC8 124, 0, 0, 248, 0, 0, 248, 0, 0, 248, 0, 0, 248, 63, 240, 248, 63
        DC8 240, 248, 63, 240, 248, 1, 240, 252, 1, 240, 124, 1, 240, 126, 1
        DC8 240, 63, 1, 240, 31, 131, 240, 15, 255, 240, 7, 255, 240, 1, 255
        DC8 128, 0, 0, 0, 0, 0, 0, 0, 0, 0, 0, 0, 0, 0, 0, 0, 0, 0, 0, 0, 0, 0
        DC8 0, 0, 0, 0, 0, 0, 0, 0, 0, 248, 3, 224, 248, 3, 224, 248, 3, 224
        DC8 248, 3, 224, 248, 3, 224, 248, 3, 224, 248, 3, 224, 248, 3, 224
        DC8 248, 3, 224, 248, 3, 224, 255, 255, 224, 255, 255, 224, 255, 255
        DC8 224, 248, 3, 224, 248, 3, 224, 248, 3, 224, 248, 3, 224, 248, 3
        DC8 224, 248, 3, 224, 248, 3, 224, 248, 3, 224, 248, 3, 224, 248, 3
        DC8 224, 0, 0, 0, 0, 0, 0, 0, 0, 0, 0, 0, 0, 0, 0, 0, 0, 0, 0, 0, 0, 0
        DC8 0, 0, 0, 0, 0, 0, 255, 128, 255, 128, 255, 128, 62, 0, 62, 0, 62, 0
        DC8 62, 0, 62, 0, 62, 0, 62, 0, 62, 0, 62, 0, 62, 0, 62, 0, 62, 0, 62
        DC8 0, 62, 0, 62, 0, 62, 0, 62, 0, 255, 128, 255, 128, 255, 128, 0, 0
        DC8 0, 0, 0, 0, 0, 0, 0, 0, 0, 0, 0, 0, 0, 0, 0, 0, 0, 0, 3, 224, 3
        DC8 224, 3, 224, 3, 224, 3, 224, 3, 224, 3, 224, 3, 224, 3, 224, 3, 224
        DC8 3, 224, 3, 224, 3, 224, 3, 224, 3, 224, 3, 224, 3, 224, 3, 224, 7
        DC8 192, 207, 192, 255, 128, 255, 0, 252, 0, 0, 0, 0, 0, 0, 0, 0, 0, 0
        DC8 0, 0, 0, 0, 0, 0, 0, 0, 0, 0, 0, 0, 0, 0, 248, 31, 128, 248, 31, 0
        DC8 248, 62, 0, 248, 124, 0, 248, 252, 0, 248, 248, 0, 249, 240, 0, 251
        DC8 224, 0, 251, 224, 0, 255, 192, 0, 255, 128, 0, 255, 128, 0, 255
        DC8 192, 0, 255, 224, 0, 251, 224, 0, 249, 240, 0, 249, 248, 0, 248
        DC8 252, 0, 248, 126, 0, 248, 62, 0, 248, 63, 0, 248, 31, 128, 248, 15
        DC8 192, 0, 0, 0, 0, 0, 0, 0, 0, 0, 0, 0, 0, 0, 0, 0, 0, 0, 0, 0, 0, 0
        DC8 0, 0, 0, 0, 0, 0, 248, 0, 248, 0, 248, 0, 248, 0, 248, 0, 248, 0
        DC8 248, 0, 248, 0, 248, 0, 248, 0, 248, 0, 248, 0, 248, 0, 248, 0, 248
        DC8 0, 248, 0, 248, 0, 248, 0, 248, 0, 248, 0, 255, 252, 255, 252, 255
        DC8 252, 0, 0, 0, 0, 0, 0, 0, 0, 0, 0, 0, 0, 0, 0, 0, 0, 0, 0, 0, 0, 0
        DC8 0, 0, 0, 0, 0, 254, 0, 31, 192, 254, 0, 31, 192, 255, 0, 31, 192
        DC8 255, 0, 63, 192, 255, 128, 63, 192, 255, 128, 127, 192, 255, 128
        DC8 127, 192, 255, 192, 127, 192, 251, 192, 255, 192, 251, 192, 247
        DC8 192, 251, 225, 247, 192, 249, 225, 231, 192, 249, 241, 231, 192
        DC8 248, 243, 231, 192, 248, 243, 199, 192, 248, 251, 199, 192, 248
        DC8 127, 135, 192, 248, 127, 135, 192, 248, 127, 135, 192, 248, 63, 7
        DC8 192, 248, 63, 7, 192, 248, 30, 7, 192, 248, 30, 7, 192, 0, 0, 0, 0
        DC8 0, 0, 0, 0, 0, 0, 0, 0, 0, 0, 0, 0, 0, 0, 0, 0, 0, 0, 0, 0, 0, 0, 0
        DC8 0, 0, 0, 0, 0, 0, 0, 0, 0, 0, 252, 0, 248, 254, 0, 248, 254, 0, 248
        DC8 255, 0, 248, 255, 128, 248, 255, 128, 248, 255, 192, 248, 251, 224
        DC8 248, 251, 224, 248, 249, 240, 248, 249, 240, 248, 248, 248, 248
        DC8 248, 124, 248, 248, 124, 248, 248, 62, 248, 248, 31, 248, 248, 31
        DC8 248, 248, 15, 248, 248, 7, 248, 248, 7, 248, 248, 3, 248, 248, 1
        DC8 248, 248, 1, 248, 0, 0, 0, 0, 0, 0, 0, 0, 0, 0, 0, 0, 0, 0, 0, 0, 0
        DC8 0, 0, 0, 0, 0, 0, 0, 0, 0, 0, 0, 0, 0, 0, 255, 0, 7, 255, 192, 15
        DC8 255, 224, 31, 131, 240, 63, 1, 248, 126, 0, 252, 124, 0, 124, 124
        DC8 0, 126, 248, 0, 62, 248, 0, 62, 248, 0, 62, 248, 0, 62, 248, 0, 62
        DC8 248, 0, 62, 248, 0, 62, 252, 0, 124, 124, 0, 124, 126, 0, 252, 63
        DC8 1, 248, 31, 131, 240, 15, 255, 224, 7, 255, 192, 1, 255, 0, 0, 0, 0
        DC8 0, 0, 0, 0, 0, 0, 0, 0, 0, 0, 0, 0, 0, 0, 0, 0, 0, 0, 0, 0, 0, 0, 0
        DC8 0, 255, 224, 255, 248, 255, 252, 248, 126, 248, 63, 248, 31, 248
        DC8 31, 248, 31, 248, 31, 248, 31, 248, 62, 248, 126, 255, 252, 255
        DC8 248, 255, 224, 248, 0, 248, 0, 248, 0, 248, 0, 248, 0, 248, 0, 248
        DC8 0, 248, 0, 0, 0, 0, 0, 0, 0, 0, 0, 0, 0, 0, 0, 0, 0, 0, 0, 0, 0, 0
        DC8 0, 0, 0, 0, 0, 255, 0, 7, 255, 192, 15, 255, 224, 31, 131, 240, 63
        DC8 1, 248, 126, 0, 252, 124, 0, 124, 124, 0, 126, 248, 0, 62, 248, 0
        DC8 62, 248, 0, 62, 248, 0, 62, 248, 0, 62, 248, 0, 62, 248, 0, 62, 252
        DC8 0, 124, 124, 0, 124, 126, 0, 252, 63, 1, 248, 31, 131, 240, 15, 255
        DC8 224, 7, 255, 192, 1, 254, 0, 0, 31, 128, 0, 15, 192, 0, 7, 224, 0
        DC8 3, 255, 0, 1, 255, 0, 0, 127, 0, 0, 0, 0, 0, 0, 0, 0, 0, 0, 0, 0
        DC8 255, 224, 0, 255, 248, 0, 255, 252, 0, 248, 124, 0, 248, 126, 0
        DC8 248, 62, 0, 248, 62, 0, 248, 62, 0, 248, 62, 0, 248, 124, 0, 248
        DC8 252, 0, 255, 248, 0, 255, 224, 0, 255, 224, 0, 249, 240, 0, 248
        DC8 248, 0, 248, 124, 0, 248, 124, 0, 248, 62, 0, 248, 31, 0, 248, 31
        DC8 0, 248, 15, 128, 248, 15, 192, 0, 0, 0, 0, 0, 0, 0, 0, 0, 0, 0, 0
        DC8 0, 0, 0, 0, 0, 0, 0, 0, 0, 0, 0, 0, 0, 0, 0, 7, 248, 63, 252, 127
        DC8 252, 126, 12, 248, 0, 248, 0, 248, 0, 248, 0, 252, 0, 127, 0, 63
        DC8 192, 31, 240, 7, 248, 1, 252, 0, 126, 0, 62, 0, 62, 0, 62, 192, 62
        DC8 240, 252, 255, 252, 255, 248, 63, 224, 0, 0, 0, 0, 0, 0, 0, 0, 0, 0
        DC8 0, 0, 0, 0, 0, 0, 0, 0, 0, 0, 0, 0, 0, 255, 255, 128, 255, 255, 128
        DC8 255, 255, 128, 3, 224, 0, 3, 224, 0, 3, 224, 0, 3, 224, 0, 3, 224
        DC8 0, 3, 224, 0, 3, 224, 0, 3, 224, 0, 3, 224, 0, 3, 224, 0, 3, 224, 0
        DC8 3, 224, 0, 3, 224, 0, 3, 224, 0, 3, 224, 0, 3, 224, 0, 3, 224, 0, 3
        DC8 224, 0, 3, 224, 0, 3, 224, 0, 0, 0, 0, 0, 0, 0, 0, 0, 0, 0, 0, 0, 0
        DC8 0, 0, 0, 0, 0, 0, 0, 0, 0, 0, 0, 0, 0, 0, 0, 0, 0, 248, 3, 224, 248
        DC8 3, 224, 248, 3, 224, 248, 3, 224, 248, 3, 224, 248, 3, 224, 248, 3
        DC8 224, 248, 3, 224, 248, 3, 224, 248, 3, 224, 248, 3, 224, 248, 3
        DC8 224, 248, 3, 224, 248, 3, 224, 248, 3, 224, 248, 3, 224, 248, 3
        DC8 224, 252, 7, 192, 124, 7, 192, 127, 31, 192, 63, 255, 128, 31, 255
        DC8 0, 7, 252, 0, 0, 0, 0, 0, 0, 0, 0, 0, 0, 0, 0, 0, 0, 0, 0, 0, 0, 0
        DC8 0, 0, 0, 0, 0, 0, 0, 0, 0, 0, 0, 0, 248, 0, 124, 124, 0, 120, 124
        DC8 0, 248, 124, 0, 248, 62, 1, 240, 62, 1, 240, 62, 1, 240, 31, 3, 224
        DC8 31, 3, 224, 31, 3, 224, 15, 135, 192, 15, 135, 192, 15, 135, 128, 7
        DC8 207, 128, 7, 207, 128, 3, 207, 0, 3, 255, 0, 3, 255, 0, 1, 254, 0
        DC8 1, 254, 0, 1, 254, 0, 0, 252, 0, 0, 252, 0, 0, 0, 0, 0, 0, 0, 0, 0
        DC8 0, 0, 0, 0, 0, 0, 0, 0, 0, 0, 0, 0, 0, 0, 0, 0, 0, 0, 0, 0, 0, 0, 0
        DC8 0, 0, 248, 3, 224, 31, 252, 3, 224, 31, 124, 7, 224, 62, 124, 7
        DC8 240, 62, 124, 7, 240, 62, 62, 15, 240, 60, 62, 15, 240, 124, 62, 15
        DC8 248, 124, 62, 15, 248, 124, 31, 30, 120, 120, 31, 30, 124, 120, 31
        DC8 30, 124, 248, 15, 62, 60, 248, 15, 188, 60, 240, 15, 188, 62, 240
        DC8 15, 188, 63, 240, 7, 252, 31, 224, 7, 248, 31, 224, 7, 248, 31, 224
        DC8 7, 248, 31, 224, 3, 240, 15, 192, 3, 240, 15, 192, 3, 240, 15, 192
        DC8 0, 0, 0, 0, 0, 0, 0, 0, 0, 0, 0, 0, 0, 0, 0, 0, 0, 0, 0, 0, 0, 0, 0
        DC8 0, 0, 0, 0, 0, 0, 0, 0, 0, 0, 0, 0, 0, 0, 126, 1, 248, 62, 1, 240
        DC8 31, 3, 224, 31, 131, 224, 15, 135, 192, 15, 199, 192, 7, 207, 128
        DC8 3, 255, 0, 3, 255, 0, 1, 254, 0, 1, 252, 0, 0, 252, 0, 1, 254, 0, 1
        DC8 254, 0, 3, 255, 0, 7, 223, 0, 15, 143, 128, 15, 143, 192, 31, 7
        DC8 192, 63, 7, 224, 62, 3, 224, 126, 1, 240, 252, 1, 248, 0, 0, 0, 0
        DC8 0, 0, 0, 0, 0, 0, 0, 0, 0, 0, 0, 0, 0, 0, 0, 0, 0, 0, 0, 0, 0, 0, 0
        DC8 0, 0, 0, 248, 3, 224, 124, 7, 192, 124, 7, 192, 62, 7, 128, 62, 15
        DC8 128, 31, 15, 0, 31, 31, 0, 31, 31, 0, 15, 190, 0, 15, 190, 0, 7
        DC8 252, 0, 7, 252, 0, 3, 248, 0, 3, 248, 0, 1, 240, 0, 1, 240, 0, 1
        DC8 240, 0, 1, 240, 0, 1, 240, 0, 1, 240, 0, 1, 240, 0, 1, 240, 0, 1
        DC8 240, 0, 0, 0, 0, 0, 0, 0, 0, 0, 0, 0, 0, 0, 0, 0, 0, 0, 0, 0, 0, 0
        DC8 0, 0, 0, 0, 0, 0, 0, 0, 0, 0, 127, 255, 192, 127, 255, 192, 127
        DC8 255, 128, 0, 15, 128, 0, 31, 0, 0, 62, 0, 0, 62, 0, 0, 124, 0, 0
        DC8 252, 0, 0, 248, 0, 1, 240, 0, 3, 240, 0, 3, 224, 0, 7, 192, 0, 15
        DC8 192, 0, 15, 128, 0, 31, 0, 0, 31, 0, 0, 62, 0, 0, 124, 0, 0, 127
        DC8 255, 192, 255, 255, 192, 255, 255, 192, 0, 0, 0, 0, 0, 0, 0, 0, 0
        DC8 0, 0, 0, 0, 0, 0, 0, 0, 0, 0, 0, 0, 0, 0, 0, 254, 254, 240, 240
        DC8 240, 240, 240, 240, 240, 240, 240, 240, 240, 240, 240, 240, 240
        DC8 240, 240, 240, 240, 240, 240, 240, 240, 240, 254, 254, 0, 0, 0, 0
        DC8 0, 0, 0, 0, 248, 0, 120, 0, 120, 0, 124, 0, 60, 0, 62, 0, 30, 0, 30
        DC8 0, 31, 0, 15, 0, 15, 0, 7, 128, 7, 128, 7, 192, 3, 192, 3, 192, 1
        DC8 224, 1, 224, 1, 240, 0, 240, 0, 240, 0, 120, 0, 120, 0, 124, 0, 60
        DC8 0, 60, 0, 30, 0, 0, 0, 0, 0, 0, 0, 0, 0, 254, 254, 30, 30, 30, 30
        DC8 30, 30, 30, 30, 30, 30, 30, 30, 30, 30, 30, 30, 30, 30, 30, 30, 30
        DC8 30, 30, 30, 254, 254, 0, 0, 0, 0, 0, 0, 0, 0, 0, 0, 0, 1, 192, 0, 3
        DC8 192, 0, 3, 224, 0, 7, 240, 0, 15, 240, 0, 15, 120, 0, 30, 120, 0
        DC8 30, 60, 0, 60, 60, 0, 60, 30, 0, 120, 15, 0, 120, 15, 0, 240, 7
        DC8 128, 0, 0, 0, 0, 0, 0, 0, 0, 0, 0, 0, 0, 0, 0, 0, 0, 0, 0, 0, 0, 0
        DC8 0, 0, 0, 0, 0, 0, 0, 0, 0, 0, 0, 0, 0, 0, 0, 0, 0, 0, 0, 0, 0, 0, 0
        DC8 0, 0, 0, 0, 0, 0, 0, 0, 0, 0, 0, 0, 0, 0, 0, 0, 0, 0, 0, 0, 0, 0, 0
        DC8 0, 0, 0, 0, 0, 0, 0, 0, 0, 0, 0, 0, 0, 0, 0, 0, 0, 0, 0, 0, 0, 0, 0
        DC8 0, 0, 0, 0, 0, 0, 0, 0, 0, 0, 0, 0, 0, 0, 0, 0, 0, 0, 0, 255, 252
        DC8 255, 252, 0, 0, 0, 0, 0, 0, 248, 124, 60, 30, 15, 0, 0, 0, 0, 0, 0
        DC8 0, 0, 0, 0, 0, 0, 0, 0, 0, 0, 0, 0, 0, 0, 0, 0, 0, 0, 0, 0, 0, 0, 0
        DC8 0, 0, 0, 0, 0, 0, 0, 0, 0, 0, 0, 0, 0, 0, 0, 0, 0, 15, 240, 63, 252
        DC8 63, 252, 56, 126, 48, 62, 0, 62, 3, 254, 63, 254, 126, 62, 248, 62
        DC8 248, 62, 248, 126, 252, 254, 255, 254, 127, 254, 63, 62, 0, 0, 0, 0
        DC8 0, 0, 0, 0, 0, 0, 0, 0, 0, 0, 0, 0, 0, 0, 0, 0, 248, 0, 0, 248, 0
        DC8 0, 248, 0, 0, 248, 0, 0, 248, 0, 0, 248, 0, 0, 248, 0, 0, 248, 0, 0
        DC8 249, 248, 0, 255, 254, 0, 255, 255, 0, 254, 63, 0, 252, 31, 128
        DC8 248, 15, 128, 248, 15, 128, 248, 15, 128, 248, 15, 128, 248, 15
        DC8 128, 248, 15, 128, 252, 31, 0, 254, 63, 0, 255, 254, 0, 255, 252, 0
        DC8 251, 248, 0, 0, 0, 0, 0, 0, 0, 0, 0, 0, 0, 0, 0, 0, 0, 0, 0, 0, 0
        DC8 0, 0, 0, 0, 0, 0, 0, 0, 0, 0, 0, 0, 0, 0, 0, 0, 0, 0, 0, 0, 0, 0, 0
        DC8 3, 248, 31, 252, 63, 252, 127, 12, 124, 0, 252, 0, 248, 0, 248, 0
        DC8 248, 0, 248, 0, 252, 0, 124, 0, 127, 12, 63, 252, 31, 252, 7, 248
        DC8 0, 0, 0, 0, 0, 0, 0, 0, 0, 0, 0, 0, 0, 0, 0, 0, 0, 0, 0, 0, 0, 15
        DC8 128, 0, 15, 128, 0, 15, 128, 0, 15, 128, 0, 15, 128, 0, 15, 128, 0
        DC8 15, 128, 0, 15, 128, 15, 239, 128, 31, 255, 128, 63, 255, 128, 126
        DC8 63, 128, 124, 31, 128, 248, 15, 128, 248, 15, 128, 248, 15, 128
        DC8 248, 15, 128, 248, 15, 128, 248, 15, 128, 252, 31, 128, 126, 63
        DC8 128, 127, 255, 128, 63, 255, 128, 15, 207, 128, 0, 0, 0, 0, 0, 0, 0
        DC8 0, 0, 0, 0, 0, 0, 0, 0, 0, 0, 0, 0, 0, 0, 0, 0, 0, 0, 0, 0, 0, 0, 0
        DC8 0, 0, 0, 0, 0, 0, 0, 0, 0, 0, 0, 7, 240, 31, 252, 63, 254, 126, 62
        DC8 124, 31, 248, 31, 255, 255, 255, 255, 255, 255, 248, 0, 248, 0, 124
        DC8 0, 126, 6, 63, 254, 31, 254, 7, 248, 0, 0, 0, 0, 0, 0, 0, 0, 0, 0
        DC8 0, 0, 0, 0, 0, 0, 0, 0, 3, 240, 7, 240, 15, 240, 31, 128, 31, 0, 31
        DC8 0, 31, 0, 31, 0, 255, 224, 255, 224, 255, 224, 31, 0, 31, 0, 31, 0
        DC8 31, 0, 31, 0, 31, 0, 31, 0, 31, 0, 31, 0, 31, 0, 31, 0, 31, 0, 31
        DC8 0, 0, 0, 0, 0, 0, 0, 0, 0, 0, 0, 0, 0, 0, 0, 0, 0, 0, 0, 0, 0, 0, 0
        DC8 0, 0, 0, 0, 0, 0, 0, 0, 0, 0, 0, 0, 0, 0, 0, 0, 0, 0, 0, 0, 0, 0
        DC8 15, 239, 128, 31, 255, 128, 63, 255, 128, 126, 63, 128, 124, 31
        DC8 128, 248, 15, 128, 248, 15, 128, 248, 15, 128, 248, 15, 128, 248
        DC8 15, 128, 248, 15, 128, 252, 31, 128, 126, 63, 128, 127, 255, 128
        DC8 63, 255, 128, 15, 207, 128, 0, 15, 128, 0, 31, 128, 0, 31, 0, 112
        DC8 127, 0, 127, 254, 0, 127, 252, 0, 63, 240, 0, 0, 0, 0, 0, 248, 0
        DC8 248, 0, 248, 0, 248, 0, 248, 0, 248, 0, 248, 0, 248, 0, 249, 248
        DC8 255, 254, 255, 254, 254, 63, 252, 63, 248, 31, 248, 31, 248, 31
        DC8 248, 31, 248, 31, 248, 31, 248, 31, 248, 31, 248, 31, 248, 31, 248
        DC8 31, 0, 0, 0, 0, 0, 0, 0, 0, 0, 0, 0, 0, 0, 0, 0, 0, 0, 112, 248
        DC8 248, 112, 0, 0, 0, 248, 248, 248, 248, 248, 248, 248, 248, 248, 248
        DC8 248, 248, 248, 248, 248, 248, 0, 0, 0, 0, 0, 0, 0, 0, 0, 0, 0, 0, 0
        DC8 3, 128, 7, 192, 7, 192, 3, 128, 0, 0, 0, 0, 0, 0, 7, 192, 7, 192, 7
        DC8 192, 7, 192, 7, 192, 7, 192, 7, 192, 7, 192, 7, 192, 7, 192, 7, 192
        DC8 7, 192, 7, 192, 7, 192, 7, 192, 7, 192, 7, 192, 7, 192, 15, 192
        DC8 207, 128, 255, 128, 255, 0, 252, 0, 0, 0, 0, 0, 248, 0, 248, 0, 248
        DC8 0, 248, 0, 248, 0, 248, 0, 248, 0, 248, 0, 248, 126, 248, 252, 248
        DC8 248, 249, 240, 251, 224, 255, 224, 255, 192, 255, 128, 255, 128
        DC8 255, 192, 251, 224, 249, 240, 248, 248, 248, 252, 248, 126, 248, 63
        DC8 0, 0, 0, 0, 0, 0, 0, 0, 0, 0, 0, 0, 0, 0, 0, 0, 248, 248, 248, 248
        DC8 248, 248, 248, 248, 248, 248, 248, 248, 248, 248, 248, 248, 248
        DC8 248, 248, 248, 248, 248, 248, 248, 0, 0, 0, 0, 0, 0, 0, 0, 0, 0, 0
        DC8 0, 0, 0, 0, 0, 0, 0, 0, 0, 0, 0, 0, 0, 0, 0, 0, 0, 0, 0, 0, 0, 0, 0
        DC8 0, 0, 0, 0, 0, 0, 0, 0, 0, 0, 0, 0, 0, 249, 240, 252, 0, 255, 249
        DC8 255, 0, 255, 255, 255, 0, 254, 127, 159, 128, 252, 63, 15, 128, 248
        DC8 62, 15, 128, 248, 62, 15, 128, 248, 62, 15, 128, 248, 62, 15, 128
        DC8 248, 62, 15, 128, 248, 62, 15, 128, 248, 62, 15, 128, 248, 62, 15
        DC8 128, 248, 62, 15, 128, 248, 62, 15, 128, 248, 62, 15, 128, 0, 0, 0
        DC8 0, 0, 0, 0, 0, 0, 0, 0, 0, 0, 0, 0, 0, 0, 0, 0, 0, 0, 0, 0, 0, 0, 0
        DC8 0, 0, 0, 0, 0, 0, 0, 0, 0, 0, 0, 0, 0, 0, 0, 0, 0, 0, 0, 0, 0, 0
        DC8 249, 248, 255, 252, 255, 254, 254, 63, 252, 63, 248, 31, 248, 31
        DC8 248, 31, 248, 31, 248, 31, 248, 31, 248, 31, 248, 31, 248, 31, 248
        DC8 31, 248, 31, 0, 0, 0, 0, 0, 0, 0, 0, 0, 0, 0, 0, 0, 0, 0, 0, 0, 0
        DC8 0, 0, 0, 0, 0, 0, 0, 0, 0, 0, 0, 0, 0, 0, 0, 0, 0, 0, 0, 0, 0, 0, 0
        DC8 0, 0, 0, 7, 248, 0, 31, 254, 0, 63, 255, 0, 126, 31, 128, 124, 15
        DC8 128, 248, 7, 192, 248, 7, 192, 248, 7, 192, 248, 7, 192, 248, 7
        DC8 192, 248, 7, 192, 124, 15, 128, 126, 31, 128, 63, 255, 0, 31, 254
        DC8 0, 7, 248, 0, 0, 0, 0, 0, 0, 0, 0, 0, 0, 0, 0, 0, 0, 0, 0, 0, 0, 0
        DC8 0, 0, 0, 0, 0, 0, 0, 0, 0, 0, 0, 0, 0, 0, 0, 0, 0, 0, 0, 0, 0, 0, 0
        DC8 0, 0, 0, 0, 0, 0, 0, 0, 0, 0, 249, 248, 0, 255, 254, 0, 255, 255, 0
        DC8 254, 63, 0, 252, 31, 128, 248, 15, 128, 248, 15, 128, 248, 15, 128
        DC8 248, 15, 128, 248, 15, 128, 248, 15, 128, 252, 31, 0, 254, 63, 0
        DC8 255, 254, 0, 255, 252, 0, 251, 248, 0, 248, 0, 0, 248, 0, 0, 248, 0
        DC8 0, 248, 0, 0, 248, 0, 0, 248, 0, 0, 248, 0, 0, 0, 0, 0, 0, 0, 0, 0
        DC8 0, 0, 0, 0, 0, 0, 0, 0, 0, 0, 0, 0, 0, 0, 0, 0, 0, 0, 0, 0, 0, 0, 0
        DC8 15, 239, 128, 31, 255, 128, 63, 255, 128, 126, 63, 128, 124, 31
        DC8 128, 248, 15, 128, 248, 15, 128, 248, 15, 128, 248, 15, 128, 248
        DC8 15, 128, 248, 15, 128, 252, 31, 128, 126, 63, 128, 127, 255, 128
        DC8 63, 255, 128, 15, 207, 128, 0, 15, 128, 0, 15, 128, 0, 15, 128, 0
        DC8 15, 128, 0, 15, 128, 0, 15, 128, 0, 15, 128, 0, 0, 0, 0, 0, 0, 0, 0
        DC8 0, 0, 0, 0, 0, 0, 0, 0, 0, 0, 0, 0, 251, 224, 255, 224, 255, 224
        DC8 254, 0, 252, 0, 252, 0, 248, 0, 248, 0, 248, 0, 248, 0, 248, 0, 248
        DC8 0, 248, 0, 248, 0, 248, 0, 248, 0, 0, 0, 0, 0, 0, 0, 0, 0, 0, 0, 0
        DC8 0, 0, 0, 0, 0, 0, 0, 0, 0, 0, 0, 0, 0, 0, 0, 0, 0, 0, 0, 0, 0, 0, 0
        DC8 15, 224, 63, 240, 127, 240, 252, 48, 248, 0, 248, 0, 255, 0, 127
        DC8 192, 31, 240, 3, 248, 0, 248, 192, 248, 225, 248, 255, 240, 255
        DC8 224, 127, 128, 0, 0, 0, 0, 0, 0, 0, 0, 0, 0, 0, 0, 0, 0, 0, 0, 0, 0
        DC8 0, 0, 0, 0, 0, 0, 7, 0, 31, 0, 31, 0, 31, 0, 31, 0, 255, 240, 255
        DC8 240, 255, 240, 31, 0, 31, 0, 31, 0, 31, 0, 31, 0, 31, 0, 31, 0, 31
        DC8 0, 31, 0, 31, 128, 31, 240, 15, 240, 7, 240, 0, 0, 0, 0, 0, 0, 0, 0
        DC8 0, 0, 0, 0, 0, 0, 0, 0, 0, 0, 0, 0, 0, 0, 0, 0, 0, 0, 0, 0, 0, 0, 0
        DC8 0, 0, 0, 248, 31, 248, 31, 248, 31, 248, 31, 248, 31, 248, 31, 248
        DC8 31, 248, 31, 248, 31, 248, 31, 248, 31, 252, 63, 252, 127, 127, 255
        DC8 63, 255, 31, 159, 0, 0, 0, 0, 0, 0, 0, 0, 0, 0, 0, 0, 0, 0, 0, 0, 0
        DC8 0, 0, 0, 0, 0, 0, 0, 0, 0, 0, 0, 0, 0, 0, 0, 0, 0, 0, 0, 0, 0, 0, 0
        DC8 0, 0, 0, 0, 248, 15, 128, 120, 15, 0, 124, 31, 0, 124, 31, 0, 60
        DC8 30, 0, 62, 62, 0, 62, 60, 0, 30, 60, 0, 31, 124, 0, 31, 120, 0, 15
        DC8 120, 0, 15, 248, 0, 7, 240, 0, 7, 240, 0, 7, 224, 0, 3, 224, 0, 0
        DC8 0, 0, 0, 0, 0, 0, 0, 0, 0, 0, 0, 0, 0, 0, 0, 0, 0, 0, 0, 0, 0, 0, 0
        DC8 0, 0, 0, 0, 0, 0, 0, 0, 0, 0, 0, 0, 0, 0, 0, 0, 0, 0, 0, 0, 0, 0, 0
        DC8 0, 0, 0, 0, 0, 0, 0, 0, 0, 0, 0, 0, 0, 0, 248, 62, 15, 128, 248, 62
        DC8 15, 128, 120, 63, 15, 0, 124, 63, 15, 0, 124, 127, 31, 0, 60, 127
        DC8 30, 0, 60, 119, 158, 0, 62, 247, 158, 0, 30, 247, 188, 0, 30, 243
        DC8 252, 0, 31, 227, 252, 0, 31, 227, 252, 0, 15, 227, 248, 0, 15, 193
        DC8 248, 0, 15, 193, 248, 0, 7, 193, 240, 0, 0, 0, 0, 0, 0, 0, 0, 0, 0
        DC8 0, 0, 0, 0, 0, 0, 0, 0, 0, 0, 0, 0, 0, 0, 0, 0, 0, 0, 0, 0, 0, 0, 0
        DC8 0, 0, 0, 0, 0, 0, 0, 0, 0, 0, 0, 0, 0, 0, 0, 0, 0, 0, 0, 0, 0, 0, 0
        DC8 0, 0, 0, 124, 15, 128, 124, 31, 0, 62, 62, 0, 63, 62, 0, 31, 124, 0
        DC8 15, 248, 0, 15, 248, 0, 7, 240, 0, 7, 240, 0, 7, 248, 0, 15, 248, 0
        DC8 31, 124, 0, 62, 62, 0, 62, 62, 0, 124, 31, 0, 252, 31, 128, 0, 0, 0
        DC8 0, 0, 0, 0, 0, 0, 0, 0, 0, 0, 0, 0, 0, 0, 0, 0, 0, 0, 0, 0, 0, 0, 0
        DC8 0, 0, 0, 0, 0, 0, 0, 0, 0, 0, 0, 0, 0, 0, 0, 0, 0, 0, 0, 0, 0, 0, 0
        DC8 0, 0, 248, 15, 128, 120, 15, 0, 124, 15, 0, 124, 31, 0, 60, 30, 0
        DC8 62, 62, 0, 30, 60, 0, 30, 60, 0, 31, 124, 0, 15, 120, 0, 15, 120, 0
        DC8 7, 248, 0, 7, 240, 0, 7, 240, 0, 3, 224, 0, 3, 224, 0, 3, 224, 0, 3
        DC8 192, 0, 7, 192, 0, 15, 128, 0, 127, 128, 0, 127, 0, 0, 124, 0, 0, 0
        DC8 0, 0, 0, 0, 0, 0, 0, 0, 0, 0, 0, 0, 0, 0, 0, 0, 0, 0, 0, 127, 254
        DC8 127, 254, 127, 252, 0, 124, 0, 248, 1, 240, 3, 224, 3, 192, 7, 192
        DC8 15, 128, 31, 0, 62, 0, 62, 0, 127, 254, 255, 254, 255, 254, 0, 0, 0
        DC8 0, 0, 0, 0, 0, 0, 0, 0, 0, 0, 0, 0, 0, 0, 15, 31, 62, 60, 60, 60
        DC8 60, 60, 60, 60, 60, 60, 120, 240, 240, 120, 60, 60, 60, 60, 60, 60
        DC8 60, 60, 60, 62, 31, 15, 0, 0, 0, 0, 240, 240, 240, 240, 240, 240
        DC8 240, 240, 240, 240, 240, 240, 240, 240, 240, 240, 240, 240, 240
        DC8 240, 240, 240, 240, 240, 240, 240, 240, 240, 240, 240, 240, 0, 0, 0
        DC8 0, 0, 0, 240, 0, 252, 0, 60, 0, 30, 0, 30, 0, 30, 0, 30, 0, 30, 0
        DC8 30, 0, 30, 0, 30, 0, 30, 0, 15, 0, 7, 128, 7, 128, 15, 0, 30, 0, 30
        DC8 0, 30, 0, 30, 0, 30, 0, 30, 0, 30, 0, 30, 0, 30, 0, 60, 0, 252, 0
        DC8 240, 0, 0, 0, 0, 0, 0, 0, 0, 0, 0, 0, 0, 0, 0, 0, 0, 0, 0, 0, 0, 0
        DC8 0, 0, 0, 0, 0, 0, 0, 0, 0, 0, 0, 0, 0, 0, 0, 0, 0, 0, 0, 0, 0, 0, 0
        DC8 0, 0, 0, 62, 7, 128, 127, 135, 128, 127, 239, 128, 249, 255, 0, 240
        DC8 255, 0, 240, 62, 0, 0, 0, 0, 0, 0, 0, 0, 0, 0, 0, 0, 0, 0, 0, 0, 0
        DC8 0, 0, 0, 0, 0, 0, 0, 0, 0, 0, 0, 0, 0, 0, 0, 0, 0, 0, 0, 0, 0, 0, 0
        DC8 0, 0, 0

        SECTION `.rodata`:CONST:REORDER:NOROOT(2)
        DATA
// static __absolute tFontDescriptor const segoeUISemibold_24ptDescriptors[94]
segoeUISemibold_24ptDescriptors:
        DATA16
        DC16 6, 0, 10, 33, 18, 99, 15, 198, 25, 264, 24, 396, 5, 495, 10, 528
        DC16 10, 594, 12, 660, 16, 726, 6, 792, 10, 825, 6, 891, 16, 924, 17
        DC16 990, 13, 1'089, 15, 1'155, 15, 1'221, 19, 1'287, 15, 1'386, 16
        DC16 1'452, 17, 1'518, 17, 1'617, 17, 1'716, 6, 1'815, 7, 1'848, 15
        DC16 1'881, 16, 1'947, 15, 2'013, 13, 2'079, 27, 2'145, 22, 2'277, 16
        DC16 2'376, 18, 2'442, 20, 2'541, 14, 2'640, 13, 2'706, 20, 2'772, 19
        DC16 2'871, 9, 2'970, 11, 3'036, 18, 3'102, 14, 3'201, 26, 3'267, 21
        DC16 3'399, 23, 3'498, 16, 3'597, 24, 3'663, 18, 3'762, 15, 3'861, 17
        DC16 3'927, 19, 4'026, 22, 4'125, 32, 4'224, 21, 4'356, 19, 4'455, 18
        DC16 4'554, 7, 4'653, 15, 4'686, 7, 4'752, 17, 4'785, 14, 4'884, 8
        DC16 4'950, 15, 4'983, 17, 5'049, 14, 5'148, 17, 5'214, 16, 5'313, 12
        DC16 5'379, 17, 5'445, 16, 5'544, 5, 5'610, 10, 5'643, 16, 5'709, 5
        DC16 5'775, 25, 5'808, 16, 5'940, 18, 6'006, 17, 6'105, 17, 6'204, 11
        DC16 6'303, 13, 6'369, 12, 6'435, 16, 6'501, 17, 6'567, 25, 6'666, 17
        DC16 6'798, 17, 6'897, 15, 6'996, 8, 7'062, 4, 7'095, 9, 7'128, 17
        DC16 7'194

        SECTION `.rodata`:CONST:REORDER:NOROOT(2)
        DATA
// static __absolute tFont const segoeUISemibold_24ptFontInfo
segoeUISemibold_24ptFontInfo:
        DATA8
        DC8 33, 33, 0, 0
        DATA32
        DC32 126
        DATA8
        DC8 2, 0, 0, 0
        DATA32
        DC32 segoeUISemibold_24ptDescriptors, segoeUISemibold_24ptBitmaps

        SECTION `.rodata`:CONST:REORDER:NOROOT(2)
        DATA
// static __absolute std::array<uint8_t, 15000U> const susuWallPaper
susuWallPaper:
        DATA8
        DC8 255, 255, 255, 255, 255, 255, 255, 255, 255, 255, 255, 255, 255
        DC8 255, 255, 255, 255, 255, 255, 255, 255, 255, 255, 255, 255, 255
        DC8 255, 255, 255, 255, 255, 255, 255, 255, 255, 255, 255, 255, 255
        DC8 255, 255, 255, 255, 255, 255, 255, 255, 255, 255, 255, 255, 255
        DC8 255, 255, 255, 255, 255, 255, 255, 255, 255, 255, 255, 255, 255
        DC8 255, 255, 255, 255, 255, 255, 255, 255, 255, 255, 255, 255, 255
        DC8 255, 255, 255, 255, 255, 255, 255, 255, 255, 255, 255, 255, 255
        DC8 255, 255, 255, 255, 255, 255, 255, 255, 255, 255, 255, 255, 255
        DC8 255, 255, 255, 255, 255, 255, 255, 255, 255, 255, 255, 255, 255
        DC8 255, 255, 255, 255, 255, 255, 255, 255, 255, 255, 255, 255, 255
        DC8 255, 255, 255, 255, 255, 255, 255, 255, 255, 255, 255, 255, 255
        DC8 255, 255, 255, 255, 255, 255, 255, 192, 0, 0, 0, 0, 0, 0, 0, 0, 0
        DC8 0, 0, 0, 0, 0, 0, 0, 0, 0, 0, 0, 0, 0, 0, 0, 0, 0, 0, 0, 0, 0, 0, 0
        DC8 0, 0, 0, 0, 0, 0, 0, 0, 0, 0, 0, 0, 0, 0, 0, 0, 3, 192, 0, 0, 0, 0
        DC8 0, 0, 0, 0, 0, 0, 0, 0, 0, 0, 0, 0, 0, 0, 0, 0, 0, 0, 0, 0, 0, 0, 0
        DC8 0, 0, 0, 0, 0, 0, 0, 0, 0, 0, 0, 0, 0, 0, 0, 0, 0, 0, 0, 0, 0, 3
        DC8 192, 0, 0, 0, 0, 0, 0, 0, 0, 0, 0, 0, 0, 0, 0, 0, 0, 0, 0, 0, 0, 0
        DC8 0, 0, 0, 0, 0, 0, 0, 0, 0, 0, 0, 0, 0, 0, 0, 0, 0, 0, 0, 0, 0, 0, 0
        DC8 0, 0, 0, 0, 3, 192, 0, 0, 0, 0, 0, 0, 0, 0, 0, 0, 0, 0, 0, 0, 0, 0
        DC8 0, 0, 0, 0, 0, 0, 0, 0, 0, 0, 0, 0, 0, 0, 0, 0, 0, 0, 0, 0, 0, 0, 0
        DC8 0, 0, 0, 0, 0, 0, 0, 0, 0, 3, 192, 0, 0, 0, 0, 0, 0, 0, 0, 0, 0, 0
        DC8 0, 0, 0, 0, 0, 0, 0, 0, 0, 0, 0, 0, 0, 0, 0, 0, 0, 0, 0, 0, 0, 0, 0
        DC8 0, 0, 0, 0, 0, 0, 0, 0, 0, 0, 0, 0, 0, 0, 3, 192, 0, 0, 0, 0, 0, 0
        DC8 0, 0, 0, 0, 0, 0, 0, 0, 0, 0, 0, 0, 0, 0, 0, 0, 0, 0, 0, 0, 0, 0, 0
        DC8 0, 0, 0, 0, 0, 0, 0, 0, 0, 0, 0, 0, 0, 0, 0, 0, 0, 0, 0, 3, 192, 0
        DC8 0, 0, 0, 0, 0, 0, 0, 0, 0, 0, 0, 0, 0, 0, 0, 0, 0, 0, 0, 0, 0, 0, 0
        DC8 0, 0, 0, 0, 0, 0, 0, 0, 0, 0, 0, 0, 0, 0, 0, 0, 0, 0, 0, 0, 0, 0, 0
        DC8 0, 3, 192, 0, 0, 0, 0, 0, 0, 0, 0, 0, 0, 0, 0, 0, 0, 0, 0, 0, 0, 0
        DC8 0, 0, 0, 0, 0, 0, 0, 0, 0, 0, 0, 0, 0, 0, 0, 0, 0, 0, 0, 0, 0, 0, 0
        DC8 0, 0, 0, 0, 0, 0, 3, 192, 0, 0, 0, 0, 0, 0, 0, 0, 0, 0, 0, 0, 0, 0
        DC8 0, 0, 0, 0, 0, 0, 0, 0, 0, 0, 0, 0, 0, 0, 0, 0, 0, 0, 0, 0, 0, 0, 0
        DC8 0, 0, 0, 0, 0, 0, 0, 0, 0, 0, 0, 3, 192, 0, 0, 0, 0, 0, 0, 0, 0, 0
        DC8 0, 0, 0, 0, 0, 0, 0, 0, 0, 0, 0, 0, 0, 0, 0, 0, 0, 0, 0, 0, 0, 0, 0
        DC8 0, 0, 0, 0, 0, 0, 0, 0, 0, 0, 0, 0, 0, 0, 0, 0, 3, 192, 0, 0, 0, 0
        DC8 0, 0, 0, 0, 0, 0, 0, 0, 0, 0, 0, 0, 0, 0, 0, 0, 0, 0, 0, 0, 0, 0, 0
        DC8 0, 0, 0, 0, 0, 0, 0, 0, 0, 0, 0, 0, 0, 0, 0, 0, 0, 0, 0, 0, 0, 3
        DC8 192, 0, 0, 0, 0, 0, 0, 0, 0, 0, 0, 0, 0, 0, 0, 0, 0, 0, 0, 0, 0, 0
        DC8 0, 0, 0, 0, 0, 0, 0, 0, 0, 0, 0, 0, 0, 0, 0, 0, 0, 0, 0, 0, 0, 0, 0
        DC8 0, 0, 0, 0, 3, 192, 0, 0, 0, 0, 0, 0, 0, 0, 0, 0, 0, 0, 0, 0, 0, 0
        DC8 0, 0, 0, 0, 0, 0, 0, 0, 0, 0, 0, 0, 0, 0, 0, 0, 0, 0, 0, 0, 0, 0, 0
        DC8 0, 0, 0, 0, 0, 0, 0, 0, 0, 3, 192, 0, 0, 0, 0, 0, 0, 0, 0, 0, 0, 0
        DC8 0, 0, 0, 0, 0, 0, 0, 0, 0, 0, 0, 0, 0, 0, 0, 0, 0, 0, 0, 0, 0, 0, 0
        DC8 0, 0, 0, 0, 0, 0, 0, 0, 0, 0, 0, 0, 0, 0, 3, 192, 0, 0, 0, 0, 0, 0
        DC8 0, 0, 0, 0, 0, 0, 0, 0, 0, 0, 0, 0, 0, 0, 0, 0, 0, 0, 0, 0, 0, 0, 0
        DC8 0, 0, 0, 0, 0, 0, 0, 0, 0, 0, 0, 0, 0, 0, 0, 0, 0, 0, 0, 3, 192, 0
        DC8 0, 0, 0, 0, 0, 0, 0, 0, 0, 0, 0, 0, 0, 0, 0, 0, 0, 0, 0, 0, 0, 0, 0
        DC8 0, 0, 0, 0, 0, 0, 0, 0, 0, 0, 0, 0, 0, 0, 0, 0, 0, 0, 0, 0, 0, 0, 0
        DC8 0, 3, 192, 0, 0, 0, 0, 0, 0, 0, 0, 0, 0, 0, 0, 0, 0, 0, 0, 0, 0, 0
        DC8 0, 0, 0, 0, 0, 0, 0, 0, 0, 0, 0, 0, 0, 0, 0, 0, 0, 0, 0, 0, 0, 0, 0
        DC8 0, 0, 0, 0, 0, 0, 3, 192, 0, 0, 0, 0, 0, 0, 0, 0, 0, 0, 0, 0, 0, 0
        DC8 0, 0, 0, 0, 0, 0, 0, 0, 0, 0, 0, 0, 0, 0, 0, 0, 0, 0, 0, 0, 0, 0, 0
        DC8 0, 0, 0, 0, 0, 0, 0, 0, 0, 0, 0, 3, 192, 0, 0, 0, 0, 0, 0, 0, 0, 0
        DC8 0, 0, 0, 0, 0, 0, 0, 0, 0, 0, 0, 0, 0, 0, 0, 0, 0, 0, 0, 0, 0, 0, 0
        DC8 0, 0, 0, 0, 0, 0, 0, 0, 0, 0, 0, 0, 0, 0, 0, 0, 3, 192, 0, 0, 0, 0
        DC8 0, 0, 0, 0, 0, 0, 0, 0, 0, 0, 0, 0, 0, 0, 0, 0, 0, 0, 0, 0, 0, 0, 0
        DC8 0, 0, 0, 0, 0, 0, 0, 0, 0, 0, 0, 0, 0, 0, 0, 0, 0, 0, 0, 0, 0, 3
        DC8 192, 0, 0, 0, 0, 0, 0, 0, 0, 0, 0, 0, 0, 0, 0, 0, 0, 0, 0, 0, 0, 0
        DC8 0, 0, 0, 0, 0, 0, 0, 0, 0, 0, 0, 0, 0, 0, 0, 0, 0, 0, 0, 0, 0, 0, 0
        DC8 0, 0, 0, 0, 3, 192, 0, 0, 0, 0, 0, 0, 0, 0, 0, 0, 0, 0, 0, 0, 0, 0
        DC8 0, 0, 0, 0, 0, 0, 0, 0, 0, 0, 0, 0, 0, 0, 0, 0, 0, 0, 0, 0, 0, 0, 0
        DC8 0, 0, 0, 0, 0, 0, 0, 0, 0, 3, 192, 0, 0, 0, 0, 0, 0, 0, 0, 0, 0, 0
        DC8 0, 0, 0, 0, 0, 0, 0, 0, 0, 0, 0, 0, 0, 0, 0, 0, 0, 0, 0, 0, 0, 0, 0
        DC8 0, 0, 0, 0, 0, 0, 0, 0, 0, 0, 0, 0, 0, 0, 3, 192, 0, 0, 0, 0, 0, 0
        DC8 0, 0, 0, 0, 0, 0, 0, 0, 0, 0, 0, 0, 0, 0, 0, 0, 0, 0, 0, 0, 0, 0, 0
        DC8 0, 0, 0, 0, 0, 0, 0, 0, 0, 0, 0, 0, 0, 0, 0, 0, 0, 0, 0, 3, 192, 0
        DC8 0, 0, 0, 0, 0, 0, 0, 0, 0, 0, 0, 0, 0, 0, 0, 0, 0, 0, 0, 0, 0, 0, 0
        DC8 0, 0, 0, 0, 0, 0, 0, 0, 0, 0, 0, 0, 0, 0, 0, 0, 0, 0, 0, 0, 0, 0, 0
        DC8 0, 3, 192, 0, 0, 0, 0, 0, 0, 0, 0, 0, 0, 0, 0, 0, 0, 0, 0, 0, 0, 0
        DC8 0, 0, 0, 0, 0, 0, 0, 0, 0, 0, 0, 0, 0, 0, 0, 0, 0, 0, 0, 0, 0, 0, 0
        DC8 0, 0, 0, 0, 0, 0, 3, 192, 0, 0, 0, 0, 0, 0, 0, 0, 0, 0, 0, 0, 0, 0
        DC8 0, 0, 0, 0, 0, 0, 0, 0, 0, 0, 0, 0, 0, 0, 0, 0, 0, 0, 0, 0, 0, 0, 0
        DC8 0, 0, 0, 0, 0, 0, 0, 0, 0, 0, 0, 3, 192, 0, 0, 0, 0, 0, 0, 0, 0, 0
        DC8 0, 0, 0, 0, 0, 0, 0, 0, 0, 0, 0, 0, 0, 0, 0, 0, 0, 0, 0, 0, 0, 0, 0
        DC8 0, 0, 0, 0, 0, 0, 0, 0, 0, 0, 0, 0, 0, 0, 0, 0, 3, 192, 0, 0, 0, 0
        DC8 0, 0, 0, 0, 0, 0, 0, 0, 0, 0, 0, 0, 0, 0, 0, 0, 0, 0, 0, 0, 0, 0, 0
        DC8 0, 0, 0, 0, 0, 0, 0, 0, 0, 0, 0, 0, 0, 0, 0, 0, 0, 0, 0, 0, 0, 3
        DC8 192, 0, 0, 0, 0, 0, 0, 0, 0, 0, 0, 0, 0, 0, 0, 0, 0, 0, 0, 0, 0, 0
        DC8 0, 0, 0, 0, 0, 0, 0, 0, 0, 0, 0, 0, 0, 0, 0, 0, 0, 0, 0, 0, 0, 0, 0
        DC8 0, 0, 0, 0, 3, 192, 0, 0, 0, 0, 0, 0, 0, 0, 0, 0, 0, 0, 0, 0, 0, 0
        DC8 0, 0, 0, 0, 0, 0, 0, 0, 0, 0, 0, 0, 0, 0, 0, 0, 0, 0, 0, 0, 0, 0, 0
        DC8 0, 0, 0, 0, 0, 0, 0, 0, 0, 3, 192, 0, 0, 0, 0, 0, 0, 0, 0, 0, 0, 0
        DC8 0, 0, 0, 0, 0, 0, 0, 0, 0, 0, 0, 0, 0, 0, 0, 0, 0, 0, 0, 0, 0, 0, 0
        DC8 0, 0, 0, 0, 0, 0, 0, 0, 0, 0, 0, 0, 0, 0, 3, 192, 0, 0, 0, 0, 0, 0
        DC8 0, 0, 0, 0, 0, 0, 0, 0, 0, 0, 0, 0, 0, 0, 0, 0, 0, 0, 0, 0, 0, 0, 0
        DC8 0, 0, 0, 0, 0, 0, 0, 0, 0, 0, 0, 0, 0, 0, 0, 0, 0, 0, 0, 3, 192, 0
        DC8 0, 0, 0, 0, 0, 0, 0, 0, 0, 0, 0, 0, 0, 0, 0, 0, 0, 0, 0, 0, 0, 0, 0
        DC8 0, 0, 0, 0, 0, 0, 0, 0, 0, 0, 0, 0, 0, 0, 0, 0, 0, 0, 0, 0, 0, 0, 0
        DC8 0, 3, 192, 0, 0, 0, 0, 0, 0, 0, 0, 0, 0, 0, 0, 0, 0, 0, 0, 0, 0, 0
        DC8 0, 0, 0, 0, 0, 0, 0, 0, 0, 0, 0, 0, 0, 0, 0, 0, 0, 0, 0, 0, 0, 0, 0
        DC8 0, 0, 0, 0, 0, 0, 3, 192, 0, 0, 0, 0, 0, 0, 0, 0, 0, 0, 0, 0, 0, 0
        DC8 0, 0, 0, 0, 0, 0, 0, 0, 0, 0, 0, 0, 0, 0, 0, 0, 0, 0, 0, 0, 0, 0, 0
        DC8 0, 0, 0, 0, 0, 0, 0, 0, 0, 0, 0, 3, 192, 0, 0, 0, 0, 0, 0, 0, 0, 0
        DC8 0, 0, 0, 0, 0, 0, 0, 0, 0, 0, 0, 0, 0, 0, 0, 0, 0, 0, 0, 0, 0, 0, 0
        DC8 0, 0, 0, 0, 0, 0, 0, 0, 0, 0, 0, 0, 0, 0, 0, 0, 3, 192, 0, 0, 0, 0
        DC8 0, 0, 0, 0, 0, 0, 0, 0, 0, 0, 0, 0, 0, 0, 0, 0, 0, 0, 0, 0, 0, 0, 0
        DC8 0, 0, 0, 0, 0, 0, 0, 0, 0, 0, 0, 0, 0, 0, 0, 0, 0, 0, 0, 0, 0, 3
        DC8 192, 0, 0, 0, 0, 0, 0, 0, 0, 0, 0, 0, 0, 0, 0, 0, 0, 0, 0, 0, 0, 0
        DC8 0, 0, 0, 0, 0, 0, 0, 0, 0, 0, 0, 0, 0, 0, 0, 0, 0, 0, 0, 0, 0, 0, 0
        DC8 0, 0, 0, 0, 3, 192, 0, 0, 0, 0, 0, 0, 0, 0, 0, 0, 0, 0, 0, 0, 0, 0
        DC8 0, 0, 0, 0, 0, 0, 0, 0, 0, 0, 0, 0, 0, 0, 0, 0, 0, 0, 0, 0, 0, 0, 0
        DC8 0, 0, 0, 0, 0, 0, 0, 0, 0, 3, 192, 0, 0, 0, 0, 0, 0, 0, 0, 0, 0, 0
        DC8 0, 0, 0, 0, 0, 0, 0, 0, 0, 0, 0, 0, 0, 0, 0, 0, 0, 0, 0, 0, 0, 0, 0
        DC8 0, 0, 0, 0, 0, 0, 0, 0, 0, 0, 0, 0, 0, 0, 3, 192, 0, 0, 0, 0, 0, 0
        DC8 0, 0, 0, 0, 0, 0, 0, 0, 0, 0, 0, 0, 0, 0, 0, 0, 0, 0, 0, 0, 0, 0, 0
        DC8 0, 0, 0, 0, 0, 0, 0, 0, 0, 0, 0, 0, 0, 0, 0, 0, 0, 0, 0, 3, 192, 0
        DC8 0, 0, 0, 0, 0, 0, 0, 0, 0, 0, 0, 0, 0, 0, 0, 0, 0, 0, 0, 0, 0, 0, 0
        DC8 0, 0, 0, 0, 0, 0, 0, 0, 0, 0, 0, 0, 0, 0, 0, 0, 0, 0, 0, 0, 0, 0, 0
        DC8 0, 3, 192, 0, 0, 0, 0, 0, 0, 0, 0, 0, 0, 0, 0, 0, 0, 0, 0, 0, 0, 0
        DC8 0, 0, 0, 0, 0, 0, 0, 0, 0, 0, 0, 0, 0, 0, 0, 0, 0, 0, 0, 0, 0, 0, 0
        DC8 0, 0, 0, 0, 0, 0, 3, 192, 0, 0, 0, 0, 0, 0, 0, 0, 0, 0, 0, 0, 0, 0
        DC8 0, 0, 0, 0, 0, 0, 0, 0, 0, 0, 0, 0, 0, 0, 0, 0, 0, 0, 0, 0, 0, 0, 0
        DC8 0, 0, 0, 0, 0, 0, 0, 0, 0, 0, 0, 3, 192, 0, 0, 0, 0, 0, 0, 0, 0, 0
        DC8 0, 0, 0, 0, 0, 0, 0, 0, 0, 0, 0, 0, 0, 0, 0, 0, 0, 0, 0, 0, 0, 0, 0
        DC8 0, 0, 0, 0, 0, 0, 0, 0, 0, 0, 0, 0, 0, 0, 0, 0, 3, 192, 0, 0, 0, 0
        DC8 0, 0, 0, 0, 0, 0, 0, 0, 0, 0, 0, 0, 0, 0, 0, 0, 0, 0, 0, 0, 0, 0, 0
        DC8 0, 0, 0, 0, 0, 0, 0, 0, 0, 0, 0, 0, 0, 0, 0, 0, 0, 0, 0, 0, 0, 3
        DC8 192, 0, 0, 0, 0, 0, 0, 0, 0, 0, 0, 0, 0, 0, 0, 0, 0, 0, 0, 0, 0, 0
        DC8 0, 0, 0, 0, 0, 0, 0, 0, 0, 0, 0, 0, 0, 0, 0, 0, 0, 0, 0, 0, 0, 0, 0
        DC8 0, 0, 0, 0, 3, 192, 0, 0, 0, 0, 0, 0, 0, 0, 0, 0, 0, 0, 0, 0, 0, 0
        DC8 0, 0, 0, 0, 0, 0, 0, 0, 0, 0, 0, 0, 0, 0, 0, 0, 0, 0, 0, 0, 0, 0, 0
        DC8 0, 0, 0, 0, 0, 0, 0, 0, 0, 3, 192, 0, 0, 0, 0, 0, 0, 0, 0, 0, 0, 0
        DC8 0, 0, 0, 0, 0, 0, 0, 0, 0, 0, 0, 0, 0, 0, 0, 0, 0, 0, 0, 0, 0, 0, 0
        DC8 0, 0, 0, 0, 0, 0, 0, 0, 0, 0, 0, 0, 0, 0, 3, 192, 0, 0, 0, 0, 0, 0
        DC8 0, 0, 0, 0, 0, 0, 0, 0, 0, 0, 0, 0, 0, 0, 0, 0, 0, 0, 0, 0, 0, 0, 0
        DC8 0, 0, 0, 0, 0, 0, 0, 0, 0, 0, 0, 0, 0, 0, 0, 0, 0, 0, 0, 3, 192, 0
        DC8 0, 0, 0, 0, 0, 0, 0, 0, 0, 0, 0, 0, 0, 0, 0, 0, 0, 0, 0, 0, 0, 0, 0
        DC8 0, 0, 0, 0, 0, 0, 0, 0, 0, 0, 0, 0, 0, 0, 0, 0, 0, 0, 0, 0, 0, 0, 0
        DC8 0, 3, 192, 0, 0, 0, 0, 0, 0, 0, 0, 0, 0, 0, 0, 0, 0, 0, 0, 0, 0, 0
        DC8 0, 0, 0, 0, 0, 0, 0, 0, 0, 0, 0, 0, 0, 0, 0, 0, 0, 0, 0, 0, 0, 0, 0
        DC8 0, 0, 0, 0, 0, 0, 3, 192, 0, 0, 0, 0, 0, 0, 0, 0, 0, 0, 0, 0, 0, 0
        DC8 0, 0, 0, 0, 0, 0, 0, 0, 0, 0, 0, 0, 0, 0, 0, 0, 0, 0, 0, 0, 0, 0, 0
        DC8 0, 0, 0, 0, 0, 0, 0, 0, 0, 0, 0, 3, 192, 0, 0, 0, 0, 0, 0, 0, 0, 0
        DC8 0, 0, 0, 0, 0, 0, 0, 0, 0, 0, 0, 0, 0, 0, 0, 0, 0, 0, 0, 0, 0, 0, 0
        DC8 0, 0, 0, 0, 0, 0, 0, 0, 0, 0, 0, 0, 0, 0, 0, 0, 3, 192, 0, 0, 0, 0
        DC8 0, 0, 0, 0, 0, 0, 0, 0, 0, 0, 0, 0, 0, 0, 0, 0, 0, 0, 0, 0, 0, 0, 0
        DC8 0, 0, 0, 0, 0, 0, 0, 0, 0, 0, 0, 0, 0, 0, 0, 0, 0, 0, 0, 0, 0, 3
        DC8 192, 0, 0, 0, 0, 0, 0, 0, 0, 0, 0, 0, 0, 0, 0, 0, 0, 0, 0, 0, 0, 0
        DC8 0, 0, 0, 0, 0, 0, 0, 0, 0, 0, 0, 0, 0, 0, 0, 0, 0, 0, 0, 0, 0, 0, 0
        DC8 0, 0, 0, 0, 3, 192, 0, 0, 0, 0, 0, 0, 0, 0, 0, 0, 0, 0, 0, 0, 0, 0
        DC8 0, 0, 0, 0, 0, 0, 0, 0, 0, 0, 0, 0, 0, 0, 0, 0, 0, 0, 0, 0, 0, 0, 0
        DC8 0, 0, 0, 0, 0, 0, 0, 0, 0, 3, 192, 0, 0, 0, 0, 0, 0, 0, 0, 0, 0, 0
        DC8 0, 0, 0, 0, 0, 0, 0, 0, 0, 0, 0, 0, 0, 0, 0, 0, 0, 0, 0, 0, 0, 0, 0
        DC8 0, 0, 0, 0, 0, 0, 0, 0, 0, 0, 0, 0, 0, 0, 3, 192, 0, 0, 0, 0, 0, 0
        DC8 0, 0, 0, 0, 0, 0, 0, 0, 0, 0, 0, 0, 0, 0, 0, 0, 0, 0, 0, 0, 0, 0, 0
        DC8 0, 0, 0, 0, 0, 0, 0, 0, 0, 0, 0, 0, 0, 0, 0, 0, 0, 0, 0, 3, 192, 0
        DC8 0, 0, 0, 0, 0, 0, 0, 0, 0, 0, 0, 0, 0, 0, 0, 0, 0, 0, 0, 0, 0, 0, 0
        DC8 0, 0, 0, 0, 0, 0, 0, 0, 0, 0, 0, 0, 0, 0, 0, 0, 0, 0, 0, 0, 0, 0, 0
        DC8 0, 3, 192, 0, 0, 0, 0, 0, 0, 0, 0, 0, 0, 0, 0, 0, 0, 0, 0, 0, 0, 0
        DC8 0, 0, 0, 0, 0, 0, 0, 0, 0, 0, 0, 0, 0, 0, 0, 0, 0, 0, 0, 0, 0, 0, 0
        DC8 0, 0, 0, 0, 0, 0, 3, 192, 0, 0, 0, 0, 0, 0, 0, 0, 0, 0, 0, 0, 0, 0
        DC8 0, 0, 0, 0, 0, 0, 0, 0, 0, 0, 0, 0, 0, 0, 0, 0, 0, 0, 0, 0, 0, 0, 0
        DC8 0, 0, 0, 0, 0, 0, 0, 0, 0, 0, 0, 3, 192, 0, 0, 0, 0, 0, 0, 0, 0, 0
        DC8 0, 0, 0, 0, 0, 0, 0, 0, 0, 0, 0, 0, 0, 0, 0, 0, 0, 0, 0, 0, 0, 0, 0
        DC8 0, 0, 0, 0, 0, 0, 0, 0, 0, 0, 0, 0, 0, 0, 0, 0, 3, 192, 0, 0, 0, 0
        DC8 0, 0, 0, 0, 0, 0, 0, 0, 0, 0, 0, 0, 0, 0, 0, 0, 0, 0, 0, 0, 0, 0, 0
        DC8 0, 0, 0, 0, 0, 0, 0, 0, 0, 0, 0, 0, 0, 0, 0, 0, 0, 0, 0, 0, 0, 3
        DC8 192, 0, 0, 0, 0, 0, 0, 0, 0, 0, 0, 0, 0, 0, 0, 0, 0, 0, 0, 0, 0, 0
        DC8 0, 0, 0, 0, 0, 0, 0, 0, 0, 0, 0, 0, 0, 0, 0, 0, 0, 0, 0, 0, 0, 0, 0
        DC8 0, 0, 0, 0, 3, 192, 0, 0, 0, 0, 0, 0, 0, 0, 0, 0, 0, 0, 0, 0, 0, 0
        DC8 0, 0, 0, 0, 0, 0, 0, 0, 0, 0, 0, 0, 0, 0, 0, 0, 0, 0, 0, 0, 0, 0, 0
        DC8 0, 0, 0, 0, 0, 0, 0, 0, 0, 3, 192, 0, 0, 0, 0, 0, 0, 0, 0, 0, 0, 0
        DC8 0, 0, 0, 0, 0, 0, 0, 0, 0, 0, 0, 0, 0, 0, 0, 0, 0, 0, 0, 0, 0, 0, 0
        DC8 0, 0, 0, 0, 0, 0, 0, 0, 0, 0, 0, 0, 0, 0, 3, 192, 0, 0, 0, 0, 0, 0
        DC8 0, 0, 0, 0, 0, 0, 0, 0, 0, 0, 0, 0, 0, 0, 0, 0, 0, 0, 0, 0, 0, 0, 0
        DC8 0, 0, 0, 0, 0, 0, 0, 0, 0, 0, 0, 0, 0, 0, 0, 0, 0, 0, 0, 3, 192, 0
        DC8 0, 0, 0, 0, 0, 0, 0, 0, 0, 0, 0, 0, 0, 0, 0, 0, 0, 0, 0, 0, 0, 0, 0
        DC8 0, 0, 0, 0, 0, 0, 0, 0, 0, 0, 0, 0, 0, 0, 0, 0, 0, 0, 0, 0, 0, 0, 0
        DC8 0, 3, 192, 0, 0, 0, 0, 0, 0, 0, 0, 0, 0, 0, 0, 0, 0, 0, 0, 0, 0, 0
        DC8 0, 0, 0, 0, 0, 0, 0, 0, 0, 0, 0, 0, 0, 0, 0, 0, 0, 0, 0, 0, 0, 0, 0
        DC8 0, 0, 0, 0, 0, 0, 3, 192, 0, 0, 0, 0, 0, 0, 0, 0, 0, 0, 0, 0, 0, 0
        DC8 0, 0, 0, 0, 0, 0, 0, 0, 0, 0, 0, 0, 0, 0, 0, 0, 0, 0, 0, 0, 0, 0, 0
        DC8 0, 0, 0, 0, 0, 0, 0, 0, 0, 0, 0, 3, 192, 0, 0, 0, 0, 0, 0, 0, 0, 0
        DC8 0, 0, 0, 0, 0, 0, 0, 0, 0, 0, 0, 0, 0, 0, 0, 0, 0, 0, 0, 0, 0, 0, 0
        DC8 0, 0, 0, 0, 0, 0, 0, 0, 0, 0, 0, 0, 0, 0, 0, 0, 3, 192, 0, 0, 0, 0
        DC8 0, 0, 0, 0, 0, 0, 0, 0, 0, 0, 0, 0, 0, 0, 0, 0, 0, 0, 0, 0, 0, 0, 0
        DC8 0, 0, 0, 0, 0, 0, 0, 0, 0, 0, 0, 0, 0, 0, 0, 0, 0, 0, 0, 0, 0, 3
        DC8 192, 0, 0, 0, 0, 0, 0, 0, 0, 0, 0, 0, 0, 0, 0, 0, 0, 0, 0, 0, 0, 0
        DC8 0, 0, 0, 0, 0, 0, 0, 0, 0, 0, 0, 0, 0, 0, 0, 0, 0, 0, 0, 0, 0, 0, 0
        DC8 0, 0, 0, 0, 3, 192, 0, 0, 0, 0, 0, 0, 0, 0, 0, 0, 0, 0, 0, 0, 0, 0
        DC8 0, 0, 0, 0, 0, 0, 0, 0, 0, 0, 0, 0, 0, 0, 0, 0, 0, 0, 0, 0, 0, 0, 0
        DC8 0, 0, 0, 0, 0, 0, 0, 0, 0, 3, 192, 0, 0, 0, 0, 0, 0, 0, 0, 0, 0, 0
        DC8 0, 0, 0, 0, 0, 0, 0, 0, 0, 0, 0, 0, 0, 0, 0, 0, 0, 0, 0, 0, 0, 0, 0
        DC8 0, 0, 0, 0, 0, 0, 0, 0, 0, 0, 0, 0, 0, 0, 3, 192, 0, 0, 0, 0, 0, 0
        DC8 0, 0, 0, 0, 0, 0, 0, 0, 0, 0, 0, 0, 0, 0, 0, 0, 0, 0, 0, 0, 0, 0, 0
        DC8 0, 0, 0, 0, 0, 0, 0, 0, 0, 0, 0, 0, 0, 0, 0, 0, 0, 0, 0, 3, 192, 0
        DC8 0, 0, 0, 0, 0, 0, 0, 0, 0, 0, 0, 0, 0, 0, 0, 0, 0, 0, 0, 0, 0, 0, 0
        DC8 0, 0, 0, 0, 0, 0, 0, 0, 0, 0, 0, 0, 0, 0, 0, 0, 0, 0, 0, 0, 0, 0, 0
        DC8 0, 3, 192, 0, 0, 0, 0, 0, 0, 0, 0, 0, 0, 0, 0, 0, 0, 0, 0, 0, 0, 0
        DC8 0, 0, 0, 0, 0, 0, 0, 0, 0, 0, 0, 0, 0, 0, 0, 0, 0, 0, 0, 0, 0, 0, 0
        DC8 0, 0, 0, 0, 0, 0, 3, 192, 0, 0, 0, 0, 0, 0, 0, 0, 0, 0, 0, 0, 0, 0
        DC8 0, 0, 0, 0, 0, 0, 0, 0, 0, 0, 0, 0, 0, 0, 0, 0, 0, 0, 0, 0, 0, 0, 0
        DC8 0, 0, 0, 0, 0, 0, 0, 0, 0, 0, 0, 3, 192, 0, 0, 0, 0, 0, 0, 0, 0, 0
        DC8 0, 0, 0, 0, 0, 0, 0, 0, 0, 0, 0, 0, 0, 0, 0, 0, 0, 0, 0, 0, 0, 0, 0
        DC8 0, 0, 0, 0, 0, 0, 0, 0, 0, 0, 0, 0, 0, 0, 0, 0, 3, 192, 0, 0, 0, 0
        DC8 0, 0, 0, 0, 0, 0, 0, 0, 0, 0, 0, 0, 0, 0, 0, 0, 0, 0, 0, 0, 0, 0, 0
        DC8 0, 0, 0, 0, 0, 0, 0, 0, 0, 0, 0, 0, 0, 0, 0, 0, 0, 0, 0, 0, 0, 3
        DC8 192, 0, 0, 0, 0, 0, 0, 0, 0, 0, 0, 0, 0, 0, 0, 0, 0, 0, 0, 0, 0, 0
        DC8 0, 0, 0, 0, 0, 0, 0, 0, 0, 0, 0, 0, 0, 0, 0, 0, 0, 0, 0, 0, 0, 0, 0
        DC8 0, 0, 0, 0, 3, 192, 0, 0, 0, 0, 0, 0, 0, 0, 0, 0, 0, 0, 0, 0, 0, 0
        DC8 0, 0, 0, 0, 0, 0, 0, 0, 0, 0, 0, 0, 0, 0, 0, 0, 0, 0, 0, 0, 0, 0, 0
        DC8 0, 0, 0, 0, 0, 0, 0, 0, 0, 3, 192, 0, 0, 0, 0, 0, 0, 0, 0, 0, 0, 0
        DC8 0, 0, 0, 0, 0, 0, 0, 0, 0, 0, 0, 0, 0, 0, 0, 0, 0, 0, 0, 0, 0, 0, 0
        DC8 0, 0, 0, 0, 0, 0, 0, 0, 0, 0, 0, 0, 0, 0, 3, 192, 0, 0, 0, 0, 0, 0
        DC8 0, 0, 0, 0, 0, 0, 0, 0, 0, 0, 0, 0, 0, 0, 0, 0, 0, 0, 0, 0, 0, 0, 0
        DC8 0, 0, 0, 0, 0, 0, 0, 0, 0, 0, 0, 0, 0, 0, 0, 0, 0, 0, 0, 3, 192, 0
        DC8 0, 0, 0, 0, 0, 0, 0, 0, 0, 0, 0, 0, 0, 0, 0, 0, 0, 0, 0, 0, 0, 0, 0
        DC8 0, 0, 0, 0, 0, 0, 0, 0, 0, 0, 0, 0, 0, 0, 0, 0, 0, 0, 0, 0, 0, 0, 0
        DC8 0, 3, 192, 0, 0, 0, 0, 0, 0, 0, 0, 0, 0, 0, 0, 0, 0, 0, 0, 0, 0, 0
        DC8 0, 0, 0, 0, 0, 0, 0, 0, 0, 0, 0, 0, 0, 0, 0, 0, 0, 0, 0, 0, 0, 0, 0
        DC8 0, 0, 0, 0, 0, 0, 3, 192, 0, 0, 0, 0, 0, 0, 0, 0, 0, 0, 0, 0, 0, 0
        DC8 0, 0, 0, 0, 0, 0, 0, 0, 0, 0, 0, 0, 0, 0, 0, 0, 0, 0, 0, 0, 0, 0, 0
        DC8 0, 0, 0, 0, 0, 0, 0, 0, 0, 0, 0, 3, 192, 0, 0, 0, 0, 0, 0, 0, 0, 0
        DC8 0, 0, 0, 0, 0, 0, 0, 0, 0, 0, 0, 0, 0, 0, 0, 0, 0, 0, 0, 0, 0, 0, 0
        DC8 0, 0, 0, 0, 0, 0, 0, 0, 0, 0, 0, 0, 0, 0, 0, 0, 3, 192, 0, 0, 0, 0
        DC8 0, 0, 0, 0, 0, 0, 0, 0, 0, 0, 0, 0, 0, 0, 0, 0, 0, 0, 0, 0, 0, 0, 0
        DC8 0, 0, 0, 0, 0, 0, 0, 0, 0, 0, 0, 0, 0, 0, 0, 0, 0, 0, 0, 0, 0, 3
        DC8 192, 0, 0, 0, 0, 0, 0, 0, 0, 0, 0, 0, 0, 0, 0, 0, 0, 0, 0, 0, 0, 0
        DC8 0, 0, 0, 0, 0, 0, 0, 0, 0, 0, 0, 0, 0, 0, 0, 0, 0, 0, 0, 0, 0, 0, 0
        DC8 0, 0, 0, 0, 3, 192, 0, 0, 0, 0, 0, 0, 0, 0, 0, 0, 0, 0, 0, 0, 0, 0
        DC8 0, 0, 0, 0, 0, 0, 0, 0, 0, 0, 0, 0, 0, 0, 0, 0, 0, 0, 0, 0, 0, 0, 0
        DC8 0, 0, 0, 0, 0, 0, 0, 0, 0, 3, 192, 0, 0, 0, 0, 0, 0, 0, 0, 0, 0, 0
        DC8 0, 0, 0, 0, 0, 0, 0, 0, 0, 0, 0, 0, 0, 0, 0, 0, 0, 0, 0, 0, 0, 0, 0
        DC8 0, 0, 0, 0, 0, 0, 0, 0, 0, 0, 0, 0, 0, 0, 3, 192, 0, 0, 0, 0, 0, 0
        DC8 0, 0, 0, 0, 0, 0, 0, 0, 0, 0, 0, 0, 0, 0, 0, 0, 0, 0, 0, 0, 0, 0, 0
        DC8 0, 0, 0, 0, 0, 0, 0, 0, 0, 0, 0, 0, 0, 0, 0, 0, 0, 0, 0, 3, 192, 0
        DC8 0, 0, 0, 0, 0, 0, 0, 0, 0, 0, 0, 0, 0, 0, 0, 0, 0, 0, 0, 0, 0, 0, 0
        DC8 0, 0, 0, 0, 0, 0, 0, 0, 0, 0, 0, 0, 0, 0, 0, 0, 0, 0, 0, 0, 0, 0, 0
        DC8 0, 3, 192, 0, 0, 0, 0, 0, 0, 0, 0, 0, 0, 0, 0, 0, 0, 0, 0, 0, 0, 0
        DC8 0, 0, 0, 0, 0, 0, 0, 0, 0, 0, 0, 0, 0, 0, 0, 0, 0, 0, 0, 0, 0, 0, 0
        DC8 0, 0, 0, 0, 0, 0, 3, 192, 0, 0, 0, 0, 0, 0, 0, 0, 0, 0, 0, 0, 0, 0
        DC8 0, 0, 0, 0, 0, 0, 0, 0, 0, 0, 0, 0, 0, 0, 0, 0, 0, 0, 0, 0, 0, 0, 0
        DC8 0, 0, 0, 0, 0, 0, 0, 0, 0, 0, 0, 3, 192, 0, 0, 0, 0, 0, 0, 0, 0, 0
        DC8 0, 0, 0, 0, 0, 0, 0, 0, 0, 0, 0, 0, 0, 0, 0, 0, 0, 0, 0, 0, 0, 0, 0
        DC8 0, 0, 0, 0, 0, 0, 0, 0, 0, 0, 0, 0, 0, 0, 0, 0, 3, 192, 0, 0, 0, 0
        DC8 0, 0, 0, 0, 0, 0, 0, 0, 0, 0, 0, 0, 0, 0, 0, 0, 0, 0, 0, 0, 0, 0, 0
        DC8 0, 0, 0, 0, 0, 0, 0, 0, 0, 0, 0, 0, 0, 0, 0, 0, 0, 0, 0, 0, 0, 3
        DC8 192, 0, 0, 0, 0, 0, 0, 0, 0, 0, 0, 0, 0, 0, 0, 0, 0, 0, 0, 0, 0, 0
        DC8 0, 0, 0, 0, 0, 0, 0, 0, 0, 0, 0, 0, 0, 0, 0, 0, 0, 0, 0, 0, 0, 0, 0
        DC8 0, 0, 0, 0, 3, 192, 0, 0, 0, 0, 0, 0, 0, 0, 0, 0, 0, 0, 0, 0, 0, 0
        DC8 0, 0, 0, 0, 0, 0, 0, 0, 0, 0, 0, 0, 0, 0, 0, 0, 0, 0, 0, 0, 0, 0, 0
        DC8 0, 0, 0, 0, 0, 0, 0, 0, 0, 3, 192, 0, 0, 0, 0, 0, 0, 0, 0, 0, 0, 0
        DC8 0, 0, 0, 0, 0, 0, 0, 0, 0, 0, 0, 0, 0, 0, 0, 0, 0, 0, 0, 0, 0, 0, 0
        DC8 0, 0, 0, 0, 0, 0, 0, 0, 0, 0, 0, 0, 0, 0, 3, 192, 0, 0, 0, 0, 0, 0
        DC8 0, 0, 0, 0, 0, 0, 0, 0, 0, 0, 0, 0, 0, 0, 0, 0, 0, 0, 0, 0, 0, 0, 0
        DC8 0, 0, 0, 0, 0, 0, 0, 0, 0, 0, 0, 0, 0, 0, 0, 0, 0, 0, 0, 3, 192, 0
        DC8 0, 0, 0, 0, 0, 0, 0, 0, 0, 0, 0, 0, 0, 0, 0, 0, 0, 0, 0, 0, 0, 0, 0
        DC8 0, 0, 0, 0, 0, 0, 0, 0, 0, 0, 0, 0, 0, 0, 0, 0, 0, 0, 0, 0, 0, 0, 0
        DC8 0, 3, 192, 0, 0, 0, 0, 0, 0, 0, 0, 0, 0, 0, 0, 0, 0, 0, 0, 0, 0, 0
        DC8 0, 0, 0, 0, 0, 0, 0, 0, 0, 0, 0, 0, 0, 0, 0, 0, 0, 0, 0, 0, 0, 0, 0
        DC8 0, 0, 0, 0, 0, 0, 3, 192, 0, 0, 0, 0, 0, 0, 0, 0, 0, 0, 0, 0, 0, 0
        DC8 0, 0, 0, 0, 0, 0, 0, 0, 0, 0, 0, 0, 0, 0, 0, 0, 0, 0, 0, 0, 0, 0, 0
        DC8 0, 0, 0, 0, 0, 0, 0, 0, 0, 0, 0, 3, 192, 0, 0, 0, 0, 0, 0, 0, 0, 0
        DC8 0, 0, 0, 0, 0, 0, 0, 0, 0, 0, 0, 0, 0, 0, 0, 0, 0, 0, 0, 0, 0, 0, 0
        DC8 0, 0, 0, 0, 0, 0, 0, 0, 0, 0, 0, 0, 0, 0, 0, 0, 3, 192, 0, 0, 0, 0
        DC8 0, 0, 0, 0, 0, 0, 0, 0, 0, 0, 0, 0, 0, 0, 0, 0, 0, 0, 0, 0, 0, 0, 0
        DC8 0, 0, 0, 0, 0, 0, 0, 0, 0, 0, 0, 0, 0, 0, 0, 0, 0, 0, 0, 0, 0, 3
        DC8 192, 0, 0, 0, 0, 0, 0, 0, 0, 0, 0, 0, 0, 0, 0, 0, 0, 0, 0, 0, 0, 0
        DC8 0, 0, 0, 0, 0, 0, 0, 0, 0, 0, 0, 0, 0, 0, 0, 0, 0, 0, 0, 0, 0, 0, 0
        DC8 0, 0, 0, 0, 3, 192, 0, 0, 0, 0, 0, 0, 0, 0, 0, 0, 0, 0, 0, 0, 0, 0
        DC8 0, 0, 0, 0, 0, 0, 0, 0, 0, 0, 0, 0, 0, 0, 0, 0, 0, 0, 0, 0, 0, 0, 0
        DC8 0, 0, 0, 0, 0, 0, 0, 0, 0, 3, 192, 0, 0, 0, 0, 0, 0, 0, 0, 0, 0, 0
        DC8 0, 0, 0, 0, 0, 0, 0, 0, 0, 0, 0, 0, 0, 0, 0, 0, 0, 0, 0, 0, 0, 0, 0
        DC8 0, 0, 0, 0, 0, 0, 0, 0, 0, 0, 0, 0, 0, 0, 3, 192, 0, 0, 0, 0, 0, 0
        DC8 0, 0, 0, 0, 0, 0, 0, 0, 0, 0, 0, 0, 0, 0, 0, 0, 0, 0, 0, 0, 0, 0, 0
        DC8 0, 0, 0, 0, 0, 0, 0, 0, 0, 0, 0, 0, 0, 0, 0, 0, 0, 0, 0, 3, 192, 0
        DC8 0, 0, 0, 0, 0, 0, 0, 0, 0, 0, 0, 0, 0, 0, 0, 0, 0, 0, 0, 0, 0, 0, 0
        DC8 0, 0, 0, 0, 0, 0, 0, 0, 0, 0, 0, 0, 0, 0, 0, 0, 0, 0, 0, 0, 0, 0, 0
        DC8 0, 3, 192, 0, 0, 0, 0, 0, 0, 0, 0, 0, 0, 0, 0, 0, 0, 0, 0, 0, 0, 0
        DC8 0, 0, 0, 0, 0, 0, 0, 0, 0, 0, 0, 0, 0, 0, 0, 0, 0, 0, 0, 0, 0, 0, 0
        DC8 0, 0, 0, 0, 0, 0, 3, 192, 0, 0, 0, 0, 0, 0, 0, 0, 0, 0, 0, 0, 0, 0
        DC8 0, 0, 0, 0, 0, 0, 0, 0, 0, 0, 0, 0, 0, 0, 0, 0, 0, 0, 0, 0, 0, 0, 0
        DC8 0, 0, 0, 0, 0, 0, 0, 0, 0, 0, 0, 3, 192, 0, 0, 0, 0, 0, 0, 0, 0, 0
        DC8 0, 0, 0, 0, 0, 0, 0, 0, 0, 0, 0, 0, 0, 0, 0, 0, 0, 0, 0, 0, 0, 0, 0
        DC8 0, 0, 0, 0, 0, 0, 0, 0, 0, 0, 0, 0, 0, 0, 0, 0, 3, 192, 0, 0, 0, 0
        DC8 0, 0, 0, 0, 0, 0, 0, 0, 0, 0, 0, 0, 0, 0, 0, 0, 0, 0, 0, 0, 0, 0, 0
        DC8 0, 0, 0, 0, 0, 0, 0, 0, 0, 0, 0, 0, 0, 0, 0, 0, 0, 0, 0, 0, 0, 3
        DC8 192, 0, 0, 0, 0, 0, 0, 0, 0, 0, 0, 0, 0, 0, 0, 0, 0, 0, 0, 0, 0, 0
        DC8 0, 0, 0, 0, 0, 0, 0, 0, 0, 0, 0, 0, 0, 0, 0, 0, 0, 0, 0, 0, 0, 0, 0
        DC8 0, 0, 0, 0, 3, 192, 0, 0, 0, 0, 0, 0, 0, 0, 0, 0, 0, 0, 0, 0, 0, 0
        DC8 0, 0, 0, 0, 0, 0, 0, 0, 0, 0, 0, 0, 0, 0, 0, 0, 0, 0, 0, 0, 0, 0, 0
        DC8 0, 0, 0, 0, 0, 0, 0, 0, 0, 3, 192, 0, 0, 0, 0, 0, 0, 0, 0, 0, 0, 0
        DC8 0, 0, 0, 0, 0, 0, 0, 0, 0, 0, 0, 0, 0, 0, 0, 0, 0, 0, 0, 0, 0, 0, 0
        DC8 0, 0, 0, 0, 0, 0, 0, 0, 0, 0, 0, 0, 0, 0, 3, 192, 0, 0, 0, 0, 0, 0
        DC8 0, 0, 0, 0, 0, 0, 0, 0, 0, 0, 0, 0, 0, 0, 0, 0, 0, 0, 0, 0, 0, 0, 0
        DC8 0, 0, 0, 0, 0, 0, 0, 0, 0, 0, 0, 0, 0, 0, 0, 0, 0, 0, 0, 3, 192, 0
        DC8 0, 0, 0, 0, 0, 0, 0, 0, 0, 0, 0, 0, 0, 0, 0, 0, 0, 0, 0, 0, 0, 0, 0
        DC8 0, 0, 0, 0, 0, 0, 0, 0, 0, 0, 0, 0, 0, 0, 0, 0, 0, 0, 0, 0, 0, 0, 0
        DC8 0, 3, 192, 0, 0, 0, 0, 0, 0, 0, 0, 0, 0, 0, 0, 0, 0, 0, 0, 0, 0, 0
        DC8 0, 0, 0, 0, 0, 0, 0, 0, 0, 0, 0, 0, 0, 0, 0, 0, 0, 0, 0, 0, 0, 0, 0
        DC8 0, 0, 0, 0, 0, 0, 3, 192, 0, 0, 0, 0, 0, 0, 0, 0, 0, 0, 0, 0, 0, 0
        DC8 0, 0, 0, 0, 0, 0, 0, 0, 0, 0, 0, 0, 0, 0, 0, 0, 0, 0, 0, 0, 0, 0, 0
        DC8 0, 0, 0, 0, 0, 0, 0, 0, 0, 0, 0, 3, 192, 0, 0, 0, 0, 0, 0, 0, 0, 0
        DC8 0, 0, 0, 0, 0, 0, 0, 0, 0, 0, 0, 0, 0, 0, 0, 0, 0, 0, 0, 0, 0, 0, 0
        DC8 0, 0, 0, 0, 0, 0, 0, 0, 0, 0, 0, 0, 0, 0, 0, 0, 3, 192, 0, 0, 0, 0
        DC8 0, 0, 0, 0, 0, 0, 0, 0, 0, 0, 0, 0, 0, 0, 0, 0, 0, 0, 0, 0, 0, 0, 0
        DC8 0, 0, 0, 0, 0, 0, 0, 0, 0, 0, 0, 0, 0, 0, 0, 0, 0, 0, 0, 0, 0, 3
        DC8 192, 0, 0, 0, 0, 0, 0, 0, 0, 0, 0, 0, 0, 0, 0, 0, 0, 0, 0, 0, 0, 0
        DC8 0, 0, 0, 0, 0, 0, 0, 0, 0, 0, 0, 0, 0, 0, 0, 0, 0, 0, 0, 0, 0, 0, 0
        DC8 0, 0, 0, 0, 3, 192, 0, 0, 0, 0, 0, 0, 0, 0, 0, 0, 0, 0, 0, 0, 0, 0
        DC8 0, 0, 0, 0, 0, 0, 0, 0, 0, 0, 0, 0, 0, 0, 0, 0, 0, 0, 0, 0, 0, 0, 0
        DC8 0, 0, 0, 0, 0, 0, 0, 0, 0, 3, 192, 0, 0, 0, 0, 0, 0, 0, 0, 0, 0, 0
        DC8 0, 0, 0, 0, 0, 0, 0, 0, 0, 0, 0, 0, 0, 0, 0, 0, 0, 0, 0, 0, 0, 0, 0
        DC8 0, 0, 0, 0, 0, 0, 0, 0, 0, 0, 0, 0, 0, 0, 3, 192, 0, 0, 0, 0, 0, 0
        DC8 0, 0, 0, 0, 0, 0, 0, 0, 0, 0, 0, 0, 0, 0, 0, 0, 0, 0, 0, 0, 0, 0, 0
        DC8 0, 0, 0, 0, 0, 0, 0, 0, 0, 0, 0, 0, 0, 0, 0, 0, 0, 0, 0, 3, 192, 0
        DC8 0, 0, 0, 0, 0, 0, 0, 0, 0, 0, 0, 0, 0, 0, 0, 0, 0, 0, 0, 0, 0, 0, 0
        DC8 0, 0, 0, 0, 0, 0, 0, 0, 0, 0, 0, 0, 0, 0, 0, 0, 0, 0, 0, 0, 0, 0, 0
        DC8 0, 3, 192, 0, 0, 0, 0, 0, 0, 0, 0, 0, 0, 0, 0, 0, 0, 0, 0, 0, 0, 0
        DC8 0, 0, 0, 0, 0, 0, 0, 0, 0, 0, 0, 0, 0, 0, 0, 0, 0, 0, 0, 0, 0, 0, 0
        DC8 0, 0, 0, 0, 0, 0, 3, 192, 0, 0, 0, 0, 0, 0, 0, 0, 0, 0, 0, 0, 0, 0
        DC8 0, 0, 0, 0, 0, 0, 0, 0, 0, 0, 0, 0, 0, 0, 0, 0, 0, 0, 0, 0, 0, 0, 0
        DC8 0, 0, 0, 0, 0, 0, 0, 0, 0, 0, 0, 3, 192, 0, 0, 0, 0, 0, 0, 0, 0, 0
        DC8 0, 0, 0, 0, 0, 0, 0, 0, 0, 0, 0, 0, 0, 0, 0, 0, 0, 0, 0, 0, 0, 0, 0
        DC8 0, 0, 0, 0, 0, 0, 0, 0, 0, 0, 0, 0, 0, 0, 0, 0, 3, 192, 0, 0, 0, 0
        DC8 0, 0, 0, 0, 0, 0, 0, 0, 0, 0, 0, 0, 0, 0, 0, 0, 0, 0, 0, 0, 0, 0, 0
        DC8 0, 0, 0, 0, 0, 0, 0, 0, 0, 0, 0, 0, 0, 0, 0, 0, 0, 0, 0, 0, 0, 3
        DC8 192, 0, 0, 0, 0, 0, 0, 0, 0, 0, 0, 0, 0, 0, 0, 0, 0, 0, 0, 0, 0, 0
        DC8 0, 0, 0, 0, 0, 0, 0, 0, 0, 0, 0, 0, 0, 0, 0, 0, 0, 0, 0, 0, 0, 0, 0
        DC8 0, 0, 0, 0, 3, 192, 0, 0, 0, 0, 0, 0, 0, 0, 0, 0, 0, 0, 0, 0, 0, 0
        DC8 0, 0, 0, 0, 0, 0, 0, 0, 0, 0, 0, 0, 0, 0, 0, 0, 0, 0, 0, 0, 0, 0, 0
        DC8 0, 0, 0, 0, 0, 0, 0, 0, 0, 3, 192, 0, 0, 0, 0, 0, 0, 0, 0, 0, 0, 0
        DC8 0, 0, 0, 0, 0, 0, 0, 0, 0, 0, 0, 0, 0, 0, 0, 0, 0, 0, 0, 0, 0, 0, 0
        DC8 0, 0, 0, 0, 0, 0, 0, 0, 0, 0, 0, 0, 0, 0, 3, 192, 0, 0, 0, 0, 0, 0
        DC8 0, 0, 0, 0, 0, 0, 0, 0, 0, 0, 0, 0, 0, 0, 0, 0, 0, 0, 0, 0, 0, 0, 0
        DC8 0, 0, 0, 0, 0, 0, 0, 0, 0, 0, 0, 0, 0, 0, 0, 0, 0, 0, 0, 3, 192, 0
        DC8 0, 0, 0, 0, 0, 0, 0, 0, 0, 0, 0, 0, 0, 0, 0, 0, 0, 0, 0, 0, 0, 0, 0
        DC8 0, 0, 0, 0, 0, 0, 0, 0, 0, 0, 0, 0, 0, 0, 0, 0, 0, 0, 0, 0, 0, 0, 0
        DC8 0, 3, 192, 0, 0, 0, 0, 0, 0, 0, 0, 0, 0, 0, 0, 0, 0, 0, 0, 0, 0, 0
        DC8 0, 0, 0, 0, 0, 0, 0, 0, 0, 0, 0, 0, 0, 0, 0, 0, 0, 0, 0, 0, 0, 0, 0
        DC8 0, 0, 0, 0, 0, 0, 3, 192, 0, 0, 0, 0, 0, 0, 0, 0, 0, 0, 0, 0, 0, 0
        DC8 0, 0, 0, 0, 0, 0, 0, 0, 0, 0, 0, 0, 0, 0, 0, 0, 0, 0, 0, 0, 0, 0, 0
        DC8 0, 0, 0, 0, 0, 0, 0, 0, 0, 0, 0, 3, 192, 0, 0, 0, 0, 0, 0, 0, 0, 0
        DC8 0, 0, 0, 0, 0, 0, 0, 0, 0, 0, 0, 0, 0, 0, 0, 0, 0, 0, 0, 0, 0, 0, 0
        DC8 0, 0, 0, 0, 0, 0, 0, 0, 0, 0, 0, 0, 0, 0, 0, 0, 3, 192, 0, 0, 0, 0
        DC8 0, 0, 0, 0, 0, 0, 0, 0, 0, 0, 0, 0, 0, 0, 0, 0, 0, 0, 0, 0, 0, 0, 0
        DC8 0, 0, 0, 0, 0, 0, 0, 0, 0, 0, 0, 0, 0, 0, 0, 0, 0, 0, 0, 0, 0, 3
        DC8 192, 0, 0, 0, 0, 0, 0, 0, 0, 0, 0, 0, 0, 0, 0, 0, 0, 0, 0, 0, 0, 0
        DC8 0, 0, 0, 0, 0, 0, 0, 0, 0, 0, 0, 0, 0, 0, 0, 0, 0, 0, 0, 0, 0, 0, 0
        DC8 0, 0, 0, 0, 3, 192, 0, 0, 0, 0, 0, 0, 0, 0, 0, 0, 0, 0, 0, 0, 0, 0
        DC8 0, 0, 0, 0, 0, 0, 0, 0, 0, 0, 0, 0, 0, 0, 0, 0, 0, 0, 0, 0, 0, 0, 0
        DC8 0, 0, 0, 0, 0, 0, 0, 0, 0, 3, 192, 0, 0, 0, 0, 0, 0, 0, 0, 0, 0, 0
        DC8 0, 0, 0, 0, 0, 0, 0, 0, 0, 0, 0, 0, 0, 0, 0, 0, 0, 0, 0, 0, 0, 0, 0
        DC8 0, 0, 0, 0, 0, 0, 0, 0, 0, 0, 0, 0, 0, 0, 3, 192, 0, 0, 0, 0, 0, 0
        DC8 0, 0, 0, 0, 0, 0, 0, 0, 0, 0, 0, 0, 0, 0, 0, 0, 0, 0, 0, 0, 0, 0, 0
        DC8 0, 0, 0, 0, 0, 0, 0, 0, 0, 0, 0, 0, 0, 0, 0, 0, 0, 0, 0, 3, 192, 0
        DC8 0, 0, 0, 0, 0, 0, 0, 0, 0, 0, 0, 0, 0, 0, 0, 0, 0, 0, 0, 0, 0, 0, 0
        DC8 0, 0, 0, 0, 0, 0, 0, 0, 0, 0, 0, 0, 0, 0, 0, 0, 0, 0, 0, 0, 0, 0, 0
        DC8 0, 3, 192, 0, 0, 0, 0, 0, 0, 0, 0, 0, 0, 0, 0, 0, 0, 0, 0, 0, 0, 0
        DC8 0, 0, 0, 0, 0, 0, 0, 0, 0, 0, 0, 0, 0, 0, 0, 0, 0, 0, 0, 0, 0, 0, 0
        DC8 0, 0, 0, 0, 0, 0, 3, 192, 0, 0, 0, 0, 0, 0, 0, 0, 0, 0, 0, 0, 0, 0
        DC8 0, 0, 0, 0, 0, 0, 0, 0, 0, 0, 0, 0, 0, 0, 0, 0, 0, 0, 0, 0, 0, 0, 0
        DC8 0, 0, 0, 0, 0, 0, 0, 0, 0, 0, 0, 3, 192, 0, 0, 0, 0, 0, 0, 0, 0, 0
        DC8 0, 0, 0, 0, 0, 0, 0, 0, 0, 0, 0, 0, 0, 0, 0, 0, 0, 0, 0, 0, 0, 0, 0
        DC8 0, 0, 0, 0, 0, 0, 0, 0, 0, 0, 0, 0, 0, 0, 0, 0, 3, 192, 0, 0, 0, 0
        DC8 0, 0, 0, 0, 0, 0, 0, 0, 0, 0, 0, 0, 0, 0, 0, 0, 0, 0, 0, 0, 0, 0, 0
        DC8 0, 0, 0, 0, 0, 0, 0, 0, 0, 0, 0, 0, 0, 0, 0, 0, 0, 0, 0, 0, 0, 3
        DC8 192, 0, 0, 0, 0, 0, 0, 0, 0, 0, 0, 0, 0, 0, 0, 0, 0, 0, 0, 0, 0, 0
        DC8 0, 0, 0, 0, 0, 0, 0, 0, 0, 0, 0, 0, 0, 0, 0, 0, 0, 0, 0, 0, 0, 0, 0
        DC8 0, 0, 0, 0, 3, 192, 0, 0, 0, 0, 0, 0, 0, 0, 0, 0, 0, 0, 0, 0, 0, 0
        DC8 0, 0, 0, 0, 0, 0, 0, 0, 0, 0, 0, 0, 0, 0, 0, 0, 0, 0, 0, 0, 0, 0, 0
        DC8 0, 0, 0, 0, 0, 0, 0, 0, 0, 3, 192, 0, 0, 0, 0, 0, 0, 0, 0, 0, 0, 0
        DC8 0, 0, 0, 0, 0, 0, 0, 0, 0, 0, 0, 0, 0, 0, 0, 0, 0, 0, 0, 0, 0, 0, 0
        DC8 0, 0, 0, 0, 0, 0, 0, 0, 0, 0, 0, 0, 0, 0, 3, 192, 0, 0, 0, 0, 0, 0
        DC8 0, 0, 0, 0, 0, 0, 0, 0, 0, 0, 0, 0, 0, 0, 0, 0, 0, 0, 0, 0, 0, 0, 0
        DC8 0, 0, 0, 0, 0, 0, 0, 0, 0, 0, 0, 0, 0, 0, 0, 0, 0, 0, 0, 3, 192, 0
        DC8 0, 0, 0, 0, 0, 0, 0, 0, 0, 0, 0, 0, 0, 0, 0, 0, 0, 0, 0, 0, 0, 0, 0
        DC8 0, 0, 0, 0, 0, 0, 0, 0, 0, 0, 0, 0, 0, 0, 0, 0, 0, 0, 0, 0, 0, 0, 0
        DC8 0, 3, 192, 0, 0, 0, 0, 0, 0, 0, 0, 0, 0, 0, 0, 0, 0, 0, 0, 0, 0, 0
        DC8 0, 0, 0, 0, 0, 0, 0, 0, 0, 0, 0, 0, 0, 0, 0, 0, 0, 0, 0, 0, 0, 0, 0
        DC8 0, 0, 0, 0, 0, 0, 3, 192, 0, 0, 0, 0, 0, 0, 0, 0, 0, 0, 0, 0, 0, 0
        DC8 0, 0, 0, 0, 0, 0, 0, 0, 0, 0, 0, 0, 0, 0, 0, 0, 0, 0, 0, 0, 0, 0, 0
        DC8 0, 0, 0, 0, 0, 0, 0, 0, 0, 0, 0, 3, 192, 0, 0, 0, 0, 0, 0, 0, 0, 0
        DC8 0, 0, 0, 0, 0, 0, 0, 0, 0, 0, 0, 0, 0, 0, 0, 0, 0, 0, 0, 0, 0, 0, 0
        DC8 0, 0, 0, 0, 0, 0, 0, 0, 0, 0, 0, 0, 0, 0, 0, 0, 3, 192, 0, 0, 0, 0
        DC8 0, 0, 0, 0, 0, 0, 0, 0, 0, 0, 0, 0, 0, 0, 0, 0, 0, 0, 0, 0, 0, 0, 0
        DC8 0, 0, 0, 0, 0, 0, 0, 0, 0, 0, 0, 0, 0, 0, 0, 0, 0, 0, 0, 0, 0, 3
        DC8 192, 0, 0, 0, 0, 0, 0, 0, 0, 0, 0, 0, 0, 0, 0, 0, 0, 0, 0, 0, 0, 0
        DC8 0, 0, 0, 0, 0, 0, 0, 0, 0, 0, 0, 0, 0, 0, 0, 0, 0, 0, 0, 0, 0, 0, 0
        DC8 0, 0, 0, 0, 3, 192, 0, 0, 0, 0, 0, 0, 0, 0, 0, 0, 0, 0, 0, 0, 0, 0
        DC8 0, 0, 0, 0, 0, 0, 0, 0, 0, 0, 0, 0, 0, 0, 0, 0, 0, 0, 0, 0, 0, 0, 0
        DC8 0, 0, 0, 0, 0, 0, 0, 0, 0, 3, 192, 0, 0, 0, 0, 0, 0, 0, 0, 0, 0, 0
        DC8 0, 0, 0, 0, 0, 0, 0, 0, 0, 0, 0, 0, 0, 0, 0, 0, 0, 0, 0, 0, 0, 0, 0
        DC8 0, 0, 0, 0, 0, 0, 0, 0, 0, 0, 0, 0, 0, 0, 3, 192, 0, 0, 0, 0, 0, 0
        DC8 0, 0, 0, 0, 0, 0, 0, 0, 0, 0, 0, 0, 0, 0, 0, 0, 0, 0, 0, 0, 0, 0, 0
        DC8 0, 0, 0, 0, 0, 0, 0, 0, 0, 0, 0, 0, 0, 0, 0, 0, 0, 0, 0, 3, 192, 0
        DC8 0, 0, 0, 0, 0, 0, 0, 0, 0, 0, 0, 0, 0, 0, 0, 0, 0, 0, 0, 0, 0, 0, 0
        DC8 0, 0, 0, 0, 0, 0, 0, 0, 0, 0, 0, 0, 0, 0, 0, 0, 0, 0, 0, 0, 0, 0, 0
        DC8 0, 3, 192, 0, 0, 0, 0, 0, 0, 0, 0, 0, 0, 0, 0, 0, 0, 0, 0, 0, 0, 0
        DC8 0, 0, 0, 0, 0, 0, 0, 0, 0, 0, 0, 0, 0, 0, 0, 0, 0, 0, 0, 0, 0, 0, 0
        DC8 0, 0, 0, 0, 0, 0, 3, 192, 0, 0, 0, 0, 0, 0, 0, 0, 0, 0, 0, 0, 0, 0
        DC8 0, 0, 0, 0, 0, 0, 0, 0, 0, 0, 0, 0, 0, 0, 0, 0, 0, 0, 0, 0, 0, 0, 0
        DC8 0, 0, 0, 0, 0, 0, 0, 0, 0, 0, 0, 3, 192, 0, 0, 0, 0, 0, 0, 0, 0, 0
        DC8 0, 0, 0, 0, 0, 0, 0, 0, 0, 0, 0, 0, 0, 0, 0, 0, 0, 0, 0, 0, 0, 0, 0
        DC8 0, 0, 0, 0, 0, 0, 0, 0, 0, 0, 0, 0, 0, 0, 0, 0, 3, 192, 0, 0, 0, 0
        DC8 0, 0, 0, 0, 0, 0, 0, 0, 0, 0, 0, 0, 0, 0, 0, 0, 0, 0, 0, 0, 0, 0, 0
        DC8 0, 0, 0, 0, 0, 0, 0, 0, 0, 0, 0, 0, 0, 0, 0, 0, 0, 0, 0, 0, 0, 3
        DC8 192, 0, 0, 0, 0, 0, 0, 0, 0, 0, 0, 0, 0, 0, 0, 0, 0, 0, 0, 0, 0, 0
        DC8 0, 0, 0, 0, 0, 0, 0, 0, 0, 0, 0, 0, 0, 0, 0, 0, 0, 0, 0, 0, 0, 0, 0
        DC8 0, 0, 0, 0, 3, 192, 0, 0, 0, 0, 0, 0, 0, 0, 0, 0, 0, 0, 0, 0, 0, 0
        DC8 0, 0, 0, 0, 0, 0, 0, 0, 0, 0, 0, 0, 0, 0, 0, 0, 0, 0, 0, 0, 0, 0, 0
        DC8 0, 0, 0, 0, 0, 0, 0, 0, 0, 3, 192, 0, 0, 0, 0, 0, 0, 0, 0, 0, 0, 0
        DC8 0, 0, 0, 0, 0, 0, 0, 0, 0, 0, 0, 0, 0, 0, 0, 0, 0, 0, 0, 0, 0, 0, 0
        DC8 0, 0, 0, 0, 0, 0, 0, 0, 0, 0, 0, 0, 0, 0, 3, 192, 0, 0, 0, 0, 0, 0
        DC8 0, 0, 0, 0, 0, 0, 0, 0, 0, 0, 0, 0, 0, 0, 0, 0, 0, 0, 0, 0, 0, 0, 0
        DC8 0, 0, 0, 0, 0, 0, 0, 0, 0, 0, 0, 0, 0, 0, 0, 0, 0, 0, 0, 3, 192, 0
        DC8 0, 0, 0, 0, 0, 0, 0, 0, 0, 0, 0, 0, 0, 0, 0, 0, 0, 0, 0, 0, 0, 0, 0
        DC8 0, 0, 0, 0, 0, 0, 0, 0, 0, 0, 0, 0, 0, 0, 0, 0, 0, 0, 0, 0, 0, 0, 0
        DC8 0, 3, 192, 0, 0, 0, 0, 0, 0, 0, 0, 0, 0, 0, 0, 0, 0, 0, 0, 0, 0, 0
        DC8 0, 0, 0, 0, 0, 0, 0, 0, 0, 0, 0, 0, 0, 0, 0, 0, 0, 0, 0, 0, 0, 0, 0
        DC8 0, 0, 0, 0, 0, 0, 3, 192, 0, 0, 0, 0, 0, 0, 0, 0, 0, 0, 0, 0, 0, 0
        DC8 0, 0, 0, 0, 0, 0, 0, 0, 0, 0, 0, 0, 0, 0, 0, 0, 0, 0, 0, 0, 0, 0, 0
        DC8 0, 0, 0, 0, 0, 0, 0, 0, 0, 0, 0, 3, 192, 0, 0, 0, 0, 0, 0, 0, 0, 0
        DC8 0, 0, 0, 0, 0, 0, 0, 0, 0, 0, 0, 0, 0, 0, 0, 0, 0, 0, 0, 0, 0, 0, 0
        DC8 0, 0, 0, 0, 0, 0, 0, 0, 0, 0, 0, 0, 0, 0, 0, 0, 3, 192, 0, 0, 0, 0
        DC8 0, 0, 0, 0, 0, 0, 0, 0, 0, 0, 0, 0, 0, 0, 0, 0, 0, 0, 0, 0, 0, 0, 0
        DC8 0, 0, 0, 0, 0, 0, 0, 0, 0, 0, 0, 0, 0, 0, 0, 0, 0, 0, 0, 0, 0, 3
        DC8 192, 0, 0, 0, 0, 0, 0, 0, 0, 0, 0, 0, 0, 0, 0, 0, 0, 0, 0, 0, 0, 0
        DC8 0, 0, 0, 0, 0, 0, 0, 0, 0, 0, 0, 0, 0, 0, 0, 0, 0, 0, 0, 0, 0, 0, 0
        DC8 0, 0, 0, 0, 3, 192, 0, 0, 0, 0, 0, 0, 0, 0, 0, 0, 0, 0, 0, 0, 0, 0
        DC8 0, 0, 0, 0, 0, 0, 0, 0, 0, 0, 0, 0, 0, 0, 0, 0, 0, 0, 0, 0, 0, 0, 0
        DC8 0, 0, 0, 0, 0, 0, 0, 0, 0, 3, 192, 0, 0, 0, 0, 0, 0, 0, 0, 0, 0, 0
        DC8 0, 0, 0, 0, 0, 0, 0, 0, 0, 0, 0, 0, 0, 0, 0, 0, 0, 0, 0, 0, 0, 0, 0
        DC8 0, 0, 0, 0, 0, 0, 0, 0, 0, 0, 0, 0, 0, 0, 3, 192, 0, 0, 0, 0, 0, 0
        DC8 0, 0, 0, 0, 0, 0, 0, 0, 0, 0, 0, 0, 0, 0, 0, 0, 0, 0, 0, 0, 0, 0, 0
        DC8 0, 0, 0, 0, 0, 0, 0, 0, 0, 0, 0, 0, 0, 0, 0, 0, 0, 0, 0, 3, 192, 0
        DC8 0, 0, 0, 0, 0, 0, 0, 0, 0, 0, 0, 0, 0, 0, 0, 0, 0, 0, 0, 0, 0, 0, 0
        DC8 0, 0, 0, 0, 0, 0, 0, 0, 0, 0, 0, 0, 0, 0, 0, 0, 0, 0, 0, 0, 0, 0, 0
        DC8 0, 3, 192, 0, 0, 0, 0, 0, 0, 0, 0, 0, 0, 0, 0, 0, 0, 0, 0, 0, 0, 0
        DC8 0, 0, 0, 0, 0, 0, 0, 0, 0, 0, 0, 0, 0, 0, 0, 0, 0, 0, 0, 0, 0, 0, 0
        DC8 0, 0, 0, 0, 0, 0, 3, 192, 0, 0, 0, 0, 0, 0, 0, 0, 0, 0, 0, 0, 0, 0
        DC8 0, 0, 0, 0, 0, 0, 0, 0, 0, 0, 0, 0, 0, 0, 0, 0, 0, 0, 0, 0, 0, 0, 0
        DC8 0, 0, 0, 0, 0, 0, 0, 0, 0, 0, 0, 3, 192, 0, 0, 0, 0, 0, 0, 0, 0, 0
        DC8 0, 0, 0, 0, 0, 0, 0, 0, 0, 0, 0, 0, 0, 0, 0, 0, 0, 0, 0, 0, 0, 0, 0
        DC8 0, 0, 0, 0, 0, 0, 0, 0, 0, 0, 0, 0, 0, 0, 0, 0, 3, 192, 0, 0, 0, 0
        DC8 0, 0, 0, 0, 0, 0, 0, 0, 0, 0, 0, 0, 0, 0, 0, 0, 0, 0, 0, 0, 0, 0, 0
        DC8 0, 0, 0, 0, 0, 0, 0, 0, 0, 0, 0, 0, 0, 0, 0, 0, 0, 0, 0, 0, 0, 3
        DC8 192, 0, 0, 0, 0, 0, 0, 0, 0, 0, 0, 0, 0, 0, 0, 0, 0, 0, 0, 0, 0, 0
        DC8 0, 0, 0, 0, 0, 0, 0, 0, 0, 0, 0, 0, 0, 0, 0, 0, 0, 0, 0, 0, 0, 0, 0
        DC8 0, 0, 0, 0, 3, 192, 0, 0, 0, 0, 0, 0, 0, 0, 0, 0, 0, 0, 0, 0, 0, 0
        DC8 0, 0, 0, 0, 0, 0, 0, 0, 0, 0, 0, 0, 0, 0, 0, 0, 0, 0, 0, 0, 0, 0, 0
        DC8 0, 0, 0, 0, 0, 0, 0, 0, 0, 3, 192, 0, 0, 0, 0, 0, 0, 0, 0, 0, 0, 0
        DC8 0, 0, 0, 0, 0, 0, 0, 0, 0, 0, 0, 0, 0, 0, 0, 0, 0, 0, 0, 0, 0, 0, 0
        DC8 0, 0, 0, 0, 0, 0, 0, 0, 0, 0, 0, 0, 0, 0, 3, 192, 0, 0, 0, 0, 0, 0
        DC8 0, 0, 0, 0, 0, 0, 0, 0, 0, 0, 0, 0, 0, 0, 0, 0, 0, 0, 0, 0, 0, 0, 0
        DC8 0, 0, 0, 0, 0, 0, 0, 0, 0, 0, 0, 0, 0, 0, 0, 0, 0, 0, 0, 3, 255
        DC8 255, 255, 255, 255, 255, 255, 255, 255, 255, 255, 255, 255, 255
        DC8 255, 255, 255, 255, 255, 255, 255, 255, 255, 255, 255, 255, 255
        DC8 255, 255, 255, 255, 255, 255, 255, 255, 255, 255, 255, 255, 255
        DC8 255, 255, 255, 255, 255, 255, 255, 255, 255, 255, 255, 255, 255
        DC8 255, 255, 255, 255, 255, 255, 255, 255, 255, 255, 255, 255, 255
        DC8 255, 255, 255, 255, 255, 255, 255, 255, 255, 255, 255, 255, 255
        DC8 255, 255, 255, 255, 255, 255, 255, 255, 255, 255, 255, 255, 255
        DC8 255, 255, 255, 255, 255, 255, 255, 255, 255, 255, 255, 255, 255
        DC8 255, 255, 255, 255, 255, 255, 255, 255, 255, 255, 255, 255, 255
        DC8 255, 255, 255, 255, 255, 255, 255, 255, 255, 255, 255, 255, 255
        DC8 255, 255, 255, 255, 255, 255, 255, 255, 255, 255, 255, 255, 255
        DC8 255, 255, 255, 255, 255, 255, 255, 255, 255, 255, 255, 255, 255
        DC8 255, 255, 255, 255, 255, 255, 255, 255, 255, 255, 255, 255, 255
        DC8 255, 255, 255, 255, 255, 255, 255, 255, 255, 255, 255, 255, 255
        DC8 255, 255, 255, 255, 255, 255, 255, 255, 255, 255, 255, 255, 255
        DC8 255, 255, 255, 255, 255, 255, 255, 255, 255, 255, 255, 255, 255
        DC8 255, 255, 255, 255, 255, 255, 255, 255, 255, 255, 255, 255, 255
        DC8 255, 255, 255, 255, 255, 255, 255, 255, 255, 255, 255, 255, 255
        DC8 255, 255, 255, 255, 255, 255, 255, 255, 255, 255, 255, 255, 255
        DC8 255, 255, 255, 255, 255, 255, 255, 255, 255, 255, 255, 255, 255
        DC8 255, 255, 255, 255, 255, 255, 255, 255, 255, 255, 255, 255, 255
        DC8 255, 255, 255, 255, 255, 255, 255, 255, 255, 255, 255, 255, 255
        DC8 255, 255, 255, 255, 255, 255, 255, 255, 255, 255, 255, 255, 255
        DC8 255, 255, 255, 255, 255, 255, 255, 255, 255, 255, 255, 255, 255
        DC8 255, 255, 255, 255, 255, 255, 255, 255, 255, 255, 255, 255, 255
        DC8 255, 255, 255, 255, 255, 255, 255, 255, 255, 255, 255, 255, 255
        DC8 255, 255, 255, 255, 255, 255, 255, 255, 255, 255, 255, 255, 255
        DC8 255, 255, 255, 255, 255, 255, 255, 255, 255, 255, 255, 255, 255
        DC8 255, 255, 255, 255, 255, 255, 255, 255, 255, 255, 255, 255, 255
        DC8 255, 255, 255, 255, 255, 255, 255, 255, 255, 255, 255, 255, 255
        DC8 255, 255, 255, 255, 255, 255, 255, 255, 255, 192, 0, 0, 0, 0, 0, 0
        DC8 0, 0, 0, 0, 0, 0, 0, 0, 7, 255, 255, 255, 255, 255, 255, 255, 255
        DC8 255, 255, 255, 255, 255, 255, 255, 255, 255, 255, 255, 255, 255
        DC8 255, 255, 255, 255, 255, 255, 255, 255, 255, 255, 255, 255, 255
        DC8 192, 0, 0, 0, 0, 0, 0, 0, 0, 0, 0, 0, 0, 0, 0, 7, 255, 255, 255
        DC8 255, 255, 255, 255, 255, 255, 255, 255, 255, 255, 255, 255, 255
        DC8 255, 255, 255, 255, 255, 255, 255, 255, 255, 255, 255, 255, 255
        DC8 255, 255, 255, 255, 255, 192, 0, 0, 0, 0, 0, 0, 0, 0, 0, 0, 0, 0, 0
        DC8 0, 7, 255, 255, 255, 255, 255, 255, 255, 255, 255, 255, 255, 255
        DC8 255, 255, 255, 255, 255, 255, 255, 255, 255, 255, 255, 255, 255
        DC8 255, 255, 255, 255, 255, 255, 255, 255, 255, 192, 0, 0, 0, 0, 0, 0
        DC8 0, 0, 0, 0, 0, 0, 0, 0, 7, 255, 255, 255, 255, 255, 255, 255, 255
        DC8 255, 255, 255, 255, 255, 255, 255, 255, 255, 255, 255, 255, 255
        DC8 255, 255, 255, 255, 255, 255, 255, 255, 255, 255, 255, 255, 255
        DC8 195, 255, 255, 255, 255, 255, 255, 255, 255, 255, 255, 255, 255
        DC8 255, 255, 135, 255, 255, 255, 255, 255, 255, 255, 255, 255, 255
        DC8 255, 255, 255, 255, 255, 255, 255, 255, 255, 255, 255, 255, 255
        DC8 255, 255, 255, 255, 255, 255, 255, 255, 255, 255, 255, 195, 255
        DC8 255, 255, 255, 255, 255, 255, 255, 255, 255, 255, 255, 255, 255
        DC8 135, 255, 255, 255, 255, 255, 255, 255, 255, 255, 255, 255, 255
        DC8 255, 255, 255, 255, 255, 255, 255, 255, 255, 255, 255, 255, 255
        DC8 255, 255, 255, 255, 255, 255, 255, 255, 255, 195, 255, 255, 255
        DC8 255, 255, 255, 255, 63, 255, 255, 255, 255, 255, 255, 135, 255, 255
        DC8 255, 255, 255, 255, 255, 255, 255, 255, 255, 255, 255, 255, 255
        DC8 255, 255, 255, 255, 255, 255, 255, 255, 255, 255, 255, 255, 255
        DC8 255, 255, 255, 255, 255, 255, 195, 255, 255, 255, 255, 255, 255
        DC8 255, 63, 255, 255, 255, 255, 255, 255, 135, 255, 255, 255, 255, 255
        DC8 255, 255, 255, 255, 255, 255, 255, 255, 255, 255, 255, 255, 255
        DC8 255, 255, 255, 255, 255, 255, 255, 255, 255, 255, 255, 255, 255
        DC8 255, 255, 255, 195, 255, 255, 255, 255, 255, 255, 255, 63, 255, 255
        DC8 255, 255, 255, 255, 135, 255, 255, 255, 255, 255, 255, 255, 255
        DC8 255, 255, 255, 255, 255, 255, 255, 255, 255, 255, 255, 255, 255
        DC8 255, 255, 255, 255, 255, 255, 255, 255, 255, 255, 255, 255, 255
        DC8 195, 255, 255, 255, 255, 255, 255, 255, 63, 255, 255, 255, 255, 255
        DC8 255, 135, 255, 255, 255, 255, 255, 255, 255, 255, 255, 255, 255
        DC8 255, 255, 255, 255, 255, 255, 255, 255, 255, 255, 255, 255, 255
        DC8 255, 255, 255, 255, 255, 255, 255, 255, 255, 255, 195, 255, 255
        DC8 255, 255, 255, 255, 255, 63, 255, 255, 255, 255, 255, 255, 135, 255
        DC8 255, 255, 255, 255, 255, 255, 255, 255, 255, 255, 255, 255, 255
        DC8 255, 255, 255, 255, 255, 255, 255, 255, 255, 255, 255, 255, 255
        DC8 255, 255, 255, 255, 255, 255, 255, 195, 255, 255, 255, 255, 255
        DC8 255, 243, 51, 255, 255, 255, 255, 255, 255, 135, 255, 255, 255, 255
        DC8 255, 255, 255, 255, 255, 255, 255, 255, 255, 255, 255, 255, 255
        DC8 255, 255, 255, 255, 255, 255, 255, 255, 255, 255, 255, 255, 255
        DC8 255, 255, 255, 255, 195, 255, 255, 255, 255, 255, 255, 241, 35, 255
        DC8 255, 255, 255, 255, 255, 135, 255, 255, 255, 255, 255, 255, 255
        DC8 255, 255, 255, 255, 255, 255, 255, 255, 255, 255, 255, 255, 255
        DC8 255, 255, 255, 255, 255, 255, 255, 255, 255, 255, 255, 255, 255
        DC8 255, 195, 255, 252, 0, 15, 255, 255, 240, 3, 255, 255, 248, 0, 31
        DC8 255, 135, 255, 255, 255, 255, 255, 255, 255, 255, 255, 255, 255
        DC8 255, 255, 255, 255, 255, 255, 255, 255, 255, 255, 255, 255, 255
        DC8 255, 255, 255, 255, 255, 255, 255, 255, 255, 255, 195, 255, 252, 0
        DC8 15, 255, 255, 240, 3, 255, 255, 240, 0, 7, 255, 135, 255, 255, 255
        DC8 255, 255, 255, 255, 255, 255, 255, 255, 255, 255, 255, 255, 255
        DC8 255, 255, 255, 255, 255, 255, 255, 255, 255, 255, 255, 255, 255
        DC8 255, 255, 255, 255, 255, 195, 255, 255, 255, 255, 255, 249, 241
        DC8 227, 231, 255, 241, 255, 131, 255, 135, 255, 255, 255, 255, 255
        DC8 255, 255, 255, 255, 255, 255, 255, 255, 255, 255, 255, 255, 255
        DC8 255, 255, 255, 255, 255, 255, 255, 255, 255, 255, 255, 255, 255
        DC8 255, 255, 255, 195, 255, 255, 255, 255, 255, 248, 241, 227, 199
        DC8 255, 241, 255, 225, 255, 135, 254, 0, 0, 0, 0, 0, 0, 0, 0, 0, 0, 0
        DC8 0, 0, 0, 0, 0, 0, 0, 0, 0, 0, 0, 0, 0, 0, 0, 0, 0, 0, 0, 0, 0, 255
        DC8 195, 255, 252, 0, 1, 255, 248, 3, 240, 7, 252, 0, 0, 112, 255, 135
        DC8 254, 0, 0, 0, 0, 0, 0, 0, 0, 0, 0, 0, 0, 0, 0, 0, 0, 0, 0, 0, 0, 0
        DC8 0, 0, 0, 0, 0, 0, 0, 0, 0, 0, 0, 255, 195, 255, 252, 127, 240, 127
        DC8 248, 3, 240, 7, 252, 127, 252, 120, 127, 135, 254, 0, 0, 0, 0, 0, 0
        DC8 0, 0, 0, 0, 0, 0, 0, 0, 0, 0, 0, 0, 0, 0, 0, 0, 0, 0, 0, 0, 0, 0, 0
        DC8 0, 0, 0, 255, 195, 255, 252, 127, 252, 127, 249, 147, 242, 103, 252
        DC8 255, 248, 124, 127, 135, 254, 0, 0, 0, 0, 0, 0, 0, 0, 0, 0, 0, 0, 0
        DC8 0, 0, 0, 0, 0, 0, 0, 0, 0, 0, 0, 0, 0, 0, 0, 0, 0, 0, 0, 255, 195
        DC8 255, 254, 15, 14, 63, 249, 147, 242, 103, 252, 240, 224, 254, 63
        DC8 135, 254, 0, 0, 0, 0, 0, 0, 0, 0, 0, 0, 0, 0, 0, 0, 0, 0, 0, 0, 0
        DC8 0, 0, 0, 0, 0, 0, 0, 0, 0, 0, 0, 0, 0, 255, 195, 255, 254, 15, 14
        DC8 63, 249, 147, 242, 103, 252, 240, 224, 254, 63, 135, 255, 255, 255
        DC8 255, 255, 255, 255, 255, 255, 255, 255, 255, 255, 255, 255, 255
        DC8 255, 255, 255, 255, 255, 255, 255, 255, 255, 255, 255, 255, 255
        DC8 255, 255, 255, 255, 255, 195, 0, 31, 15, 255, 30, 1, 147, 242, 96
        DC8 28, 31, 227, 255, 63, 135, 255, 255, 255, 255, 255, 255, 255, 255
        DC8 255, 255, 255, 255, 255, 255, 255, 255, 255, 255, 255, 255, 255
        DC8 255, 255, 255, 255, 255, 255, 255, 255, 255, 255, 255, 255, 255
        DC8 195, 0, 15, 15, 248, 30, 1, 147, 242, 96, 30, 15, 231, 255, 63, 135
        DC8 255, 255, 255, 255, 255, 255, 255, 255, 255, 255, 255, 255, 255
        DC8 255, 255, 255, 255, 255, 255, 255, 255, 255, 255, 255, 255, 255
        DC8 255, 255, 255, 255, 255, 255, 255, 255, 195, 63, 135, 15, 240, 30
        DC8 121, 147, 242, 103, 158, 31, 199, 255, 63, 135, 255, 255, 255, 255
        DC8 255, 255, 255, 255, 255, 255, 255, 255, 255, 255, 255, 255, 255
        DC8 255, 255, 255, 255, 255, 255, 255, 255, 255, 255, 255, 255, 255
        DC8 255, 255, 255, 255, 195, 31, 227, 7, 241, 254, 121, 147, 242, 103
        DC8 156, 63, 199, 255, 63, 135, 255, 255, 255, 255, 255, 255, 255, 255
        DC8 255, 255, 255, 255, 255, 255, 255, 255, 255, 255, 255, 255, 255
        DC8 255, 255, 255, 255, 255, 255, 255, 255, 255, 255, 255, 255, 255
        DC8 195, 143, 243, 33, 227, 254, 0, 0, 0, 0, 28, 127, 15, 255, 63, 135
        DC8 254, 0, 15, 248, 31, 3, 224, 127, 128, 63, 252, 15, 224, 120, 31
        DC8 248, 31, 255, 254, 7, 240, 62, 0, 255, 255, 255, 255, 193, 255, 248
        DC8 127, 240, 31, 255, 195, 192, 115, 48, 3, 255, 255, 255, 255, 255
        DC8 252, 0, 31, 255, 63, 135, 254, 0, 3, 248, 31, 3, 224, 126, 0, 15
        DC8 252, 15, 192, 248, 31, 248, 31, 255, 254, 7, 224, 120, 0, 63, 255
        DC8 255, 255, 129, 255, 240, 127, 192, 7, 255, 195, 0, 121, 56, 0, 255
        DC8 255, 255, 255, 255, 252, 0, 63, 255, 63, 135, 254, 0, 1, 248, 31, 3
        DC8 224, 126, 0, 3, 252, 15, 129, 248, 31, 248, 31, 255, 254, 7, 192
        DC8 248, 0, 15, 255, 255, 255, 129, 255, 192, 127, 192, 3, 255, 195, 63
        DC8 249, 63, 224, 127, 255, 255, 255, 255, 255, 131, 255, 254, 63, 135
        DC8 254, 0, 1, 248, 31, 3, 224, 126, 0, 1, 252, 15, 129, 248, 31, 248
        DC8 31, 255, 254, 7, 192, 248, 0, 7, 255, 255, 255, 1, 254, 0, 127, 192
        DC8 3, 255, 195, 31, 249, 63, 252, 63, 255, 255, 255, 255, 255, 15, 255
        DC8 254, 63, 135, 254, 7, 128, 248, 31, 3, 224, 126, 0, 0, 252, 15, 3
        DC8 248, 31, 248, 31, 255, 254, 7, 129, 248, 0, 3, 255, 255, 255, 1
        DC8 254, 0, 127, 199, 1, 255, 195, 31, 249, 63, 254, 62, 0, 0, 0, 0, 31
        DC8 31, 255, 252, 127, 135, 254, 7, 192, 248, 31, 3, 224, 126, 255, 128
        DC8 252, 15, 7, 248, 31, 248, 31, 255, 254, 7, 131, 251, 254, 3, 255
        DC8 255, 254, 1, 254, 0, 127, 223, 193, 255, 195, 131, 249, 63, 255, 30
        DC8 0, 0, 0, 0, 31, 63, 255, 252, 127, 135, 254, 7, 192, 248, 31, 3
        DC8 224, 127, 255, 192, 124, 14, 7, 248, 31, 248, 31, 255, 254, 7, 3
        DC8 255, 255, 1, 255, 255, 252, 1, 254, 16, 127, 255, 193, 255, 195
        DC8 192, 56, 63, 255, 30, 127, 255, 255, 255, 159, 63, 255, 248, 255
        DC8 135, 254, 7, 192, 248, 31, 3, 224, 127, 255, 224, 124, 12, 15, 248
        DC8 31, 248, 31, 255, 254, 6, 7, 255, 255, 129, 255, 255, 252, 1, 254
        DC8 112, 127, 255, 193, 255, 195, 0, 120, 31, 255, 30, 127, 255, 255
        DC8 255, 159, 63, 255, 241, 255, 135, 254, 7, 193, 248, 31, 3, 224, 127
        DC8 255, 240, 124, 12, 31, 248, 31, 248, 31, 255, 254, 6, 15, 255, 255
        DC8 193, 255, 255, 248, 65, 255, 240, 127, 255, 193, 255, 195, 63, 254
        DC8 0, 7, 30, 127, 255, 255, 255, 159, 60, 0, 3, 255, 135, 254, 7, 131
        DC8 248, 31, 3, 224, 127, 255, 240, 60, 8, 31, 248, 31, 248, 31, 255
        DC8 254, 4, 15, 255, 255, 192, 255, 255, 248, 65, 255, 240, 127, 255, 3
        DC8 255, 195, 31, 255, 255, 3, 30, 124, 0, 224, 7, 159, 48, 0, 7, 255
        DC8 135, 254, 0, 7, 248, 31, 3, 224, 127, 224, 0, 60, 8, 63, 248, 0, 0
        DC8 31, 255, 254, 4, 31, 255, 128, 0, 255, 255, 240, 193, 255, 240, 127
        DC8 224, 7, 255, 195, 143, 255, 255, 192, 62, 124, 0, 224, 7, 159, 0
        DC8 254, 31, 255, 135, 254, 0, 15, 248, 31, 3, 224, 127, 224, 0, 60, 0
        DC8 63, 248, 0, 0, 31, 255, 254, 0, 31, 255, 128, 0, 255, 255, 224, 193
        DC8 255, 240, 127, 224, 31, 255, 195, 192, 0, 15, 240, 62, 124, 252
        DC8 231, 231, 159, 3, 255, 63, 193, 135, 254, 0, 3, 248, 31, 3, 224
        DC8 127, 224, 0, 60, 0, 63, 248, 0, 0, 31, 255, 254, 0, 31, 255, 128, 0
        DC8 255, 255, 225, 193, 255, 240, 127, 224, 7, 255, 195, 224, 0, 15
        DC8 252, 62, 124, 252, 231, 231, 159, 15, 255, 63, 1, 135, 254, 0, 1
        DC8 248, 31, 3, 224, 127, 224, 0, 60, 0, 63, 248, 0, 0, 31, 255, 254, 0
        DC8 31, 255, 128, 0, 255, 255, 195, 193, 255, 240, 127, 224, 3, 255
        DC8 195, 255, 255, 63, 254, 62, 124, 252, 231, 231, 159, 31, 255, 62
        DC8 25, 135, 254, 7, 128, 248, 31, 3, 224, 127, 255, 240, 60, 8, 31
        DC8 248, 0, 0, 31, 255, 254, 4, 15, 255, 255, 192, 224, 7, 131, 193
        DC8 255, 240, 127, 255, 1, 255, 195, 225, 255, 63, 254, 30, 124, 252
        DC8 231, 231, 159, 63, 255, 62, 49, 135, 254, 7, 192, 120, 31, 3, 224
        DC8 127, 255, 240, 60, 12, 15, 248, 31, 248, 31, 255, 254, 6, 7, 255
        DC8 255, 192, 224, 7, 7, 193, 255, 240, 127, 255, 192, 255, 195, 224
        DC8 127, 60, 63, 28, 60, 120, 227, 199, 30, 63, 15, 60, 113, 135, 254
        DC8 7, 224, 120, 31, 3, 224, 127, 255, 224, 124, 12, 15, 248, 31, 248
        DC8 31, 255, 254, 6, 7, 255, 255, 129, 224, 7, 0, 0, 63, 240, 127, 255
        DC8 224, 255, 195, 224, 63, 60, 31, 0, 14, 121, 243, 204, 0, 126, 15
        DC8 60, 3, 135, 254, 7, 224, 120, 31, 3, 224, 127, 255, 224, 124, 14, 7
        DC8 248, 31, 248, 31, 255, 254, 7, 3, 255, 255, 129, 224, 7, 0, 0, 63
        DC8 240, 127, 255, 224, 255, 195, 231, 31, 63, 135, 129, 206, 121, 243
        DC8 204, 192, 124, 127, 60, 7, 135, 254, 7, 224, 120, 31, 3, 224, 127
        DC8 255, 192, 124, 14, 3, 248, 31, 248, 31, 255, 254, 7, 1, 255, 255, 1
        DC8 255, 255, 0, 0, 63, 240, 127, 255, 224, 255, 195, 231, 31, 63, 199
        DC8 255, 142, 121, 243, 204, 255, 248, 255, 60, 127, 135, 254, 7, 192
        DC8 120, 31, 3, 224, 126, 255, 128, 252, 15, 3, 248, 31, 248, 31, 255
        DC8 254, 7, 129, 251, 254, 3, 255, 255, 0, 0, 63, 240, 127, 191, 192
        DC8 255, 195, 225, 15, 63, 199, 255, 14, 121, 243, 204, 255, 241, 255
        DC8 60, 127, 135, 254, 7, 128, 248, 0, 0, 0, 126, 0, 0, 252, 15, 129
        DC8 248, 31, 248, 31, 255, 254, 7, 192, 248, 0, 3, 255, 255, 255, 193
        DC8 255, 240, 127, 143, 129, 255, 195, 240, 15, 63, 227, 254, 30, 121
        DC8 243, 204, 255, 241, 255, 60, 127, 135, 254, 0, 0, 248, 0, 0, 0, 126
        DC8 0, 1, 252, 15, 128, 248, 31, 248, 31, 255, 254, 7, 192, 120, 0, 7
        DC8 255, 255, 255, 193, 255, 240, 127, 128, 1, 255, 195, 252, 15, 63
        DC8 227, 252, 126, 121, 243, 204, 127, 241, 255, 60, 127, 135, 254, 0
        DC8 1, 248, 0, 0, 0, 126, 0, 3, 252, 15, 192, 248, 31, 248, 31, 255
        DC8 254, 7, 224, 120, 0, 15, 255, 255, 255, 193, 255, 240, 127, 128, 3
        DC8 255, 195, 255, 143, 63, 128, 0, 126, 121, 243, 206, 0, 0, 127, 60
        DC8 127, 135, 254, 0, 3, 248, 0, 0, 0, 126, 0, 15, 252, 15, 192, 120
        DC8 31, 248, 31, 255, 254, 7, 224, 56, 0, 63, 255, 255, 255, 193, 255
        DC8 240, 127, 128, 7, 255, 195, 255, 143, 63, 0, 0, 126, 121, 243, 207
        DC8 0, 0, 63, 60, 127, 135, 254, 0, 15, 248, 0, 0, 0, 127, 128, 63, 252
        DC8 15, 224, 56, 31, 248, 31, 255, 254, 7, 240, 30, 0, 255, 255, 255
        DC8 255, 193, 255, 240, 127, 224, 31, 255, 195, 255, 143, 62, 31, 254
        DC8 126, 121, 243, 207, 159, 254, 31, 60, 127, 135, 255, 255, 255, 255
        DC8 255, 255, 255, 255, 255, 255, 255, 255, 255, 255, 255, 255, 255
        DC8 255, 255, 255, 255, 255, 255, 255, 255, 255, 255, 255, 255, 255
        DC8 255, 255, 255, 255, 195, 255, 143, 60, 127, 254, 126, 121, 243, 207
        DC8 159, 255, 143, 28, 127, 135, 255, 255, 255, 255, 255, 255, 255, 255
        DC8 255, 255, 255, 255, 255, 255, 255, 255, 255, 255, 255, 255, 255
        DC8 255, 255, 255, 255, 255, 255, 255, 255, 255, 255, 255, 255, 255
        DC8 195, 255, 134, 124, 127, 254, 126, 121, 243, 207, 159, 255, 135, 8
        DC8 255, 135, 254, 115, 255, 255, 255, 255, 255, 255, 255, 255, 255
        DC8 255, 255, 255, 255, 255, 255, 255, 255, 255, 255, 255, 255, 255
        DC8 255, 255, 255, 255, 255, 255, 255, 255, 255, 255, 195, 255, 192
        DC8 120, 7, 254, 126, 121, 243, 207, 159, 248, 7, 128, 255, 135, 254
        DC8 115, 255, 255, 255, 255, 255, 255, 255, 255, 255, 255, 255, 255
        DC8 255, 255, 255, 255, 255, 255, 255, 255, 255, 255, 255, 255, 255
        DC8 255, 255, 255, 255, 255, 255, 255, 195, 255, 224, 248, 3, 254, 126
        DC8 124, 231, 207, 159, 240, 7, 193, 255, 135, 254, 115, 255, 255, 255
        DC8 255, 255, 255, 255, 255, 255, 255, 255, 255, 255, 255, 255, 255
        DC8 255, 255, 255, 255, 255, 255, 255, 255, 255, 255, 255, 255, 255
        DC8 255, 255, 255, 195, 255, 249, 249, 225, 254, 126, 124, 7, 207, 159
        DC8 240, 231, 227, 255, 135, 254, 3, 12, 201, 135, 131, 7, 131, 6, 36
        DC8 67, 36, 204, 60, 99, 6, 36, 67, 14, 24, 60, 19, 200, 131, 196, 96
        DC8 136, 146, 100, 153, 9, 248, 96, 255, 195, 255, 249, 249, 241, 254
        DC8 126, 126, 15, 207, 159, 227, 231, 227, 255, 135, 254, 3, 100, 201
        DC8 51, 130, 3, 130, 3, 36, 153, 36, 137, 156, 98, 3, 36, 153, 14, 16
        DC8 28, 19, 201, 1, 228, 224, 201, 146, 100, 145, 9, 224, 100, 255, 195
        DC8 255, 249, 249, 249, 254, 63, 63, 255, 159, 31, 231, 231, 227, 255
        DC8 135, 254, 115, 4, 201, 3, 146, 115, 18, 115, 129, 129, 4, 8, 28, 2
        DC8 115, 129, 129, 159, 51, 152, 144, 67, 57, 228, 196, 201, 146, 100
        DC8 129, 152, 39, 228, 255, 195, 255, 249, 249, 249, 255, 63, 63, 255
        DC8 159, 63, 231, 231, 227, 255, 135, 254, 114, 100, 201, 63, 146, 115
        DC8 18, 115, 129, 159, 4, 9, 252, 18, 115, 129, 159, 159, 51, 152, 146
        DC8 67, 57, 224, 196, 193, 130, 100, 129, 153, 39, 240, 255, 195, 255
        DC8 249, 249, 249, 255, 31, 159, 255, 63, 63, 231, 231, 227, 255, 135
        DC8 254, 114, 100, 1, 7, 146, 2, 50, 3, 36, 131, 36, 72, 60, 146, 3, 36
        DC8 131, 159, 48, 17, 146, 73, 1, 241, 140, 227, 130, 0, 137, 153, 32
        DC8 100, 255, 195, 255, 249, 248, 248, 31, 159, 143, 254, 62, 126, 7
        DC8 199, 227, 255, 135, 254, 115, 4, 1, 135, 147, 6, 51, 6, 36, 67, 36
        DC8 204, 60, 147, 6, 36, 67, 159, 56, 49, 144, 200, 131, 241, 140, 227
        DC8 242, 0, 153, 152, 120, 76, 255, 195, 255, 243, 248, 56, 3, 143, 193
        DC8 240, 124, 112, 7, 7, 227, 255, 135, 255, 255, 255, 255, 255, 255
        DC8 255, 255, 255, 255, 255, 255, 255, 255, 255, 255, 255, 255, 255
        DC8 255, 255, 255, 255, 255, 241, 255, 227, 255, 255, 255, 255, 255
        DC8 255, 255, 195, 255, 243, 242, 63, 225, 207, 240, 1, 252, 241, 255
        DC8 35, 243, 255, 135, 255, 255, 255, 255, 255, 255, 255, 255, 255, 255
        DC8 255, 255, 255, 255, 255, 255, 255, 255, 255, 255, 255, 255, 255
        DC8 255, 195, 255, 135, 255, 255, 255, 255, 255, 255, 255, 195, 255
        DC8 195, 243, 63, 241, 199, 252, 7, 248, 227, 255, 51, 240, 255, 135
        DC8 255, 255, 255, 255, 255, 255, 255, 255, 255, 255, 255, 255, 255
        DC8 255, 255, 255, 255, 255, 255, 255, 255, 255, 255, 255, 199, 255
        DC8 143, 255, 255, 255, 255, 255, 255, 255, 195, 255, 135, 227, 63, 249
        DC8 227, 255, 255, 241, 231, 255, 49, 248, 127, 135, 255, 255, 255, 255
        DC8 255, 255, 255, 255, 255, 255, 255, 255, 255, 255, 255, 255, 255
        DC8 255, 255, 255, 255, 255, 255, 255, 255, 255, 255, 255, 255, 255
        DC8 255, 255, 255, 255, 195, 255, 140, 7, 0, 1, 241, 255, 255, 227, 224
        DC8 0, 56, 12, 127, 135, 255, 255, 255, 255, 255, 255, 255, 255, 255
        DC8 255, 255, 255, 255, 255, 255, 255, 255, 255, 255, 255, 255, 255
        DC8 255, 255, 255, 255, 255, 255, 255, 255, 255, 255, 255, 255, 195
        DC8 255, 140, 15, 0, 1, 248, 255, 255, 199, 224, 0, 60, 12, 127, 135
        DC8 254, 0, 0, 0, 0, 0, 0, 0, 0, 0, 0, 0, 0, 0, 0, 0, 0, 0, 0, 0, 0, 0
        DC8 0, 0, 0, 0, 0, 0, 0, 0, 0, 0, 0, 255, 195, 255, 140, 127, 128, 1
        DC8 252, 63, 255, 15, 224, 0, 127, 140, 127, 135, 254, 0, 0, 0, 0, 0, 0
        DC8 0, 0, 0, 0, 0, 0, 0, 0, 0, 0, 0, 0, 0, 0, 0, 0, 0, 0, 0, 0, 0, 0, 0
        DC8 0, 0, 0, 255, 195, 255, 140, 127, 255, 255, 254, 7, 252, 31, 255
        DC8 255, 255, 140, 127, 135, 254, 0, 0, 0, 0, 0, 0, 0, 0, 0, 0, 0, 0, 0
        DC8 0, 0, 0, 0, 0, 0, 0, 0, 0, 0, 0, 0, 0, 0, 0, 0, 0, 0, 0, 255, 195
        DC8 255, 140, 31, 255, 255, 255, 192, 0, 127, 255, 255, 255, 12, 127
        DC8 135, 254, 0, 0, 0, 0, 0, 0, 0, 0, 0, 0, 0, 0, 0, 0, 0, 0, 0, 0, 0
        DC8 0, 0, 0, 0, 0, 0, 0, 0, 0, 0, 0, 0, 0, 255, 195, 255, 140, 15, 255
        DC8 255, 255, 240, 3, 255, 255, 255, 252, 12, 127, 135, 254, 0, 0, 0, 0
        DC8 0, 0, 0, 0, 0, 0, 0, 0, 0, 0, 0, 0, 0, 0, 0, 0, 0, 0, 0, 0, 0, 0, 0
        DC8 0, 0, 0, 0, 0, 255, 195, 255, 143, 135, 255, 255, 255, 255, 255
        DC8 255, 255, 255, 248, 124, 127, 135, 255, 255, 255, 255, 255, 255
        DC8 255, 255, 255, 255, 255, 255, 255, 255, 255, 255, 255, 255, 255
        DC8 255, 255, 255, 255, 255, 255, 255, 255, 255, 255, 255, 255, 255
        DC8 255, 255, 195, 255, 143, 199, 255, 255, 255, 255, 255, 255, 255
        DC8 255, 248, 252, 127, 135, 255, 255, 255, 255, 255, 255, 255, 255
        DC8 255, 255, 255, 255, 255, 255, 255, 255, 255, 255, 255, 255, 255
        DC8 255, 255, 255, 255, 255, 255, 255, 255, 255, 255, 255, 255, 255
        DC8 195, 255, 143, 227, 255, 255, 255, 255, 255, 255, 255, 255, 249
        DC8 252, 127, 135, 255, 255, 255, 255, 255, 255, 255, 255, 255, 255
        DC8 255, 255, 255, 255, 255, 255, 255, 255, 255, 255, 255, 255, 255
        DC8 255, 255, 255, 255, 255, 255, 255, 255, 255, 255, 255, 195, 255
        DC8 128, 3, 255, 255, 254, 97, 241, 135, 255, 255, 248, 0, 127, 135
        DC8 255, 255, 255, 255, 255, 255, 255, 255, 255, 255, 255, 255, 255
        DC8 255, 255, 255, 255, 255, 255, 255, 255, 255, 255, 255, 255, 255
        DC8 255, 255, 255, 255, 255, 255, 255, 255, 195, 255, 128, 3, 255, 255
        DC8 248, 64, 241, 131, 255, 255, 248, 0, 127, 135, 255, 255, 255, 255
        DC8 255, 255, 255, 255, 255, 255, 255, 255, 255, 255, 255, 255, 255
        DC8 255, 255, 255, 255, 255, 255, 255, 255, 255, 255, 255, 255, 255
        DC8 255, 255, 255, 255, 195, 255, 192, 7, 255, 255, 248, 76, 225, 243
        DC8 255, 255, 248, 0, 127, 135, 255, 255, 255, 255, 255, 255, 255, 255
        DC8 255, 255, 255, 255, 255, 255, 255, 255, 255, 255, 255, 255, 255
        DC8 255, 255, 255, 255, 255, 255, 255, 255, 255, 255, 255, 255, 255
        DC8 195, 255, 255, 255, 255, 255, 254, 64, 193, 199, 255, 255, 255, 255
        DC8 255, 135, 255, 255, 255, 255, 255, 255, 255, 255, 255, 255, 255
        DC8 255, 255, 255, 255, 255, 255, 255, 255, 255, 255, 255, 255, 255
        DC8 255, 255, 255, 255, 255, 255, 255, 255, 255, 255, 195, 255, 255
        DC8 255, 255, 255, 254, 96, 201, 195, 255, 255, 255, 255, 255, 135, 255
        DC8 255, 255, 255, 255, 255, 255, 255, 255, 255, 255, 255, 255, 255
        DC8 255, 255, 255, 255, 255, 255, 255, 255, 255, 255, 255, 255, 255
        DC8 255, 255, 255, 255, 255, 255, 255, 195, 255, 255, 255, 255, 255
        DC8 254, 124, 128, 243, 255, 255, 255, 255, 255, 135, 255, 255, 255
        DC8 255, 255, 255, 255, 255, 255, 255, 255, 255, 255, 255, 255, 255
        DC8 255, 255, 255, 255, 255, 255, 255, 255, 255, 255, 255, 255, 255
        DC8 255, 255, 255, 255, 255, 195, 255, 255, 255, 255, 255, 254, 65, 128
        DC8 131, 255, 255, 255, 255, 255, 135, 255, 255, 255, 255, 255, 255
        DC8 255, 255, 255, 255, 255, 255, 255, 255, 255, 255, 255, 255, 255
        DC8 255, 255, 255, 255, 255, 255, 255, 255, 255, 255, 255, 255, 255
        DC8 255, 255, 195, 255, 255, 255, 255, 255, 252, 67, 249, 135, 255, 255
        DC8 255, 255, 255, 135, 255, 255, 255, 255, 255, 255, 255, 255, 255
        DC8 255, 255, 255, 255, 255, 255, 255, 255, 255, 255, 255, 255, 255
        DC8 255, 255, 255, 255, 255, 255, 255, 255, 255, 255, 255, 255, 195
        DC8 255, 255, 255, 255, 255, 255, 255, 255, 255, 255, 255, 255, 255
        DC8 255, 135, 255, 255, 255, 255, 255, 255, 255, 255, 255, 255, 255
        DC8 255, 255, 255, 255, 255, 255, 255, 255, 255, 255, 255, 255, 255
        DC8 255, 255, 255, 255, 255, 255, 255, 255, 255, 255, 195, 255, 255
        DC8 255, 255, 255, 255, 255, 255, 255, 255, 255, 255, 255, 255, 135
        DC8 255, 255, 255, 255, 255, 255, 255, 255, 255, 255, 255, 255, 255
        DC8 255, 255, 255, 255, 255, 255, 255, 255, 255, 255, 255, 255, 255
        DC8 255, 255, 255, 255, 255, 255, 255, 255, 195, 255, 255, 255, 255
        DC8 255, 255, 255, 255, 255, 255, 255, 255, 255, 255, 135, 255, 255
        DC8 255, 255, 255, 255, 255, 255, 255, 255, 255, 255, 255, 255, 255
        DC8 255, 255, 255, 255, 255, 255, 255, 255, 255, 255, 255, 255, 255
        DC8 255, 255, 255, 255, 255, 255, 192, 0, 0, 0, 0, 0, 0, 0, 0, 0, 0, 0
        DC8 0, 0, 0, 7, 255, 255, 255, 255, 255, 255, 255, 255, 255, 255, 255
        DC8 255, 255, 255, 255, 255, 255, 255, 255, 255, 255, 255, 255, 255
        DC8 255, 255, 255, 255, 255, 255, 255, 255, 255, 255, 192, 0, 0, 0, 0
        DC8 0, 0, 0, 0, 0, 0, 0, 0, 0, 0, 7, 255, 255, 255, 255, 255, 255, 255
        DC8 255, 255, 255, 255, 255, 255, 255, 255, 255, 255, 255, 255, 255
        DC8 255, 255, 255, 255, 255, 255, 255, 255, 255, 255, 255, 255, 255
        DC8 255, 192, 0, 0, 0, 0, 0, 0, 0, 0, 0, 0, 0, 0, 0, 0, 7, 255, 255
        DC8 255, 255, 255, 255, 255, 255, 255, 255, 255, 255, 255, 255, 255
        DC8 255, 255, 255, 255, 255, 255, 255, 255, 255, 255, 255, 255, 255
        DC8 255, 255, 255, 255, 255, 255, 255, 255, 255, 255, 255, 255, 255
        DC8 255, 255, 255, 255, 255, 255, 255, 255, 255, 255, 255, 255, 255
        DC8 255, 255, 255, 255, 255, 255, 255, 255, 255, 255, 255, 255, 255
        DC8 255, 255, 255, 255, 255, 255, 255, 255, 255, 255, 255, 255, 255
        DC8 255, 255, 255, 255, 255, 255, 255, 255, 255, 255, 255, 255, 255
        DC8 255, 255, 255, 255, 255, 255, 255, 255, 255, 255, 255, 255, 255
        DC8 255, 255, 255, 255, 255, 255, 255, 255, 255, 255, 255, 255, 255
        DC8 255, 255, 255, 255, 255, 255, 255, 255, 255, 255, 255, 255, 255
        DC8 255, 255, 255, 255, 255, 255, 255, 255, 255, 255, 255, 255, 255
        DC8 255, 255, 255, 255, 255, 255, 255, 255, 255, 255, 255, 255, 255
        DC8 255, 255, 255, 255, 255, 255, 255, 255, 255, 255, 255, 255, 255
        DC8 255, 255, 255, 255, 255, 255, 255, 255, 255, 255, 255, 255, 255
        DC8 255, 255, 255, 255, 255, 255, 255, 255, 255, 255, 255, 255, 255
        DC8 255, 255, 255, 255, 255, 255, 255, 255, 255, 255, 255, 255, 255
        DC8 255, 255, 255, 255, 255, 255, 255, 255, 255, 255, 255, 255, 255
        DC8 255, 255, 255, 255, 255, 255, 255, 255, 255, 255, 255, 255, 255
        DC8 255, 255, 255, 255, 255, 255, 255, 255, 255, 255, 255, 255, 255
        DC8 255, 255, 255, 255, 255, 255, 255, 255, 255, 255, 255, 255, 255
        DC8 255, 255, 255, 255, 255, 255, 255, 255, 255, 255, 255, 255, 255
        DC8 255, 255, 255, 255, 255, 255, 255, 255, 255

        SECTION `.bss`:DATA:REORDER:NOROOT(2)
        DATA
// __absolute ScreenDriver<(uint16_t)400U, (uint16_t)300U> screen
screen:
        DS8 15'016

        SECTION `.bss`:DATA:REORDER:NOROOT(0)
        DATA
// __absolute Display<eInkDisplay, screen> display
display:
        DS8 1

        SECTION `.rodata`:CONST:REORDER:NOROOT(3)
        DATA
?_17:
        DATA64
        DC64 3'000
//    8 #include "epddriverconfig.h"
//    9 
//   10 #include "rccregisters.hpp"    // for RCC
//   11 #include "gpioaregisters.hpp"  // for GPIOA
//   12 #include "gpiobregisters.hpp"  // for GPIOB
//   13 #include "gpiocregisters.hpp"  // for GPIOC
//   14 #include "usart2registers.hpp" // for USART2
//   15 #include "nvicregisters.hpp"   // for NVIC
//   16 #include "spi1registers.hpp"   // for SPI1
//   17 #include "spi2registers.hpp"   // for SPI2
//   18 

        SECTION `.data`:DATA:REORDER:NOROOT(2)
        DATA
//   19 std::uint32_t SystemCoreClock = 16'000'000U;
SystemCoreClock:
        DATA32
        DC32 16'000'000
//   20 
//   21 extern "C" {

        SECTION `.text`:CODE:NOROOT(1)
          CFI Block cfiBlock7 Using cfiCommon0
          CFI Function __low_level_init
        THUMB
//   22   int __low_level_init(void)
//   23   {
__low_level_init:
        PUSH     {R3-R7,LR}
          CFI R14 Frame(CFA, -4)
          CFI R7 Frame(CFA, -8)
          CFI R6 Frame(CFA, -12)
          CFI R5 Frame(CFA, -16)
          CFI R4 Frame(CFA, -20)
          CFI CFA R13+24
        VPUSH    {D8}
          CFI D8 Frame(CFA, -32)
          CFI CFA R13+32
//   24     //Switch on external 16 MHz oscillator
//   25     RCC::CR::HSION::On::Set();
          CFI FunCall _ZN14FieldValueBaseI19RCC_CR_HSION_ValuesIN3RCC2CRELj0ELj1E13ReadWriteModeNS1_9RCCCRBaseEES4_Lj1EE3SetIS3_vEEvv
        BL       _ZN14FieldValueBaseI19RCC_CR_HSION_ValuesIN3RCC2CRELj0ELj1E13ReadWriteModeNS1_9RCCCRBaseEES4_Lj1EE3SetIS3_vEEvv
//   26     while (RCC::CR::HSIRDY::NotReady::IsSet())
??__low_level_init_0:
          CFI FunCall _ZN14FieldValueBaseI20RCC_CR_HSIRDY_ValuesIN3RCC2CRELj1ELj1E8ReadModeNS1_9RCCCRBaseEES4_Lj0EE5IsSetIS3_vEEbv
        BL       _ZN14FieldValueBaseI20RCC_CR_HSIRDY_ValuesIN3RCC2CRELj1ELj1E8ReadModeNS1_9RCCCRBaseEES4_Lj0EE5IsSetIS3_vEEbv
        CMP      R0,#+0
        BNE.N    ??__low_level_init_0
//   27     {
//   28     }
//   29     
//   30     //Switch system clock on external oscillator
//   31     RCC::CFGR::SW::Hsi::Set();
          CFI FunCall _ZN14FieldValueBaseI18RCC_CFGR_SW_ValuesIN3RCC4CFGRELj0ELj2E13ReadWriteModeNS1_11RCCCFGRBaseEES4_Lj0EE3SetIS3_vEEvv
        BL       _ZN14FieldValueBaseI18RCC_CFGR_SW_ValuesIN3RCC4CFGRELj0ELj2E13ReadWriteModeNS1_11RCCCFGRBaseEES4_Lj0EE3SetIS3_vEEvv
//   32     while (!RCC::CFGR::SWS::Hsi::IsSet())
??__low_level_init_1:
          CFI FunCall _ZN14FieldValueBaseI19RCC_CFGR_SWS_ValuesIN3RCC4CFGRELj2ELj2E8ReadModeNS1_11RCCCFGRBaseEES4_Lj0EE5IsSetIS3_vEEbv
        BL       _ZN14FieldValueBaseI19RCC_CFGR_SWS_ValuesIN3RCC4CFGRELj2ELj2E8ReadModeNS1_11RCCCFGRBaseEES4_Lj0EE5IsSetIS3_vEEbv
        CMP      R0,#+0
        BEQ.N    ??__low_level_init_1
//   33     {
//   34     }
//   35     
//   36     RCC::AHB1ENR::GPIOAEN::Enable::Set();
          CFI FunCall _ZN14FieldValueBaseI26RCC_AHB1ENR_GPIOAEN_ValuesIN3RCC7AHB1ENRELj0ELj1E13ReadWriteModeNS1_14RCCAHB1ENRBaseEES4_Lj1EE3SetIS3_vEEvv
        BL       _ZN14FieldValueBaseI26RCC_AHB1ENR_GPIOAEN_ValuesIN3RCC7AHB1ENRELj0ELj1E13ReadWriteModeNS1_14RCCAHB1ENRBaseEES4_Lj1EE3SetIS3_vEEvv
//   37     //USART config
//   38     RCC::APB1ENR::USART2EN::Enable::Set();
          CFI FunCall _ZN14FieldValueBaseI25RCC_AHB1ENR_DMA2EN_ValuesIN3RCC7APB1ENRELj17ELj1E13ReadWriteModeNS1_14RCCAPB1ENRBaseEES4_Lj1EE3SetIS3_vEEvv
        BL       _ZN14FieldValueBaseI25RCC_AHB1ENR_DMA2EN_ValuesIN3RCC7APB1ENRELj17ELj1E13ReadWriteModeNS1_14RCCAPB1ENRBaseEES4_Lj1EE3SetIS3_vEEvv
//   39     GPIOA::MODER::MODER3::Alternate::Set();
          CFI FunCall _ZN14FieldValueBaseI26GPIOA_MODER_MODER15_ValuesIN5GPIOA5MODERELj6ELj2E13ReadWriteModeNS1_14GPIOAMODERBaseEES4_Lj2EE3SetIS3_vEEvv
        BL       _ZN14FieldValueBaseI26GPIOA_MODER_MODER15_ValuesIN5GPIOA5MODERELj6ELj2E13ReadWriteModeNS1_14GPIOAMODERBaseEES4_Lj2EE3SetIS3_vEEvv
//   40     GPIOA::MODER::MODER2::Alternate::Set();
          CFI FunCall _ZN14FieldValueBaseI26GPIOA_MODER_MODER15_ValuesIN5GPIOA5MODERELj4ELj2E13ReadWriteModeNS1_14GPIOAMODERBaseEES4_Lj2EE3SetIS3_vEEvv
        BL       _ZN14FieldValueBaseI26GPIOA_MODER_MODER15_ValuesIN5GPIOA5MODERELj4ELj2E13ReadWriteModeNS1_14GPIOAMODERBaseEES4_Lj2EE3SetIS3_vEEvv
//   41     GPIOA::AFRL::AFRL3::Af7::Set();
          CFI FunCall _ZN14FieldValueBaseI23GPIOA_AFRL_AFRL7_ValuesIN5GPIOA4AFRLELj12ELj4E13ReadWriteModeNS1_13GPIOAAFRLBaseEES4_Lj7EE3SetIS3_vEEvv
        BL       _ZN14FieldValueBaseI23GPIOA_AFRL_AFRL7_ValuesIN5GPIOA4AFRLELj12ELj4E13ReadWriteModeNS1_13GPIOAAFRLBaseEES4_Lj7EE3SetIS3_vEEvv
//   42     GPIOA::AFRL::AFRL2::Af7::Set();
          CFI FunCall _ZN14FieldValueBaseI23GPIOA_AFRL_AFRL7_ValuesIN5GPIOA4AFRLELj8ELj4E13ReadWriteModeNS1_13GPIOAAFRLBaseEES4_Lj7EE3SetIS3_vEEvv
        BL       _ZN14FieldValueBaseI23GPIOA_AFRL_AFRL7_ValuesIN5GPIOA4AFRLELj8ELj4E13ReadWriteModeNS1_13GPIOAAFRLBaseEES4_Lj7EE3SetIS3_vEEvv
//   43     GPIOA::PUPDR::PUPDR2::NoPullUpNoPullDown::Set();
          CFI FunCall _ZN14FieldValueBaseI26GPIOA_PUPDR_PUPDR15_ValuesIN5GPIOA5PUPDRELj4ELj2E13ReadWriteModeNS1_14GPIOAPUPDRBaseEES4_Lj0EE3SetIS3_vEEvv
        BL       _ZN14FieldValueBaseI26GPIOA_PUPDR_PUPDR15_ValuesIN5GPIOA5PUPDRELj4ELj2E13ReadWriteModeNS1_14GPIOAPUPDRBaseEES4_Lj0EE3SetIS3_vEEvv
//   44     GPIOA::PUPDR::PUPDR3::PullUp::Set();
          CFI FunCall _ZN14FieldValueBaseI26GPIOA_PUPDR_PUPDR15_ValuesIN5GPIOA5PUPDRELj6ELj2E13ReadWriteModeNS1_14GPIOAPUPDRBaseEES4_Lj1EE3SetIS3_vEEvv
        BL       _ZN14FieldValueBaseI26GPIOA_PUPDR_PUPDR15_ValuesIN5GPIOA5PUPDRELj6ELj2E13ReadWriteModeNS1_14GPIOAPUPDRBaseEES4_Lj1EE3SetIS3_vEEvv
//   45     USART2::CR1::OVER8::OversamplingBy16::Set();
          CFI FunCall _ZN14FieldValueBaseI23USART2_CR1_OVER8_ValuesIN6USART23CR1ELj15ELj1E13ReadWriteModeNS1_13USART2CR1BaseEES4_Lj0EE3SetIS3_vEEvv
        BL       _ZN14FieldValueBaseI23USART2_CR1_OVER8_ValuesIN6USART23CR1ELj15ELj1E13ReadWriteModeNS1_13USART2CR1BaseEES4_Lj0EE3SetIS3_vEEvv
//   46     USART2::CR1::M::Data8bits::Set();
          CFI FunCall _ZN14FieldValueBaseI19USART2_CR1_M_ValuesIN6USART23CR1ELj12ELj1E13ReadWriteModeNS1_13USART2CR1BaseEES4_Lj0EE3SetIS3_vEEvv
        BL       _ZN14FieldValueBaseI19USART2_CR1_M_ValuesIN6USART23CR1ELj12ELj1E13ReadWriteModeNS1_13USART2CR1BaseEES4_Lj0EE3SetIS3_vEEvv
//   47     USART2::CR2::STOP::OneStopBit::Set();
          CFI FunCall _ZN14FieldValueBaseI22USART2_CR2_STOP_ValuesIN6USART23CR2ELj12ELj2E13ReadWriteModeNS1_13USART2CR2BaseEES4_Lj0EE3SetIS3_vEEvv
        BL       _ZN14FieldValueBaseI22USART2_CR2_STOP_ValuesIN6USART23CR2ELj12ELj2E13ReadWriteModeNS1_13USART2CR2BaseEES4_Lj0EE3SetIS3_vEEvv
//   48     USART2::CR1::PCE::ParityControlDisable::Set();
          CFI FunCall _ZN14FieldValueBaseI21USART2_CR1_PCE_ValuesIN6USART23CR1ELj10ELj1E13ReadWriteModeNS1_13USART2CR1BaseEES4_Lj0EE3SetIS3_vEEvv
        BL       _ZN14FieldValueBaseI21USART2_CR1_PCE_ValuesIN6USART23CR1ELj10ELj1E13ReadWriteModeNS1_13USART2CR1BaseEES4_Lj0EE3SetIS3_vEEvv
//   49     USART2::CR1::RE::Enable::Set();
          CFI FunCall _ZN14FieldValueBaseI20USART2_CR1_RE_ValuesIN6USART23CR1ELj2ELj1E13ReadWriteModeNS1_13USART2CR1BaseEES4_Lj1EE3SetIS3_vEEvv
        BL       _ZN14FieldValueBaseI20USART2_CR1_RE_ValuesIN6USART23CR1ELj2ELj1E13ReadWriteModeNS1_13USART2CR1BaseEES4_Lj1EE3SetIS3_vEEvv
//   50     NVIC::ISER1::Write(1<<6);
        MOVS     R0,#+64
          CFI FunCall _ZN12RegisterBaseILj3758153988ELj32E13ReadWriteModeE5WriteIS0_vEEvj
        BL       _ZN12RegisterBaseILj3758153988ELj32E13ReadWriteModeE5WriteIS0_vEEvj
//   51     USART2::CR1::RXNEIE::InterruptWhenRXNE::Set();
          CFI FunCall _ZN14FieldValueBaseI24USART2_CR1_RXNEIE_ValuesIN6USART23CR1ELj5ELj1E13ReadWriteModeNS1_13USART2CR1BaseEES4_Lj1EE3SetIS3_vEEvv
        BL       _ZN14FieldValueBaseI24USART2_CR1_RXNEIE_ValuesIN6USART23CR1ELj5ELj1E13ReadWriteModeNS1_13USART2CR1BaseEES4_Lj1EE3SetIS3_vEEvv
//   52     constexpr uint32_t CLC = 16'000'000U;
        LDR.N    R4,??DataTable7_32  ;; 0xf42400
//   53     constexpr uint32_t BaudRate=9600;
        MOV      R5,#+9600
//   54     double UsartDivDouble = 1.0/(BaudRate*8*(2 - USART2::CR1::OVER8::Get()))*CLC;
          CFI FunCall _ZN13RegisterFieldIN6USART23CR1ELj15ELj1E13ReadWriteModevE3GetIS2_vEEjv
        BL       _ZN13RegisterFieldIN6USART23CR1ELj15ELj1E13ReadWriteModevE3GetIS2_vEEjv
        RSBS     R0,R0,#+2
        MOVS     R1,#+76800
        MULS     R0,R1,R0
          CFI FunCall __aeabi_ui2d
        BL       __aeabi_ui2d
        MOVS     R2,R0
        MOVS     R3,R1
        MOVS     R0,#+0
        LDR.N    R1,??DataTable7_33  ;; 0x3ff00000
          CFI FunCall __aeabi_ddiv
        BL       __aeabi_ddiv
        MOVS     R2,#+0
        LDR.N    R3,??DataTable7_34  ;; 0x416e8480
          CFI FunCall __aeabi_dmul
        BL       __aeabi_dmul
        VMOV     D8,R0,R1
//   55     uint32_t UsartDivMantissa=static_cast<uint32_t>(UsartDivDouble);
        VMOV     R0,R1,D8
          CFI FunCall __aeabi_d2uiz
        BL       __aeabi_d2uiz
        MOVS     R6,R0
//   56     uint16_t UsartDivFraction=static_cast<uint16_t>(round((UsartDivDouble-UsartDivMantissa)*16));
        MOVS     R0,R6
          CFI FunCall __aeabi_ui2d
        BL       __aeabi_ui2d
        MOVS     R2,R0
        MOVS     R3,R1
        VMOV     R0,R1,D8
          CFI FunCall __aeabi_dsub
        BL       __aeabi_dsub
        MOVS     R2,#+0
        LDR.N    R3,??DataTable7_35  ;; 0x40300000
          CFI FunCall __aeabi_dmul
        BL       __aeabi_dmul
        VMOV     D0,R0,R1
          CFI FunCall round
        BL       round
        VMOV     R0,R1,D0
          CFI FunCall __aeabi_d2iz
        BL       __aeabi_d2iz
        MOVS     R7,R0
//   57     USART2::BRR::DIV_Mantissa::Set(UsartDivMantissa);
        MOVS     R0,R6
          CFI FunCall _ZN13RegisterFieldIN6USART23BRRELj4ELj12E13ReadWriteModevE3SetIS2_vEEvj
        BL       _ZN13RegisterFieldIN6USART23BRRELj4ELj12E13ReadWriteModevE3SetIS2_vEEvj
//   58     USART2::BRR::DIV_Fraction::Set(UsartDivFraction);
        MOVS     R0,R7
        UXTH     R0,R0            ;; ZeroExt  R0,R0,#+16,#+16
          CFI FunCall _ZN13RegisterFieldIN6USART23BRRELj0ELj4E13ReadWriteModevE3SetIS2_vEEvj
        BL       _ZN13RegisterFieldIN6USART23BRRELj0ELj4E13ReadWriteModevE3SetIS2_vEEvj
//   59     
//   60     RCC::AHB1ENRPack<
//   61       RCC::AHB1ENR::GPIOCEN::Enable,
//   62       RCC::AHB1ENR::GPIOBEN::Enable,
//   63       RCC::AHB1ENR::GPIOAEN::Enable
//   64         >::Set();
          CFI FunCall _ZN8RegisterILj1073887280ELj32E13ReadWriteModeN3RCC14RCCAHB1ENRBaseEJ10FieldValueI26RCC_AHB1ENR_GPIOCEN_ValuesINS1_7AHB1ENRELj2ELj1ES0_S2_ES2_Lj1EvES3_I26RCC_AHB1ENR_GPIOBEN_ValuesIS5_Lj1ELj1ES0_S2_ES2_Lj1EvES3_I26RCC_AHB1ENR_GPIOAEN_ValuesIS5_Lj0ELj1ES0_S2_ES2_Lj1EvEEE3SetIS0_vEEvv
        BL       _ZN8RegisterILj1073887280ELj32E13ReadWriteModeN3RCC14RCCAHB1ENRBaseEJ10FieldValueI26RCC_AHB1ENR_GPIOCEN_ValuesINS1_7AHB1ENRELj2ELj1ES0_S2_ES2_Lj1EvES3_I26RCC_AHB1ENR_GPIOBEN_ValuesIS5_Lj1ELj1ES0_S2_ES2_Lj1EvES3_I26RCC_AHB1ENR_GPIOAEN_ValuesIS5_Lj0ELj1ES0_S2_ES2_Lj1EvEEE3SetIS0_vEEvv
//   65     
//   66     //SPI2 config(for e-Ink Display)
//   67     RCC::APB1ENR::SPI2EN::Enable::Set();
          CFI FunCall _ZN14FieldValueBaseI25RCC_AHB1ENR_DMA2EN_ValuesIN3RCC7APB1ENRELj14ELj1E13ReadWriteModeNS1_14RCCAPB1ENRBaseEES4_Lj1EE3SetIS3_vEEvv
        BL       _ZN14FieldValueBaseI25RCC_AHB1ENR_DMA2EN_ValuesIN3RCC7APB1ENRELj14ELj1E13ReadWriteModeNS1_14RCCAPB1ENRBaseEES4_Lj1EE3SetIS3_vEEvv
//   68     NVIC::ISER1::Write(1<<4);
        MOVS     R0,#+16
          CFI FunCall _ZN12RegisterBaseILj3758153988ELj32E13ReadWriteModeE5WriteIS0_vEEvj
        BL       _ZN12RegisterBaseILj3758153988ELj32E13ReadWriteModeE5WriteIS0_vEEvj
//   69     SPI2::CR1::MSTR::Master::Set();
          CFI FunCall _ZN14FieldValueBaseI20SPI2_CR1_MSTR_ValuesIN4SPI23CR1ELj2ELj1E13ReadWriteModeNS1_11SPI2CR1BaseEES4_Lj1EE3SetIS3_vEEvv
        BL       _ZN14FieldValueBaseI20SPI2_CR1_MSTR_ValuesIN4SPI23CR1ELj2ELj1E13ReadWriteModeNS1_11SPI2CR1BaseEES4_Lj1EE3SetIS3_vEEvv
//   70     SPI2::CR1::BIDIMODE::Unidirectional2Line::Set();
          CFI FunCall _ZN14FieldValueBaseI24SPI2_CR1_BIDIMODE_ValuesIN4SPI23CR1ELj15ELj1E13ReadWriteModeNS1_11SPI2CR1BaseEES4_Lj0EE3SetIS3_vEEvv
        BL       _ZN14FieldValueBaseI24SPI2_CR1_BIDIMODE_ValuesIN4SPI23CR1ELj15ELj1E13ReadWriteModeNS1_11SPI2CR1BaseEES4_Lj0EE3SetIS3_vEEvv
//   71     SPI2::CR1::DFF::Data8bit::Set();
          CFI FunCall _ZN14FieldValueBaseI19SPI2_CR1_DFF_ValuesIN4SPI23CR1ELj11ELj1E13ReadWriteModeNS1_11SPI2CR1BaseEES4_Lj0EE3SetIS3_vEEvv
        BL       _ZN14FieldValueBaseI19SPI2_CR1_DFF_ValuesIN4SPI23CR1ELj11ELj1E13ReadWriteModeNS1_11SPI2CR1BaseEES4_Lj0EE3SetIS3_vEEvv
//   72     SPI2::CR1::CPOL::High::Set();
          CFI FunCall _ZN14FieldValueBaseI20SPI2_CR1_CPOL_ValuesIN4SPI23CR1ELj1ELj1E13ReadWriteModeNS1_11SPI2CR1BaseEES4_Lj1EE3SetIS3_vEEvv
        BL       _ZN14FieldValueBaseI20SPI2_CR1_CPOL_ValuesIN4SPI23CR1ELj1ELj1E13ReadWriteModeNS1_11SPI2CR1BaseEES4_Lj1EE3SetIS3_vEEvv
//   73     SPI2::CR1::CPHA::Phase2edge::Set();
          CFI FunCall _ZN14FieldValueBaseI20SPI2_CR1_CPHA_ValuesIN4SPI23CR1ELj0ELj1E13ReadWriteModeNS1_11SPI2CR1BaseEES4_Lj1EE3SetIS3_vEEvv
        BL       _ZN14FieldValueBaseI20SPI2_CR1_CPHA_ValuesIN4SPI23CR1ELj0ELj1E13ReadWriteModeNS1_11SPI2CR1BaseEES4_Lj1EE3SetIS3_vEEvv
//   74     SPI2::CR1::SSM::NssSoftwareEnable::Set();
          CFI FunCall _ZN14FieldValueBaseI19SPI2_CR1_SSM_ValuesIN4SPI23CR1ELj9ELj1E13ReadWriteModeNS1_11SPI2CR1BaseEES4_Lj1EE3SetIS3_vEEvv
        BL       _ZN14FieldValueBaseI19SPI2_CR1_SSM_ValuesIN4SPI23CR1ELj9ELj1E13ReadWriteModeNS1_11SPI2CR1BaseEES4_Lj1EE3SetIS3_vEEvv
//   75     SPI2::CR1::SSI::Value1::Set();
          CFI FunCall _ZN14FieldValueBaseI19SPI2_CR1_SSI_ValuesIN4SPI23CR1ELj8ELj1E13ReadWriteModeNS1_11SPI2CR1BaseEES4_Lj1EE3SetIS3_vEEvv
        BL       _ZN14FieldValueBaseI19SPI2_CR1_SSI_ValuesIN4SPI23CR1ELj8ELj1E13ReadWriteModeNS1_11SPI2CR1BaseEES4_Lj1EE3SetIS3_vEEvv
//   76     SPI2::CR1::BR::PclockDiv2::Set();
          CFI FunCall _ZN14FieldValueBaseI18SPI2_CR1_BR_ValuesIN4SPI23CR1ELj3ELj3E13ReadWriteModeNS1_11SPI2CR1BaseEES4_Lj0EE3SetIS3_vEEvv
        BL       _ZN14FieldValueBaseI18SPI2_CR1_BR_ValuesIN4SPI23CR1ELj3ELj3E13ReadWriteModeNS1_11SPI2CR1BaseEES4_Lj0EE3SetIS3_vEEvv
//   77     SPI2::CR1::LSBFIRST::MsbFisrt::Set();
          CFI FunCall _ZN14FieldValueBaseI24SPI2_CR1_LSBFIRST_ValuesIN4SPI23CR1ELj7ELj1E13ReadWriteModeNS1_11SPI2CR1BaseEES4_Lj0EE3SetIS3_vEEvv
        BL       _ZN14FieldValueBaseI24SPI2_CR1_LSBFIRST_ValuesIN4SPI23CR1ELj7ELj1E13ReadWriteModeNS1_11SPI2CR1BaseEES4_Lj0EE3SetIS3_vEEvv
//   78     SPI2::CR1::CRCEN::CrcCalcDisable::Set();
          CFI FunCall _ZN14FieldValueBaseI21SPI2_CR1_CRCEN_ValuesIN4SPI23CR1ELj13ELj1E13ReadWriteModeNS1_11SPI2CR1BaseEES4_Lj0EE3SetIS3_vEEvv
        BL       _ZN14FieldValueBaseI21SPI2_CR1_CRCEN_ValuesIN4SPI23CR1ELj13ELj1E13ReadWriteModeNS1_11SPI2CR1BaseEES4_Lj0EE3SetIS3_vEEvv
//   79     SPI2::CRCPR::CRCPOLY::Set(10U) ;
        MOVS     R0,#+10
          CFI FunCall _ZN13RegisterFieldIN4SPI25CRCPRELj0ELj16E13ReadWriteModevE3SetIS2_vEEvj
        BL       _ZN13RegisterFieldIN4SPI25CRCPRELj0ELj16E13ReadWriteModevE3SetIS2_vEEvj
//   80     
//   81     // PortB.13 - SPI2_CLK, PortB.15 - SPI2_MOSI, PB1 -CS, PB2- DC
//   82     GPIOB::MODERPack<
//   83       GPIOB::MODER::MODER1::Output,         //CS
//   84       GPIOB::MODER::MODER2::Output,         //DC
//   85       GPIOB::MODER::MODER13::Alternate,     //SPI2_CLK
//   86       GPIOB::MODER::MODER15::Alternate      //SPI2_MOSI
//   87         >::Set() ;
          CFI FunCall _ZN8RegisterILj1073873920ELj32E13ReadWriteModeN5GPIOB14GPIOBMODERBaseEJ10FieldValueI26GPIOB_MODER_MODER15_ValuesINS1_5MODERELj2ELj2ES0_S2_ES2_Lj1EvES3_IS4_IS5_Lj4ELj2ES0_S2_ES2_Lj1EvES3_IS4_IS5_Lj26ELj2ES0_S2_ES2_Lj2EvES3_IS4_IS5_Lj30ELj2ES0_S2_ES2_Lj2EvEEE3SetIS0_vEEvv
        BL       _ZN8RegisterILj1073873920ELj32E13ReadWriteModeN5GPIOB14GPIOBMODERBaseEJ10FieldValueI26GPIOB_MODER_MODER15_ValuesINS1_5MODERELj2ELj2ES0_S2_ES2_Lj1EvES3_IS4_IS5_Lj4ELj2ES0_S2_ES2_Lj1EvES3_IS4_IS5_Lj26ELj2ES0_S2_ES2_Lj2EvES3_IS4_IS5_Lj30ELj2ES0_S2_ES2_Lj2EvEEE3SetIS0_vEEvv
//   88     GPIOB::AFRHPack<
//   89       GPIOB::AFRH::AFRH13::Af5,
//   90       GPIOB::AFRH::AFRH15::Af5
//   91         >::Set() ;
          CFI FunCall _ZN8RegisterILj1073873956ELj32E13ReadWriteModeN5GPIOB13GPIOBAFRHBaseEJ10FieldValueI23GPIOB_AFRL_AFRL7_ValuesINS1_4AFRHELj20ELj4ES0_S2_ES2_Lj5EvES3_IS4_IS5_Lj28ELj4ES0_S2_ES2_Lj5EvEEE3SetIS0_vEEvv
        BL       _ZN8RegisterILj1073873956ELj32E13ReadWriteModeN5GPIOB13GPIOBAFRHBaseEJ10FieldValueI23GPIOB_AFRL_AFRL7_ValuesINS1_4AFRHELj20ELj4ES0_S2_ES2_Lj5EvES3_IS4_IS5_Lj28ELj4ES0_S2_ES2_Lj5EvEEE3SetIS0_vEEvv
//   92     GPIOB::BSRR::BS1::High::Write() ;
          CFI FunCall _ZN14FieldValueBaseI21GPIOB_BSRR_BS1_ValuesIN5GPIOB4BSRRELj1ELj1E9WriteModeNS1_13GPIOBBSRRBaseEES4_Lj1EE5WriteIS3_vEEvv
        BL       _ZN14FieldValueBaseI21GPIOB_BSRR_BS1_ValuesIN5GPIOB4BSRRELj1ELj1E9WriteModeNS1_13GPIOBBSRRBaseEES4_Lj1EE5WriteIS3_vEEvv
//   93     
//   94     GPIOC::MODERPack<
//   95       GPIOC::MODER::MODER2::Input,         //Busy
//   96       GPIOC::MODER::MODER3::Output         //Reset
//   97         >::Set() ;        
          CFI FunCall _ZN8RegisterILj1073874944ELj32E13ReadWriteModeN5GPIOC14GPIOCMODERBaseEJ10FieldValueI26GPIOC_MODER_MODER15_ValuesINS1_5MODERELj4ELj2ES0_S2_ES2_Lj0EvES3_IS4_IS5_Lj6ELj2ES0_S2_ES2_Lj1EvEEE3SetIS0_vEEvv
        BL       _ZN8RegisterILj1073874944ELj32E13ReadWriteModeN5GPIOC14GPIOCMODERBaseEJ10FieldValueI26GPIOC_MODER_MODER15_ValuesINS1_5MODERELj4ELj2ES0_S2_ES2_Lj0EvES3_IS4_IS5_Lj6ELj2ES0_S2_ES2_Lj1EvEEE3SetIS0_vEEvv
//   98     
//   99     //SPI1 config
//  100     RCC::APB2ENR::SPI1EN::Enable::Set();
          CFI FunCall _ZN14FieldValueBaseI25RCC_AHB1ENR_DMA2EN_ValuesIN3RCC7APB2ENRELj12ELj1E13ReadWriteModeNS1_14RCCAPB2ENRBaseEES4_Lj1EE3SetIS3_vEEvv
        BL       _ZN14FieldValueBaseI25RCC_AHB1ENR_DMA2EN_ValuesIN3RCC7APB2ENRELj12ELj1E13ReadWriteModeNS1_14RCCAPB2ENRBaseEES4_Lj1EE3SetIS3_vEEvv
//  101     NVIC::ISER1::Write(1<<3);
        MOVS     R0,#+8
          CFI FunCall _ZN12RegisterBaseILj3758153988ELj32E13ReadWriteModeE5WriteIS0_vEEvj
        BL       _ZN12RegisterBaseILj3758153988ELj32E13ReadWriteModeE5WriteIS0_vEEvj
//  102     SPI1::CR1::MSTR::Master::Set();
          CFI FunCall _ZN14FieldValueBaseI20SPI1_CR1_MSTR_ValuesIN4SPI13CR1ELj2ELj1E13ReadWriteModeNS1_11SPI1CR1BaseEES4_Lj1EE3SetIS3_vEEvv
        BL       _ZN14FieldValueBaseI20SPI1_CR1_MSTR_ValuesIN4SPI13CR1ELj2ELj1E13ReadWriteModeNS1_11SPI1CR1BaseEES4_Lj1EE3SetIS3_vEEvv
//  103     SPI1::CR1::DFF::Data8bit::Set();
          CFI FunCall _ZN14FieldValueBaseI19SPI1_CR1_DFF_ValuesIN4SPI13CR1ELj11ELj1E13ReadWriteModeNS1_11SPI1CR1BaseEES4_Lj0EE3SetIS3_vEEvv
        BL       _ZN14FieldValueBaseI19SPI1_CR1_DFF_ValuesIN4SPI13CR1ELj11ELj1E13ReadWriteModeNS1_11SPI1CR1BaseEES4_Lj0EE3SetIS3_vEEvv
//  104     SPI1::CR1::BR::PclockDiv2::Set();
          CFI FunCall _ZN14FieldValueBaseI18SPI1_CR1_BR_ValuesIN4SPI13CR1ELj3ELj3E13ReadWriteModeNS1_11SPI1CR1BaseEES4_Lj0EE3SetIS3_vEEvv
        BL       _ZN14FieldValueBaseI18SPI1_CR1_BR_ValuesIN4SPI13CR1ELj3ELj3E13ReadWriteModeNS1_11SPI1CR1BaseEES4_Lj0EE3SetIS3_vEEvv
//  105     SPI1::CR1::CRCEN::CrcCalcDisable::Set();
          CFI FunCall _ZN14FieldValueBaseI21SPI1_CR1_CRCEN_ValuesIN4SPI13CR1ELj13ELj1E13ReadWriteModeNS1_11SPI1CR1BaseEES4_Lj0EE3SetIS3_vEEvv
        BL       _ZN14FieldValueBaseI21SPI1_CR1_CRCEN_ValuesIN4SPI13CR1ELj13ELj1E13ReadWriteModeNS1_11SPI1CR1BaseEES4_Lj0EE3SetIS3_vEEvv
//  106     SPI1::CR1::CPOL::High::Set();
          CFI FunCall _ZN14FieldValueBaseI20SPI1_CR1_CPOL_ValuesIN4SPI13CR1ELj1ELj1E13ReadWriteModeNS1_11SPI1CR1BaseEES4_Lj1EE3SetIS3_vEEvv
        BL       _ZN14FieldValueBaseI20SPI1_CR1_CPOL_ValuesIN4SPI13CR1ELj1ELj1E13ReadWriteModeNS1_11SPI1CR1BaseEES4_Lj1EE3SetIS3_vEEvv
//  107     SPI1::CR1::CPHA::Phase2edge::Set();
          CFI FunCall _ZN14FieldValueBaseI20SPI1_CR1_CPHA_ValuesIN4SPI13CR1ELj0ELj1E13ReadWriteModeNS1_11SPI1CR1BaseEES4_Lj1EE3SetIS3_vEEvv
        BL       _ZN14FieldValueBaseI20SPI1_CR1_CPHA_ValuesIN4SPI13CR1ELj0ELj1E13ReadWriteModeNS1_11SPI1CR1BaseEES4_Lj1EE3SetIS3_vEEvv
//  108     SPI1::CR1::LSBFIRST::MsbFisrt::Set();
          CFI FunCall _ZN14FieldValueBaseI24SPI1_CR1_LSBFIRST_ValuesIN4SPI13CR1ELj7ELj1E13ReadWriteModeNS1_11SPI1CR1BaseEES4_Lj0EE3SetIS3_vEEvv
        BL       _ZN14FieldValueBaseI24SPI1_CR1_LSBFIRST_ValuesIN4SPI13CR1ELj7ELj1E13ReadWriteModeNS1_11SPI1CR1BaseEES4_Lj0EE3SetIS3_vEEvv
//  109     SPI1::CR2::SSOE::SsOutputEnable::Set(); 
          CFI FunCall _ZN14FieldValueBaseI20SPI1_CR2_SSOE_ValuesIN4SPI13CR2ELj2ELj1E13ReadWriteModeNS1_11SPI1CR2BaseEES4_Lj1EE3SetIS3_vEEvv
        BL       _ZN14FieldValueBaseI20SPI1_CR2_SSOE_ValuesIN4SPI13CR2ELj2ELj1E13ReadWriteModeNS1_11SPI1CR2BaseEES4_Lj1EE3SetIS3_vEEvv
//  110     SPI1::CR1::SSM::NssSoftwareEnable::Set();
          CFI FunCall _ZN14FieldValueBaseI19SPI1_CR1_SSM_ValuesIN4SPI13CR1ELj9ELj1E13ReadWriteModeNS1_11SPI1CR1BaseEES4_Lj1EE3SetIS3_vEEvv
        BL       _ZN14FieldValueBaseI19SPI1_CR1_SSM_ValuesIN4SPI13CR1ELj9ELj1E13ReadWriteModeNS1_11SPI1CR1BaseEES4_Lj1EE3SetIS3_vEEvv
//  111     SPI1::CR1::SSI::Value1::Set();
          CFI FunCall _ZN14FieldValueBaseI19SPI1_CR1_SSI_ValuesIN4SPI13CR1ELj8ELj1E13ReadWriteModeNS1_11SPI1CR1BaseEES4_Lj1EE3SetIS3_vEEvv
        BL       _ZN14FieldValueBaseI19SPI1_CR1_SSI_ValuesIN4SPI13CR1ELj8ELj1E13ReadWriteModeNS1_11SPI1CR1BaseEES4_Lj1EE3SetIS3_vEEvv
//  112     
//  113     GPIOB::MODERPack<
//  114       GPIOB::MODER::MODER3::Alternate, //sck
//  115       GPIOB::MODER::MODER4::Alternate, //miso
//  116       GPIOB::MODER::MODER5::Alternate, //mosi
//  117       GPIOB::MODER::MODER10::Output,   //cs for bme280
//  118       >::Set();
          CFI FunCall _ZN8RegisterILj1073873920ELj32E13ReadWriteModeN5GPIOB14GPIOBMODERBaseEJ10FieldValueI26GPIOB_MODER_MODER15_ValuesINS1_5MODERELj6ELj2ES0_S2_ES2_Lj2EvES3_IS4_IS5_Lj8ELj2ES0_S2_ES2_Lj2EvES3_IS4_IS5_Lj10ELj2ES0_S2_ES2_Lj2EvES3_IS4_IS5_Lj20ELj2ES0_S2_ES2_Lj1EvEEE3SetIS0_vEEvv
        BL       _ZN8RegisterILj1073873920ELj32E13ReadWriteModeN5GPIOB14GPIOBMODERBaseEJ10FieldValueI26GPIOB_MODER_MODER15_ValuesINS1_5MODERELj6ELj2ES0_S2_ES2_Lj2EvES3_IS4_IS5_Lj8ELj2ES0_S2_ES2_Lj2EvES3_IS4_IS5_Lj10ELj2ES0_S2_ES2_Lj2EvES3_IS4_IS5_Lj20ELj2ES0_S2_ES2_Lj1EvEEE3SetIS0_vEEvv
//  119     
//  120     GPIOB::AFRLPack<
//  121       GPIOB::AFRL::AFRL3::Af5,
//  122       GPIOB::AFRL::AFRL4::Af5,
//  123       GPIOB::AFRL::AFRL5::Af5,
//  124       >::Set();  
          CFI FunCall _ZN8RegisterILj1073873952ELj32E13ReadWriteModeN5GPIOB13GPIOBAFRLBaseEJ10FieldValueI23GPIOB_AFRL_AFRL7_ValuesINS1_4AFRLELj12ELj4ES0_S2_ES2_Lj5EvES3_IS4_IS5_Lj16ELj4ES0_S2_ES2_Lj5EvES3_IS4_IS5_Lj20ELj4ES0_S2_ES2_Lj5EvEEE3SetIS0_vEEvv
        BL       _ZN8RegisterILj1073873952ELj32E13ReadWriteModeN5GPIOB13GPIOBAFRLBaseEJ10FieldValueI23GPIOB_AFRL_AFRL7_ValuesINS1_4AFRLELj12ELj4ES0_S2_ES2_Lj5EvES3_IS4_IS5_Lj16ELj4ES0_S2_ES2_Lj5EvES3_IS4_IS5_Lj20ELj4ES0_S2_ES2_Lj5EvEEE3SetIS0_vEEvv
//  125     GPIOB::BSRR::BS10::High::Write() ;
          CFI FunCall _ZN14FieldValueBaseI22GPIOB_BSRR_BS10_ValuesIN5GPIOB4BSRRELj10ELj1E9WriteModeNS1_13GPIOBBSRRBaseEES4_Lj1EE5WriteIS3_vEEvv
        BL       _ZN14FieldValueBaseI22GPIOB_BSRR_BS10_ValuesIN5GPIOB4BSRRELj10ELj1E9WriteModeNS1_13GPIOBBSRRBaseEES4_Lj1EE5WriteIS3_vEEvv
//  126     
//  127     return 1;
        MOVS     R0,#+1
        VPOP     {D8}
          CFI D8 SameValue
          CFI CFA R13+24
        POP      {R1,R4-R7,PC}    ;; return
//  128   }
          CFI EndBlock cfiBlock7
//  129 }

        SECTION `.bss`:DATA:REORDER:NOROOT(2)
        DATA
//  130 OsWrapper::Event event(100ms, 1);
event:
        DS8 36

        SECTION `.rodata`:CONST:REORDER:NOROOT(3)
        DATA
?_18:
        DATA64
        DC64 100

        SECTION `.bss`:DATA:REORDER:NOROOT(2)
        DATA
//  131 ButtonEventTask<UserButton, event> buttonEventTask;
buttonEventTask:
        DS8 604

        SECTION `.bss`:DATA:REORDER:NOROOT(3)
        DATA
//  132 BluetoothTask bluetoothTask;
bluetoothTask:
        DS8 1'704

        SECTION `.bss`:DATA:REORDER:NOROOT(3)
        DATA
//  133 DisplayUpdateTask displayUpdateTask;
displayUpdateTask:
        DS8 1'704

        SECTION `.bss`:DATA:REORDER:NOROOT(3)
        DATA
//  134 MeasurementTask<event> measurementTask;
measurementTask:
        DS8 616
//  135 

        SECTION `.text`:CODE:NOROOT(1)
          CFI Block cfiBlock8 Using cfiCommon0
          CFI Function main
        THUMB
//  136 int main()
//  137 {  
main:
        PUSH     {R4,LR}
          CFI R14 Frame(CFA, -4)
          CFI R4 Frame(CFA, -8)
          CFI CFA R13+8
//  138   bme280.InitializeCalibrateData();
        LDR.N    R4,??DataTable7_3
        MOVS     R0,R4
          CFI FunCall _ZN12BME280DriverIL_Z15spi1TransceiverE3PinI4PortI5GPIOBELh10EEE23InitializeCalibrateDataEv
        BL       _ZN12BME280DriverIL_Z15spi1TransceiverE3PinI4PortI5GPIOBELh10EEE23InitializeCalibrateDataEv
//  139   bme280.StartMeasurements();
        MOVS     R0,R4
          CFI FunCall _ZN12BME280DriverIL_Z15spi1TransceiverE3PinI4PortI5GPIOBELh10EEE17StartMeasurementsEv
        BL       _ZN12BME280DriverIL_Z15spi1TransceiverE3PinI4PortI5GPIOBELh10EEE17StartMeasurementsEv
//  140   
//  141   eInkDisplay.Init();
        LDR.N    R4,??DataTable7_20
        MOVS     R0,R4
          CFI FunCall _ZN9EPDDriverIL_Z15spi2TransceiverE3PinI4PortI5GPIOBELh1EES0_IS3_Lh2EES0_IS1_I5GPIOCELh3EES0_IS7_Lh2EEE4InitEv
        BL       _ZN9EPDDriverIL_Z15spi2TransceiverE3PinI4PortI5GPIOBELh1EES0_IS3_Lh2EES0_IS1_I5GPIOCELh3EES0_IS7_Lh2EEE4InitEv
//  142   eInkDisplay.Clear();
        MOVS     R0,R4
          CFI FunCall _ZN9EPDDriverIL_Z15spi2TransceiverE3PinI4PortI5GPIOBELh1EES0_IS3_Lh2EES0_IS1_I5GPIOCELh3EES0_IS7_Lh2EEE5ClearEv
        BL       _ZN9EPDDriverIL_Z15spi2TransceiverE3PinI4PortI5GPIOBELh1EES0_IS3_Lh2EES0_IS1_I5GPIOCELh3EES0_IS7_Lh2EEE5ClearEv
//  143   
//  144   Rtos::CreateThread(displayUpdateTask,"displayUpdateTask", ThreadPriority::lowest);
        MOVS     R2,#+10
        LDR.N    R1,??DataTable7_36
        LDR.N    R0,??DataTable7_29
          CFI FunCall _ZN9OsWrapper4Rtos12CreateThreadI17DisplayUpdateTaskEEvRT_PKcNS_14ThreadPriorityE
        BL       _ZN9OsWrapper4Rtos12CreateThreadI17DisplayUpdateTaskEEvRT_PKcNS_14ThreadPriorityE
//  145   Rtos::CreateThread(bluetoothTask,"bluetoothTask", ThreadPriority::lowest);
        MOVS     R2,#+10
        LDR.N    R1,??DataTable7_37
        LDR.N    R0,??DataTable7_28
          CFI FunCall _ZN9OsWrapper4Rtos12CreateThreadI13BluetoothTaskEEvRT_PKcNS_14ThreadPriorityE
        BL       _ZN9OsWrapper4Rtos12CreateThreadI13BluetoothTaskEEvRT_PKcNS_14ThreadPriorityE
//  146   Rtos::CreateThread(buttonEventTask,"buttonEventTask", ThreadPriority::highest);
        MOVS     R2,#+90
        LDR.N    R1,??DataTable7_38
        LDR.N    R0,??DataTable7_27
          CFI FunCall _ZN9OsWrapper4Rtos12CreateThreadI15ButtonEventTaskI6ButtonI3PinI4PortI5GPIOCELh13EEEL_Z5eventEEEEvRT_PKcNS_14ThreadPriorityE
        BL       _ZN9OsWrapper4Rtos12CreateThreadI15ButtonEventTaskI6ButtonI3PinI4PortI5GPIOCELh13EEEL_Z5eventEEEEvRT_PKcNS_14ThreadPriorityE
//  147   Rtos::CreateThread(measurementTask,"measurementTask", ThreadPriority::priorityMax);
        MOVS     R2,#+255
        LDR.N    R1,??DataTable7_39
        LDR.N    R0,??DataTable7_30
          CFI FunCall _ZN9OsWrapper4Rtos12CreateThreadI15MeasurementTaskIL_Z5eventEEEEvRT_PKcNS_14ThreadPriorityE
        BL       _ZN9OsWrapper4Rtos12CreateThreadI15MeasurementTaskIL_Z5eventEEEEvRT_PKcNS_14ThreadPriorityE
//  148   
//  149   Rtos::Start();
          CFI FunCall _ZN9OsWrapper4Rtos5StartEv
        BL       _ZN9OsWrapper4Rtos5StartEv
//  150   return 0;
        MOVS     R0,#+0
        POP      {R4,PC}          ;; return
//  151 }
          CFI EndBlock cfiBlock8

        SECTION `.text`:CODE:NOROOT(2)
        SECTION_TYPE SHT_PROGBITS, 0
        DATA
??DataTable7:
        DATA32
        DC32     _ZGV20bluetoothTransceiver

        SECTION `.text`:CODE:NOROOT(2)
        SECTION_TYPE SHT_PROGBITS, 0
        DATA
??DataTable7_1:
        DATA32
        DC32     bluetoothTransceiver

        SECTION `.text`:CODE:NOROOT(2)
        SECTION_TYPE SHT_PROGBITS, 0
        DATA
??DataTable7_2:
        DATA32
        DC32     _ZGV6bme280

        SECTION `.text`:CODE:NOROOT(2)
        SECTION_TYPE SHT_PROGBITS, 0
        DATA
??DataTable7_3:
        DATA32
        DC32     bme280

        SECTION `.text`:CODE:NOROOT(2)
        SECTION_TYPE SHT_PROGBITS, 0
        DATA
??DataTable7_4:
        DATA32
        DC32     _ZGV11temperature

        SECTION `.text`:CODE:NOROOT(2)
        SECTION_TYPE SHT_PROGBITS, 0
        DATA
??DataTable7_5:
        DATA32
        DC32     ?_10

        SECTION `.text`:CODE:NOROOT(2)
        SECTION_TYPE SHT_PROGBITS, 0
        DATA
??DataTable7_6:
        DATA32
        DC32     temperature

        SECTION `.text`:CODE:NOROOT(2)
        SECTION_TYPE SHT_PROGBITS, 0
        DATA
??DataTable7_7:
        DATA32
        DC32     __dso_handle

        SECTION `.text`:CODE:NOROOT(2)
        SECTION_TYPE SHT_PROGBITS, 0
        DATA
??DataTable7_8:
        DATA32
        DC32     _ZN11TemperatureD1Ev

        SECTION `.text`:CODE:NOROOT(2)
        SECTION_TYPE SHT_PROGBITS, 0
        DATA
??DataTable7_9:
        DATA32
        DC32     _ZGV8pressure

        SECTION `.text`:CODE:NOROOT(2)
        SECTION_TYPE SHT_PROGBITS, 0
        DATA
??DataTable7_10:
        DATA32
        DC32     ?_11

        SECTION `.text`:CODE:NOROOT(2)
        SECTION_TYPE SHT_PROGBITS, 0
        DATA
??DataTable7_11:
        DATA32
        DC32     pressure

        SECTION `.text`:CODE:NOROOT(2)
        SECTION_TYPE SHT_PROGBITS, 0
        DATA
??DataTable7_12:
        DATA32
        DC32     _ZN11MeasurementD1Ev

        SECTION `.text`:CODE:NOROOT(2)
        SECTION_TYPE SHT_PROGBITS, 0
        DATA
??DataTable7_13:
        DATA32
        DC32     _ZGV8humidity

        SECTION `.text`:CODE:NOROOT(2)
        SECTION_TYPE SHT_PROGBITS, 0
        DATA
??DataTable7_14:
        DATA32
        DC32     ?_12

        SECTION `.text`:CODE:NOROOT(2)
        SECTION_TYPE SHT_PROGBITS, 0
        DATA
??DataTable7_15:
        DATA32
        DC32     humidity

        SECTION `.text`:CODE:NOROOT(2)
        SECTION_TYPE SHT_PROGBITS, 0
        DATA
??DataTable7_16:
        DATA32
        DC32     _ZGV8dewPoint

        SECTION `.text`:CODE:NOROOT(2)
        SECTION_TYPE SHT_PROGBITS, 0
        DATA
??DataTable7_17:
        DATA32
        DC32     ?_13

        SECTION `.text`:CODE:NOROOT(2)
        SECTION_TYPE SHT_PROGBITS, 0
        DATA
??DataTable7_18:
        DATA32
        DC32     dewPoint

        SECTION `.text`:CODE:NOROOT(2)
        SECTION_TYPE SHT_PROGBITS, 0
        DATA
??DataTable7_19:
        DATA32
        DC32     _ZGV11eInkDisplay

        SECTION `.text`:CODE:NOROOT(2)
        SECTION_TYPE SHT_PROGBITS, 0
        DATA
??DataTable7_20:
        DATA32
        DC32     eInkDisplay

        SECTION `.text`:CODE:NOROOT(2)
        SECTION_TYPE SHT_PROGBITS, 0
        DATA
??DataTable7_21:
        DATA32
        DC32     segoeUISemibold_24ptFontInfo

        SECTION `.text`:CODE:NOROOT(2)
        SECTION_TYPE SHT_PROGBITS, 0
        DATA
??DataTable7_22:
        DATA32
        DC32     susuWallPaper

        SECTION `.text`:CODE:NOROOT(2)
        SECTION_TYPE SHT_PROGBITS, 0
        DATA
??DataTable7_23:
        DATA32
        DC32     screen

        SECTION `.text`:CODE:NOROOT(2)
        SECTION_TYPE SHT_PROGBITS, 0
        DATA
??DataTable7_24:
        DATA32
        DC32     ?_18

        SECTION `.text`:CODE:NOROOT(2)
        SECTION_TYPE SHT_PROGBITS, 0
        DATA
??DataTable7_25:
        DATA32
        DC32     event

        SECTION `.text`:CODE:NOROOT(2)
        SECTION_TYPE SHT_PROGBITS, 0
        DATA
??DataTable7_26:
        DATA32
        DC32     _ZN9OsWrapper5EventD1Ev

        SECTION `.text`:CODE:NOROOT(2)
        SECTION_TYPE SHT_PROGBITS, 0
        DATA
??DataTable7_27:
        DATA32
        DC32     buttonEventTask

        SECTION `.text`:CODE:NOROOT(2)
        SECTION_TYPE SHT_PROGBITS, 0
        DATA
??DataTable7_28:
        DATA32
        DC32     bluetoothTask

        SECTION `.text`:CODE:NOROOT(2)
        SECTION_TYPE SHT_PROGBITS, 0
        DATA
??DataTable7_29:
        DATA32
        DC32     displayUpdateTask

        SECTION `.text`:CODE:NOROOT(2)
        SECTION_TYPE SHT_PROGBITS, 0
        DATA
??DataTable7_30:
        DATA32
        DC32     measurementTask

        SECTION `.text`:CODE:NOROOT(2)
        SECTION_TYPE SHT_PROGBITS, 0
        DATA
??DataTable7_31:
        DATA32
        DC32     SystemCoreClock

        SECTION `.text`:CODE:NOROOT(2)
        SECTION_TYPE SHT_PROGBITS, 0
        DATA
??DataTable7_32:
        DATA32
        DC32     0xf42400

        SECTION `.text`:CODE:NOROOT(2)
        SECTION_TYPE SHT_PROGBITS, 0
        DATA
??DataTable7_33:
        DATA32
        DC32     0x3ff00000

        SECTION `.text`:CODE:NOROOT(2)
        SECTION_TYPE SHT_PROGBITS, 0
        DATA
??DataTable7_34:
        DATA32
        DC32     0x416e8480

        SECTION `.text`:CODE:NOROOT(2)
        SECTION_TYPE SHT_PROGBITS, 0
        DATA
??DataTable7_35:
        DATA32
        DC32     0x40300000

        SECTION `.text`:CODE:NOROOT(2)
        SECTION_TYPE SHT_PROGBITS, 0
        DATA
??DataTable7_36:
        DATA32
        DC32     ?_0

        SECTION `.text`:CODE:NOROOT(2)
        SECTION_TYPE SHT_PROGBITS, 0
        DATA
??DataTable7_37:
        DATA32
        DC32     ?_1

        SECTION `.text`:CODE:NOROOT(2)
        SECTION_TYPE SHT_PROGBITS, 0
        DATA
??DataTable7_38:
        DATA32
        DC32     ?_2

        SECTION `.text`:CODE:NOROOT(2)
        SECTION_TYPE SHT_PROGBITS, 0
        DATA
??DataTable7_39:
        DATA32
        DC32     ?_3

        SECTION `.text`:CODE:REORDER:NOROOT(1)
        SECTION_GROUP _ZSt10_AddressofIcEPT_RS0_St17integral_constantIbLb0EE
          CFI Block cfiBlock9 Using cfiCommon0
          CFI Function _ZSt10_AddressofIcEPT_RS0_St17integral_constantIbLb0EE
          CFI NoCalls
        THUMB
// __interwork __vfp char *std::_Addressof<char>(char &, std::false_type)
_ZSt10_AddressofIcEPT_RS0_St17integral_constantIbLb0EE:
        BX       LR               ;; return
          CFI EndBlock cfiBlock9

        SECTION `.text`:CODE:REORDER:NOROOT(1)
        SECTION_GROUP _ZSt9addressofIcEPT_RS0_
          CFI Block cfiBlock10 Using cfiCommon0
          CFI Function _ZSt9addressofIcEPT_RS0_
        THUMB
// __interwork __vfp char *std::addressof<char>(char &)
_ZSt9addressofIcEPT_RS0_:
        PUSH     {R4,LR}
          CFI R14 Frame(CFA, -4)
          CFI R4 Frame(CFA, -8)
          CFI CFA R13+8
        MOVS     R4,R0
        MOVS     R0,R4
          CFI FunCall _ZSt10_AddressofIcEPT_RS0_St17integral_constantIbLb0EE
        BL       _ZSt10_AddressofIcEPT_RS0_St17integral_constantIbLb0EE
        POP      {R4,PC}          ;; return
          CFI EndBlock cfiBlock10

        SECTION `.text`:CODE:REORDER:NOROOT(1)
        SECTION_GROUP _ZSt7forwardIRKSaIcEEOT_RNSt16remove_referenceIS3_E4typeE
          CFI Block cfiBlock11 Using cfiCommon0
          CFI Function _ZSt7forwardIRKSaIcEEOT_RNSt16remove_referenceIS3_E4typeE
          CFI NoCalls
        THUMB
// __interwork __vfp std::allocator<char> const &std::forward<std::allocator<char> const &>(std::allocator<char> const &)
_ZSt7forwardIRKSaIcEEOT_RNSt16remove_referenceIS3_E4typeE:
        BX       LR               ;; return
          CFI EndBlock cfiBlock11

        SECTION `.text`:CODE:REORDER:NOROOT(1)
        SECTION_GROUP _ZSt7forwardIPcEOT_RNSt16remove_referenceIS1_E4typeE
          CFI Block cfiBlock12 Using cfiCommon0
          CFI Function _ZSt7forwardIPcEOT_RNSt16remove_referenceIS1_E4typeE
          CFI NoCalls
        THUMB
// __interwork __vfp char * &&std::forward<char *>(char * &)
_ZSt7forwardIPcEOT_RNSt16remove_referenceIS1_E4typeE:
        BX       LR               ;; return
          CFI EndBlock cfiBlock12

        SECTION `.text`:CODE:REORDER:NOROOT(1)
        SECTION_GROUP _ZSt4moveIRPcEONSt16remove_referenceIT_E4typeEOS3_
          CFI Block cfiBlock13 Using cfiCommon0
          CFI Function _ZSt4moveIRPcEONSt16remove_referenceIT_E4typeEOS3_
          CFI NoCalls
        THUMB
// __interwork __vfp char * &&std::move<char * &>(char * &)
_ZSt4moveIRPcEONSt16remove_referenceIT_E4typeEOS3_:
        BX       LR               ;; return
          CFI EndBlock cfiBlock13

        SECTION `.text`:CODE:REORDER:NOROOT(1)
        SECTION_GROUP _ZnwjPv
          CFI Block cfiBlock14 Using cfiCommon0
          CFI Function _ZnwjPv
          CFI NoCalls
        THUMB
// __interwork __vfp void *operator new(unsigned int, void *)
_ZnwjPv:
        MOVS     R0,R1
        BX       LR               ;; return
          CFI EndBlock cfiBlock14

        SECTION `.text`:CODE:REORDER:NOROOT(1)
        SECTION_GROUP _ZNSt11char_traitsIcE6lengthEPKc
          CFI Block cfiBlock15 Using cfiCommon0
          CFI Function _ZNSt11char_traitsIcE6lengthEPKc
        THUMB
// __interwork __vfp size_t std::char_traits<char>::length(char const *)
_ZNSt11char_traitsIcE6lengthEPKc:
        PUSH     {R4,LR}
          CFI R14 Frame(CFA, -4)
          CFI R4 Frame(CFA, -8)
          CFI CFA R13+8
        MOVS     R4,R0
        LDRB     R0,[R4, #+0]
        CMP      R0,#+0
        BNE.N    ??length_0
        MOVS     R0,#+0
        B.N      ??length_1
??length_0:
        MOVS     R0,R4
          CFI FunCall strlen
        BL       strlen
??length_1:
        POP      {R4,PC}          ;; return
          CFI EndBlock cfiBlock15

        SECTION `.text`:CODE:REORDER:NOROOT(1)
        SECTION_GROUP _ZNSt11char_traitsIcE4copyEPcPKcj
          CFI Block cfiBlock16 Using cfiCommon0
          CFI Function _ZNSt11char_traitsIcE4copyEPcPKcj
        THUMB
// __interwork __vfp char *std::char_traits<char>::copy(char *, char const *, size_t)
_ZNSt11char_traitsIcE4copyEPcPKcj:
        PUSH     {R3-R9,LR}
          CFI R14 Frame(CFA, -4)
          CFI R9 Frame(CFA, -8)
          CFI R8 Frame(CFA, -12)
          CFI R7 Frame(CFA, -16)
          CFI R6 Frame(CFA, -20)
          CFI R5 Frame(CFA, -24)
          CFI R4 Frame(CFA, -28)
          CFI CFA R13+32
        MOVS     R5,R0
        MOVS     R6,R1
        MOVS     R4,R2
        CMP      R4,#+0
        BNE.N    ??copy_0
        MOVS     R7,R5
        B.N      ??copy_1
??copy_0:
        MOV      R8,R4
        MOV      R9,R6
        MOVS     R7,R5
        MOV      R2,R8
        MOV      R1,R9
        MOVS     R0,R7
          CFI FunCall __aeabi_memcpy
        BL       __aeabi_memcpy
??copy_1:
        MOVS     R0,R7
        POP      {R1,R4-R9,PC}    ;; return
          CFI EndBlock cfiBlock16

        SECTION `.text`:CODE:REORDER:NOROOT(1)
        SECTION_GROUP _ZNSt11char_traitsIcE4moveEPcPKcj
          CFI Block cfiBlock17 Using cfiCommon0
          CFI Function _ZNSt11char_traitsIcE4moveEPcPKcj
        THUMB
// __interwork __vfp char *std::char_traits<char>::move(char *, char const *, size_t)
_ZNSt11char_traitsIcE4moveEPcPKcj:
        PUSH     {R3-R9,LR}
          CFI R14 Frame(CFA, -4)
          CFI R9 Frame(CFA, -8)
          CFI R8 Frame(CFA, -12)
          CFI R7 Frame(CFA, -16)
          CFI R6 Frame(CFA, -20)
          CFI R5 Frame(CFA, -24)
          CFI R4 Frame(CFA, -28)
          CFI CFA R13+32
        MOVS     R5,R0
        MOVS     R6,R1
        MOVS     R4,R2
        CMP      R4,#+0
        BNE.N    ??move_0
        MOVS     R7,R5
        B.N      ??move_1
??move_0:
        MOV      R8,R4
        MOV      R9,R6
        MOVS     R7,R5
        MOV      R2,R8
        MOV      R1,R9
        MOVS     R0,R7
          CFI FunCall __aeabi_memmove
        BL       __aeabi_memmove
??move_1:
        MOVS     R0,R7
        POP      {R1,R4-R9,PC}    ;; return
          CFI EndBlock cfiBlock17

        SECTION `.text`:CODE:REORDER:NOROOT(1)
        SECTION_GROUP _ZNSt11char_traitsIcE6assignERcRKc
          CFI Block cfiBlock18 Using cfiCommon0
          CFI Function _ZNSt11char_traitsIcE6assignERcRKc
          CFI NoCalls
        THUMB
// __interwork __vfp void std::char_traits<char>::assign(char &, char const &)
_ZNSt11char_traitsIcE6assignERcRKc:
        LDRB     R2,[R1, #+0]
        STRB     R2,[R0, #+0]
        BX       LR               ;; return
          CFI EndBlock cfiBlock18

        SECTION `.text`:CODE:REORDER:NOROOT(1)
        SECTION_GROUP _ZNSt16_Compressed_pairISt11_Wrap_allocISaIcEESt11_String_valISt13_Simple_typesIcEELb1EEC1IRKS1_JEEESt25_One_then_variadic_args_tOT_DpOT0_
          CFI Block cfiBlock19 Using cfiCommon0
          CFI Function _ZNSt16_Compressed_pairISt11_Wrap_allocISaIcEESt11_String_valISt13_Simple_typesIcEELb1EEC1IRKS1_JEEESt25_One_then_variadic_args_tOT_DpOT0_
        THUMB
// __code __interwork __vfp std::_Compressed_pair<std::_Wrap_alloc<std::allocator<char>>, std::_String_val<std::_Simple_types<char>>>::_Compressed_pair<std::allocator<char> const &>(std::_One_then_variadic_args_t, std::allocator<char> const &)
_ZNSt16_Compressed_pairISt11_Wrap_allocISaIcEESt11_String_valISt13_Simple_typesIcEELb1EEC1IRKS1_JEEESt25_One_then_variadic_args_tOT_DpOT0_:
        PUSH     {R3-R5,LR}
          CFI R14 Frame(CFA, -4)
          CFI R5 Frame(CFA, -8)
          CFI R4 Frame(CFA, -12)
          CFI CFA R13+16
        MOVS     R4,R0
        MOVS     R5,R2
        MOVS     R0,R5
          CFI FunCall _ZSt7forwardIRKSaIcEEOT_RNSt16remove_referenceIS3_E4typeE
        BL       _ZSt7forwardIRKSaIcEEOT_RNSt16remove_referenceIS3_E4typeE
        MOVS     R1,R0
        MOVS     R0,R4
          CFI FunCall _ZNSt11_Wrap_allocISaIcEEC2ERKS0_
        BL       _ZNSt11_Wrap_allocISaIcEEC2ERKS0_
        MOVS     R0,R4
          CFI FunCall _ZNSt11_String_valISt13_Simple_typesIcEEC1Ev
        BL       _ZNSt11_String_valISt13_Simple_typesIcEEC1Ev
        MOVS     R0,R4
        POP      {R1,R4,R5,PC}    ;; return
          CFI EndBlock cfiBlock19

        SECTION `.text`:CODE:REORDER:NOROOT(1)
        SECTION_GROUP _ZNSt16_Compressed_pairISt11_Wrap_allocISaIcEESt11_String_valISt13_Simple_typesIcEELb1EE10_Get_firstEv
          CFI Block cfiBlock20 Using cfiCommon0
          CFI Function _ZNSt16_Compressed_pairISt11_Wrap_allocISaIcEESt11_String_valISt13_Simple_typesIcEELb1EE10_Get_firstEv
          CFI NoCalls
        THUMB
// __interwork __vfp std::_Wrap_alloc<std::allocator<char>> &std::_Compressed_pair<std::_Wrap_alloc<std::allocator<char>>, std::_String_val<std::_Simple_types<char>>>::_Get_first()
_ZNSt16_Compressed_pairISt11_Wrap_allocISaIcEESt11_String_valISt13_Simple_typesIcEELb1EE10_Get_firstEv:
        BX       LR               ;; return
          CFI EndBlock cfiBlock20

        SECTION `.text`:CODE:REORDER:NOROOT(1)
        SECTION_GROUP _ZNKSt16_Compressed_pairISt11_Wrap_allocISaIcEESt11_String_valISt13_Simple_typesIcEELb1EE10_Get_firstEv
          CFI Block cfiBlock21 Using cfiCommon0
          CFI Function _ZNKSt16_Compressed_pairISt11_Wrap_allocISaIcEESt11_String_valISt13_Simple_typesIcEELb1EE10_Get_firstEv
          CFI NoCalls
        THUMB
// __interwork __vfp std::_Wrap_alloc<std::allocator<char>> const &std::_Compressed_pair<std::_Wrap_alloc<std::allocator<char>>, std::_String_val<std::_Simple_types<char>>>::_Get_first() const
_ZNKSt16_Compressed_pairISt11_Wrap_allocISaIcEESt11_String_valISt13_Simple_typesIcEELb1EE10_Get_firstEv:
        BX       LR               ;; return
          CFI EndBlock cfiBlock21

        SECTION `.text`:CODE:REORDER:NOROOT(1)
        SECTION_GROUP _ZNSt16_Compressed_pairISt11_Wrap_allocISaIcEESt11_String_valISt13_Simple_typesIcEELb1EE11_Get_secondEv
          CFI Block cfiBlock22 Using cfiCommon0
          CFI Function _ZNSt16_Compressed_pairISt11_Wrap_allocISaIcEESt11_String_valISt13_Simple_typesIcEELb1EE11_Get_secondEv
          CFI NoCalls
        THUMB
// __interwork __vfp std::_String_val<std::_Simple_types<char>> &std::_Compressed_pair<std::_Wrap_alloc<std::allocator<char>>, std::_String_val<std::_Simple_types<char>>>::_Get_second()
_ZNSt16_Compressed_pairISt11_Wrap_allocISaIcEESt11_String_valISt13_Simple_typesIcEELb1EE11_Get_secondEv:
        BX       LR               ;; return
          CFI EndBlock cfiBlock22

        SECTION `.text`:CODE:REORDER:NOROOT(1)
        SECTION_GROUP _ZNKSt16_Compressed_pairISt11_Wrap_allocISaIcEESt11_String_valISt13_Simple_typesIcEELb1EE11_Get_secondEv
          CFI Block cfiBlock23 Using cfiCommon0
          CFI Function _ZNKSt16_Compressed_pairISt11_Wrap_allocISaIcEESt11_String_valISt13_Simple_typesIcEELb1EE11_Get_secondEv
          CFI NoCalls
        THUMB
// __interwork __vfp std::_String_val<std::_Simple_types<char>> const &std::_Compressed_pair<std::_Wrap_alloc<std::allocator<char>>, std::_String_val<std::_Simple_types<char>>>::_Get_second() const
_ZNKSt16_Compressed_pairISt11_Wrap_allocISaIcEESt11_String_valISt13_Simple_typesIcEELb1EE11_Get_secondEv:
        BX       LR               ;; return
          CFI EndBlock cfiBlock23

        SECTION `.text`:CODE:REORDER:NOROOT(1)
        SECTION_GROUP _ZSt9_AllocateIcEPT_jS1_b
          CFI Block cfiBlock24 Using cfiCommon0
          CFI Function _ZSt9_AllocateIcEPT_jS1_b
        THUMB
// __interwork __vfp char *std::_Allocate<char>(size_t, char *, bool)
_ZSt9_AllocateIcEPT_jS1_b:
        PUSH     {R3-R7,LR}
          CFI R14 Frame(CFA, -4)
          CFI R7 Frame(CFA, -8)
          CFI R6 Frame(CFA, -12)
          CFI R5 Frame(CFA, -16)
          CFI R4 Frame(CFA, -20)
          CFI CFA R13+24
        MOVS     R4,R0
        MOVS     R5,R2
        MOVS     R6,#+0
        CMP      R4,#+0
        BNE.N    ??_Allocate_0
        MOVS     R0,R6
        B.N      ??_Allocate_1
??_Allocate_0:
        MOVS     R7,R4
        MOVS     R0,R7
          CFI FunCall _Znwj
        BL       _Znwj
??_Allocate_1:
        POP      {R1,R4-R7,PC}    ;; return
          CFI EndBlock cfiBlock24

        SECTION `.text`:CODE:REORDER:NOROOT(1)
        SECTION_GROUP _ZSt11_DeallocateIcEvPT_j
          CFI Block cfiBlock25 Using cfiCommon0
          CFI Function _ZSt11_DeallocateIcEvPT_j
        THUMB
// __interwork __vfp void std::_Deallocate<char>(char *, size_t)
_ZSt11_DeallocateIcEvPT_j:
        PUSH     {R3-R5,LR}
          CFI R14 Frame(CFA, -4)
          CFI R5 Frame(CFA, -8)
          CFI R4 Frame(CFA, -12)
          CFI CFA R13+16
        MOVS     R4,R0
        MOVS     R5,R1
        MOVS     R0,R4
          CFI FunCall _ZdlPv
        BL       _ZdlPv
        POP      {R0,R4,R5,PC}    ;; return
          CFI EndBlock cfiBlock25

        SECTION `.text`:CODE:REORDER:NOROOT(1)
        SECTION_GROUP _ZNSaIcE10deallocateEPcj
          CFI Block cfiBlock26 Using cfiCommon0
          CFI Function _ZNSaIcE10deallocateEPcj
        THUMB
// __interwork __vfp void std::allocator<char>::deallocate(char *, size_t)
_ZNSaIcE10deallocateEPcj:
        PUSH     {R4-R6,LR}
          CFI R14 Frame(CFA, -4)
          CFI R6 Frame(CFA, -8)
          CFI R5 Frame(CFA, -12)
          CFI R4 Frame(CFA, -16)
          CFI CFA R13+16
        MOVS     R4,R0
        MOVS     R5,R1
        MOVS     R6,R2
        MOVS     R1,R6
        MOVS     R0,R5
          CFI FunCall _ZSt11_DeallocateIcEvPT_j
        BL       _ZSt11_DeallocateIcEvPT_j
        POP      {R4-R6,PC}       ;; return
          CFI EndBlock cfiBlock26

        SECTION `.text`:CODE:REORDER:NOROOT(1)
        SECTION_GROUP _ZNSaIcE8allocateEj
          CFI Block cfiBlock27 Using cfiCommon0
          CFI Function _ZNSaIcE8allocateEj
        THUMB
// __interwork __vfp char * std::allocator<char>::allocate(size_t)
_ZNSaIcE8allocateEj:
        PUSH     {R3-R5,LR}
          CFI R14 Frame(CFA, -4)
          CFI R5 Frame(CFA, -8)
          CFI R4 Frame(CFA, -12)
          CFI CFA R13+16
        MOVS     R4,R0
        MOVS     R5,R1
        MOVS     R2,#+1
        MOVS     R1,#+0
        MOVS     R0,R5
          CFI FunCall _ZSt9_AllocateIcEPT_jS1_b
        BL       _ZSt9_AllocateIcEPT_jS1_b
        POP      {R1,R4,R5,PC}    ;; return
          CFI EndBlock cfiBlock27

        SECTION `.text`:CODE:REORDER:NOROOT(1)
        SECTION_GROUP _ZNSaIcE9constructIPcJS1_EEEvPT_DpOT0_
          CFI Block cfiBlock28 Using cfiCommon0
          CFI Function _ZNSaIcE9constructIPcJS1_EEEvPT_DpOT0_
        THUMB
// __interwork __vfp void std::allocator<char>::construct<char *, char *>(char * *, char * &&)
_ZNSaIcE9constructIPcJS1_EEEvPT_DpOT0_:
        PUSH     {R3-R7,LR}
          CFI R14 Frame(CFA, -4)
          CFI R7 Frame(CFA, -8)
          CFI R6 Frame(CFA, -12)
          CFI R5 Frame(CFA, -16)
          CFI R4 Frame(CFA, -20)
          CFI CFA R13+24
        MOVS     R5,R0
        MOVS     R6,R1
        MOVS     R7,R2
        MOVS     R1,R6
        MOVS     R0,#+4
          CFI FunCall _ZnwjPv
        BL       _ZnwjPv
        MOVS     R4,R0
        CMP      R4,#+0
        BEQ.N    ??construct_0
        MOVS     R0,R7
          CFI FunCall _ZSt7forwardIPcEOT_RNSt16remove_referenceIS1_E4typeE
        BL       _ZSt7forwardIPcEOT_RNSt16remove_referenceIS1_E4typeE
        LDR      R0,[R0, #+0]
        STR      R0,[R4, #+0]
        B.N      ??construct_1
??construct_0:
        MOVS     R0,#+0
??construct_1:
        POP      {R0,R4-R7,PC}    ;; return
          CFI EndBlock cfiBlock28

        SECTION `.text`:CODE:REORDER:NOROOT(1)
        SECTION_GROUP _ZNSaIcE7destroyIPcEEvPT_
          CFI Block cfiBlock29 Using cfiCommon0
          CFI Function _ZNSaIcE7destroyIPcEEvPT_
          CFI NoCalls
        THUMB
// __interwork __vfp void std::allocator<char>::destroy<char *>(char * *)
_ZNSaIcE7destroyIPcEEvPT_:
        BX       LR               ;; return
          CFI EndBlock cfiBlock29

        SECTION `.text`:CODE:REORDER:NOROOT(1)
        SECTION_GROUP _ZNKSaIcE8max_sizeEv
          CFI Block cfiBlock30 Using cfiCommon0
          CFI Function _ZNKSaIcE8max_sizeEv
          CFI NoCalls
        THUMB
// __interwork __vfp size_t std::allocator<char>::max_size() const
_ZNKSaIcE8max_sizeEv:
        MOVS     R1,R0
        MOVS     R0,#-1
        BX       LR               ;; return
          CFI EndBlock cfiBlock30

        SECTION `.text`:CODE:REORDER:NOROOT(1)
        SECTION_GROUP _ZNSt16allocator_traitsISaIcEE9constructIPcJS3_EEEvRS0_PT_DpOT0_
          CFI Block cfiBlock31 Using cfiCommon0
          CFI Function _ZNSt16allocator_traitsISaIcEE9constructIPcJS3_EEEvRS0_PT_DpOT0_
        THUMB
// __interwork __vfp void std::allocator_traits<std::allocator<char>>::construct<char *, char *>(std::allocator<char> &, char * *, char * &&)
_ZNSt16allocator_traitsISaIcEE9constructIPcJS3_EEEvRS0_PT_DpOT0_:
        PUSH     {R4-R6,LR}
          CFI R14 Frame(CFA, -4)
          CFI R6 Frame(CFA, -8)
          CFI R5 Frame(CFA, -12)
          CFI R4 Frame(CFA, -16)
          CFI CFA R13+16
        MOVS     R4,R0
        MOVS     R5,R1
        MOVS     R6,R2
        MOVS     R0,R6
          CFI FunCall _ZSt7forwardIPcEOT_RNSt16remove_referenceIS1_E4typeE
        BL       _ZSt7forwardIPcEOT_RNSt16remove_referenceIS1_E4typeE
        MOVS     R2,R0
        MOVS     R1,R5
        MOVS     R0,R4
          CFI FunCall _ZNSaIcE9constructIPcJS1_EEEvPT_DpOT0_
        BL       _ZNSaIcE9constructIPcJS1_EEEvPT_DpOT0_
        POP      {R4-R6,PC}       ;; return
          CFI EndBlock cfiBlock31

        SECTION `.text`:CODE:REORDER:NOROOT(1)
        SECTION_GROUP _ZNSt16allocator_traitsISaIcEE7destroyIPcEEvRS0_PT_
          CFI Block cfiBlock32 Using cfiCommon0
          CFI Function _ZNSt16allocator_traitsISaIcEE7destroyIPcEEvRS0_PT_
        THUMB
// __interwork __vfp void std::allocator_traits<std::allocator<char>>::destroy<char *>(std::allocator<char> &, char * *)
_ZNSt16allocator_traitsISaIcEE7destroyIPcEEvRS0_PT_:
        PUSH     {R3-R5,LR}
          CFI R14 Frame(CFA, -4)
          CFI R5 Frame(CFA, -8)
          CFI R4 Frame(CFA, -12)
          CFI CFA R13+16
        MOVS     R4,R0
        MOVS     R5,R1
        MOVS     R1,R5
        MOVS     R0,R4
          CFI FunCall _ZNSaIcE7destroyIPcEEvPT_
        BL       _ZNSaIcE7destroyIPcEEvPT_
        POP      {R0,R4,R5,PC}    ;; return
          CFI EndBlock cfiBlock32

        SECTION `.text`:CODE:REORDER:NOROOT(1)
        SECTION_GROUP _ZNSt16allocator_traitsISaIcEE8max_sizeERKS0_
          CFI Block cfiBlock33 Using cfiCommon0
          CFI Function _ZNSt16allocator_traitsISaIcEE8max_sizeERKS0_
        THUMB
// __interwork __vfp size_t std::allocator_traits<std::allocator<char>>::max_size(std::allocator<char> const &)
_ZNSt16allocator_traitsISaIcEE8max_sizeERKS0_:
        PUSH     {R4,LR}
          CFI R14 Frame(CFA, -4)
          CFI R4 Frame(CFA, -8)
          CFI CFA R13+8
        MOVS     R4,R0
        MOVS     R0,R4
          CFI FunCall _ZNKSaIcE8max_sizeEv
        BL       _ZNKSaIcE8max_sizeEv
        POP      {R4,PC}          ;; return
          CFI EndBlock cfiBlock33

        SECTION `.text`:CODE:REORDER:NOROOT(1)
        SECTION_GROUP _ZNSt16allocator_traitsISaIcEE37select_on_container_copy_constructionERKS0_
          CFI Block cfiBlock34 Using cfiCommon0
          CFI Function _ZNSt16allocator_traitsISaIcEE37select_on_container_copy_constructionERKS0_
          CFI NoCalls
        THUMB
// __interwork __vfp void std::allocator_traits<std::allocator<char>>::select_on_container_copy_construction(std::allocator<char> const &)
_ZNSt16allocator_traitsISaIcEE37select_on_container_copy_constructionERKS0_:
        BX       LR               ;; return
          CFI EndBlock cfiBlock34

        SECTION `.text`:CODE:REORDER:NOROOT(1)
        SECTION_GROUP _ZNKSt11_Wrap_allocISaIcEE37select_on_container_copy_constructionESt4_Nil
          CFI Block cfiBlock35 Using cfiCommon0
          CFI Function _ZNKSt11_Wrap_allocISaIcEE37select_on_container_copy_constructionESt4_Nil
        THUMB
// __interwork __vfp void std::_Wrap_alloc<std::allocator<char>>::select_on_container_copy_construction(std::_Nil) const
_ZNKSt11_Wrap_allocISaIcEE37select_on_container_copy_constructionESt4_Nil:
        PUSH     {R3-R5,LR}
          CFI R14 Frame(CFA, -4)
          CFI R5 Frame(CFA, -8)
          CFI R4 Frame(CFA, -12)
          CFI CFA R13+16
        MOVS     R4,R0
        MOVS     R5,R1
        MOVS     R1,R5
        MOV      R0,SP
          CFI FunCall _ZNSt16allocator_traitsISaIcEE37select_on_container_copy_constructionERKS0_
        BL       _ZNSt16allocator_traitsISaIcEE37select_on_container_copy_constructionERKS0_
        MOV      R1,SP
        MOVS     R0,R4
          CFI FunCall _ZNSt11_Wrap_allocISaIcEEC1ERKS0_
        BL       _ZNSt11_Wrap_allocISaIcEEC1ERKS0_
        POP      {R0,R4,R5,PC}    ;; return
          CFI EndBlock cfiBlock35

        SECTION `.text`:CODE:REORDER:NOROOT(1)
        SECTION_GROUP _ZNSt11_Wrap_allocISaIcEEC2ERKS0_
          CFI Block cfiBlock36 Using cfiCommon0
          CFI Function _ZNSt11_Wrap_allocISaIcEEC2ERKS0_
        THUMB
// __code __interwork __vfp std::_Wrap_alloc<std::allocator<char>>::subobject _Wrap_alloc(std::allocator<char> const &)
_ZNSt11_Wrap_allocISaIcEEC2ERKS0_:
        PUSH     {R4,LR}
          CFI R14 Frame(CFA, -4)
          CFI R4 Frame(CFA, -8)
          CFI CFA R13+8
        MOVS     R4,R0
        MOVS     R0,R4
          CFI FunCall _ZNSt11_Wrap_allocISaIcEEC1ERKS0_
        BL       _ZNSt11_Wrap_allocISaIcEEC1ERKS0_
        POP      {R4,PC}          ;; return
          CFI EndBlock cfiBlock36

        SECTION `.text`:CODE:REORDER:NOROOT(1)
        SECTION_GROUP _ZNSt11_Wrap_allocISaIcEEC1ERKS0_
          CFI Block cfiBlock37 Using cfiCommon0
          CFI Function _ZNSt11_Wrap_allocISaIcEEC1ERKS0_
          CFI NoCalls
        THUMB
// __code __interwork __vfp std::_Wrap_alloc<std::allocator<char>>::_Wrap_alloc(std::allocator<char> const &)
_ZNSt11_Wrap_allocISaIcEEC1ERKS0_:
        BX       LR               ;; return
          CFI EndBlock cfiBlock37

        SECTION `.text`:CODE:REORDER:NOROOT(1)
        SECTION_GROUP _ZNSt11_Wrap_allocISaIcEE8allocateEj
          CFI Block cfiBlock38 Using cfiCommon0
          CFI Function _ZNSt11_Wrap_allocISaIcEE8allocateEj
        THUMB
// __interwork __vfp char * std::_Wrap_alloc<std::allocator<char>>::allocate(size_t)
_ZNSt11_Wrap_allocISaIcEE8allocateEj:
        PUSH     {R3-R5,LR}
          CFI R14 Frame(CFA, -4)
          CFI R5 Frame(CFA, -8)
          CFI R4 Frame(CFA, -12)
          CFI CFA R13+16
        MOVS     R4,R0
        MOVS     R5,R1
        MOVS     R1,R5
        MOVS     R0,R4
          CFI FunCall _ZNSaIcE8allocateEj
        BL       _ZNSaIcE8allocateEj
        POP      {R1,R4,R5,PC}    ;; return
          CFI EndBlock cfiBlock38

        SECTION `.text`:CODE:REORDER:NOROOT(1)
        SECTION_GROUP _ZNSt11_Wrap_allocISaIcEE10deallocateEPcj
          CFI Block cfiBlock39 Using cfiCommon0
          CFI Function _ZNSt11_Wrap_allocISaIcEE10deallocateEPcj
        THUMB
// __interwork __vfp void std::_Wrap_alloc<std::allocator<char>>::deallocate(char *, size_t)
_ZNSt11_Wrap_allocISaIcEE10deallocateEPcj:
        PUSH     {R4-R6,LR}
          CFI R14 Frame(CFA, -4)
          CFI R6 Frame(CFA, -8)
          CFI R5 Frame(CFA, -12)
          CFI R4 Frame(CFA, -16)
          CFI CFA R13+16
        MOVS     R4,R0
        MOVS     R5,R1
        MOVS     R6,R2
        MOVS     R2,R6
        MOVS     R1,R5
        MOVS     R0,R4
          CFI FunCall _ZNSaIcE10deallocateEPcj
        BL       _ZNSaIcE10deallocateEPcj
        POP      {R4-R6,PC}       ;; return
          CFI EndBlock cfiBlock39

        SECTION `.text`:CODE:REORDER:NOROOT(1)
        SECTION_GROUP _ZNSt11_Wrap_allocISaIcEE9constructIPcJS3_EEEvPT_DpOT0_
          CFI Block cfiBlock40 Using cfiCommon0
          CFI Function _ZNSt11_Wrap_allocISaIcEE9constructIPcJS3_EEEvPT_DpOT0_
        THUMB
// __interwork __vfp void std::_Wrap_alloc<std::allocator<char>>::construct<char *, char *>(char * *, char * &&)
_ZNSt11_Wrap_allocISaIcEE9constructIPcJS3_EEEvPT_DpOT0_:
        PUSH     {R4-R6,LR}
          CFI R14 Frame(CFA, -4)
          CFI R6 Frame(CFA, -8)
          CFI R5 Frame(CFA, -12)
          CFI R4 Frame(CFA, -16)
          CFI CFA R13+16
        MOVS     R4,R0
        MOVS     R5,R1
        MOVS     R6,R2
        MOVS     R0,R6
          CFI FunCall _ZSt7forwardIPcEOT_RNSt16remove_referenceIS1_E4typeE
        BL       _ZSt7forwardIPcEOT_RNSt16remove_referenceIS1_E4typeE
        MOVS     R2,R0
        MOVS     R1,R5
        MOVS     R0,R4
          CFI FunCall _ZNSt16allocator_traitsISaIcEE9constructIPcJS3_EEEvRS0_PT_DpOT0_
        BL       _ZNSt16allocator_traitsISaIcEE9constructIPcJS3_EEEvRS0_PT_DpOT0_
        POP      {R4-R6,PC}       ;; return
          CFI EndBlock cfiBlock40

        SECTION `.text`:CODE:REORDER:NOROOT(1)
        SECTION_GROUP _ZNSt11_Wrap_allocISaIcEE7destroyIPcEEvPT_
          CFI Block cfiBlock41 Using cfiCommon0
          CFI Function _ZNSt11_Wrap_allocISaIcEE7destroyIPcEEvPT_
        THUMB
// __interwork __vfp void std::_Wrap_alloc<std::allocator<char>>::destroy<char *>(char * *)
_ZNSt11_Wrap_allocISaIcEE7destroyIPcEEvPT_:
        PUSH     {R3-R5,LR}
          CFI R14 Frame(CFA, -4)
          CFI R5 Frame(CFA, -8)
          CFI R4 Frame(CFA, -12)
          CFI CFA R13+16
        MOVS     R4,R0
        MOVS     R5,R1
        MOVS     R1,R5
        MOVS     R0,R4
          CFI FunCall _ZNSt16allocator_traitsISaIcEE7destroyIPcEEvRS0_PT_
        BL       _ZNSt16allocator_traitsISaIcEE7destroyIPcEEvRS0_PT_
        POP      {R0,R4,R5,PC}    ;; return
          CFI EndBlock cfiBlock41

        SECTION `.text`:CODE:REORDER:NOROOT(1)
        SECTION_GROUP _ZNKSt11_Wrap_allocISaIcEE8max_sizeESt4_Nil
          CFI Block cfiBlock42 Using cfiCommon0
          CFI Function _ZNKSt11_Wrap_allocISaIcEE8max_sizeESt4_Nil
        THUMB
// __interwork __vfp size_t std::_Wrap_alloc<std::allocator<char>>::max_size(std::_Nil) const
_ZNKSt11_Wrap_allocISaIcEE8max_sizeESt4_Nil:
        PUSH     {R4,LR}
          CFI R14 Frame(CFA, -4)
          CFI R4 Frame(CFA, -8)
          CFI CFA R13+8
        MOVS     R4,R0
        MOVS     R0,R4
          CFI FunCall _ZNSt16allocator_traitsISaIcEE8max_sizeERKS0_
        BL       _ZNSt16allocator_traitsISaIcEE8max_sizeERKS0_
        POP      {R4,PC}          ;; return
          CFI EndBlock cfiBlock42

        SECTION `.text`:CODE:REORDER:NOROOT(1)
        SECTION_GROUP _ZNSt11_String_valISt13_Simple_typesIcEEC1Ev
          CFI Block cfiBlock43 Using cfiCommon0
          CFI Function _ZNSt11_String_valISt13_Simple_typesIcEEC1Ev
          CFI NoCalls
        THUMB
// __code __interwork __vfp std::_String_val<std::_Simple_types<char>>::_String_val()
_ZNSt11_String_valISt13_Simple_typesIcEEC1Ev:
        MOVS     R1,#+0
        STR      R1,[R0, #+16]
        MOVS     R1,#+0
        STR      R1,[R0, #+20]
        BX       LR               ;; return
          CFI EndBlock cfiBlock43

        SECTION `.text`:CODE:REORDER:NOROOT(1)
        SECTION_GROUP _ZNSt11_String_valISt13_Simple_typesIcEE6_MyptrEv
          CFI Block cfiBlock44 Using cfiCommon0
          CFI Function _ZNSt11_String_valISt13_Simple_typesIcEE6_MyptrEv
        THUMB
// __interwork __vfp char *std::_String_val<std::_Simple_types<char>>::_Myptr()
_ZNSt11_String_valISt13_Simple_typesIcEE6_MyptrEv:
        PUSH     {R4,LR}
          CFI R14 Frame(CFA, -4)
          CFI R4 Frame(CFA, -8)
          CFI CFA R13+8
        MOVS     R4,R0
        LDR      R0,[R4, #+20]
        CMP      R0,#+16
        BCC.N    ??_Myptr_0
        LDR      R0,[R4, #+0]
          CFI FunCall _ZSt9addressofIcEPT_RS0_
        BL       _ZSt9addressofIcEPT_RS0_
        B.N      ??_Myptr_1
??_Myptr_0:
        MOVS     R0,R4
??_Myptr_1:
        POP      {R4,PC}          ;; return
          CFI EndBlock cfiBlock44

        SECTION `.text`:CODE:REORDER:NOROOT(1)
        SECTION_GROUP _ZNKSt11_String_valISt13_Simple_typesIcEE6_MyptrEv
          CFI Block cfiBlock45 Using cfiCommon0
          CFI Function _ZNKSt11_String_valISt13_Simple_typesIcEE6_MyptrEv
        THUMB
// __interwork __vfp char const *std::_String_val<std::_Simple_types<char>>::_Myptr() const
_ZNKSt11_String_valISt13_Simple_typesIcEE6_MyptrEv:
        PUSH     {R4,LR}
          CFI R14 Frame(CFA, -4)
          CFI R4 Frame(CFA, -8)
          CFI CFA R13+8
        MOVS     R4,R0
        LDR      R0,[R4, #+20]
        CMP      R0,#+16
        BCC.N    ??_Myptr_2
        LDR      R0,[R4, #+0]
          CFI FunCall _ZSt9addressofIcEPT_RS0_
        BL       _ZSt9addressofIcEPT_RS0_
        B.N      ??_Myptr_3
??_Myptr_2:
        MOVS     R0,R4
??_Myptr_3:
        POP      {R4,PC}          ;; return
          CFI EndBlock cfiBlock45

        SECTION `.text`:CODE:REORDER:NOROOT(1)
        SECTION_GROUP _ZNSt13_String_allocISt18_String_base_typesIcSaIcEEE6_MyptrEv
          CFI Block cfiBlock46 Using cfiCommon0
          CFI Function _ZNSt13_String_allocISt18_String_base_typesIcSaIcEEE6_MyptrEv
        THUMB
// __interwork __vfp char *std::_String_alloc<std::_String_base_types<char, std::allocator<char>>>::_Myptr()
_ZNSt13_String_allocISt18_String_base_typesIcSaIcEEE6_MyptrEv:
        PUSH     {R4,LR}
          CFI R14 Frame(CFA, -4)
          CFI R4 Frame(CFA, -8)
          CFI CFA R13+8
        MOVS     R4,R0
        MOVS     R0,R4
          CFI FunCall _ZNSt13_String_allocISt18_String_base_typesIcSaIcEEE9_Get_dataEv
        BL       _ZNSt13_String_allocISt18_String_base_typesIcSaIcEEE9_Get_dataEv
          CFI FunCall _ZNSt11_String_valISt13_Simple_typesIcEE6_MyptrEv
        BL       _ZNSt11_String_valISt13_Simple_typesIcEE6_MyptrEv
        POP      {R4,PC}          ;; return
          CFI EndBlock cfiBlock46

        SECTION `.text`:CODE:REORDER:NOROOT(1)
        SECTION_GROUP _ZNKSt13_String_allocISt18_String_base_typesIcSaIcEEE6_MyptrEv
          CFI Block cfiBlock47 Using cfiCommon0
          CFI Function _ZNKSt13_String_allocISt18_String_base_typesIcSaIcEEE6_MyptrEv
        THUMB
// __interwork __vfp char const *std::_String_alloc<std::_String_base_types<char, std::allocator<char>>>::_Myptr() const
_ZNKSt13_String_allocISt18_String_base_typesIcSaIcEEE6_MyptrEv:
        PUSH     {R4,LR}
          CFI R14 Frame(CFA, -4)
          CFI R4 Frame(CFA, -8)
          CFI CFA R13+8
        MOVS     R4,R0
        MOVS     R0,R4
          CFI FunCall _ZNKSt13_String_allocISt18_String_base_typesIcSaIcEEE9_Get_dataEv
        BL       _ZNKSt13_String_allocISt18_String_base_typesIcSaIcEEE9_Get_dataEv
          CFI FunCall _ZNKSt11_String_valISt13_Simple_typesIcEE6_MyptrEv
        BL       _ZNKSt11_String_valISt13_Simple_typesIcEE6_MyptrEv
        POP      {R4,PC}          ;; return
          CFI EndBlock cfiBlock47

        SECTION `.text`:CODE:REORDER:NOROOT(1)
        SECTION_GROUP _ZNSt13_String_allocISt18_String_base_typesIcSaIcEEEC2ERKS1_
          CFI Block cfiBlock48 Using cfiCommon0
          CFI Function _ZNSt13_String_allocISt18_String_base_typesIcSaIcEEEC2ERKS1_
        THUMB
// __code __interwork __vfp std::_String_alloc<std::_String_base_types<char, std::allocator<char>>>::subobject _String_alloc(std::allocator<char> const &)
_ZNSt13_String_allocISt18_String_base_typesIcSaIcEEEC2ERKS1_:
        PUSH     {R4,LR}
          CFI R14 Frame(CFA, -4)
          CFI R4 Frame(CFA, -8)
          CFI CFA R13+8
        MOVS     R4,R0
        MOVS     R0,R4
          CFI FunCall _ZNSt13_String_allocISt18_String_base_typesIcSaIcEEEC1ERKS1_
        BL       _ZNSt13_String_allocISt18_String_base_typesIcSaIcEEEC1ERKS1_
        POP      {R4,PC}          ;; return
          CFI EndBlock cfiBlock48

        SECTION `.text`:CODE:REORDER:NOROOT(2)
        SECTION_GROUP _ZNSt13_String_allocISt18_String_base_typesIcSaIcEEEC1ERKS1_
          CFI Block cfiBlock49 Using cfiCommon0
          CFI Function _ZNSt13_String_allocISt18_String_base_typesIcSaIcEEEC1ERKS1_
        THUMB
// __code __interwork __vfp std::_String_alloc<std::_String_base_types<char, std::allocator<char>>>::_String_alloc(std::allocator<char> const &)
_ZNSt13_String_allocISt18_String_base_typesIcSaIcEEEC1ERKS1_:
        PUSH     {R3-R5,LR}
          CFI R14 Frame(CFA, -4)
          CFI R5 Frame(CFA, -8)
          CFI R4 Frame(CFA, -12)
          CFI CFA R13+16
        MOVS     R4,R0
        MOVS     R5,R1
        MOVS     R2,R5
        LDR.N    R0,??_String_alloc_0
        LDRB     R1,[R0, #+0]
        MOVS     R0,R4
          CFI FunCall _ZNSt16_Compressed_pairISt11_Wrap_allocISaIcEESt11_String_valISt13_Simple_typesIcEELb1EEC1IRKS1_JEEESt25_One_then_variadic_args_tOT_DpOT0_
        BL       _ZNSt16_Compressed_pairISt11_Wrap_allocISaIcEESt11_String_valISt13_Simple_typesIcEELb1EEC1IRKS1_JEEESt25_One_then_variadic_args_tOT_DpOT0_
        MOVS     R0,R4
        POP      {R1,R4,R5,PC}    ;; return
        Nop      
        DATA
??_String_alloc_0:
        DATA32
        DC32     ?_14
          CFI EndBlock cfiBlock49

        SECTION `.text`:CODE:REORDER:NOROOT(1)
        SECTION_GROUP _ZNSt13_String_allocISt18_String_base_typesIcSaIcEEE6_GetalEv
          CFI Block cfiBlock50 Using cfiCommon0
          CFI Function _ZNSt13_String_allocISt18_String_base_typesIcSaIcEEE6_GetalEv
        THUMB
// __interwork __vfp std::_Wrap_alloc<std::allocator<char>> &std::_String_alloc<std::_String_base_types<char, std::allocator<char>>>::_Getal()
_ZNSt13_String_allocISt18_String_base_typesIcSaIcEEE6_GetalEv:
        PUSH     {R4,LR}
          CFI R14 Frame(CFA, -4)
          CFI R4 Frame(CFA, -8)
          CFI CFA R13+8
        MOVS     R4,R0
        MOVS     R0,R4
          CFI FunCall _ZNSt16_Compressed_pairISt11_Wrap_allocISaIcEESt11_String_valISt13_Simple_typesIcEELb1EE10_Get_firstEv
        BL       _ZNSt16_Compressed_pairISt11_Wrap_allocISaIcEESt11_String_valISt13_Simple_typesIcEELb1EE10_Get_firstEv
        POP      {R4,PC}          ;; return
          CFI EndBlock cfiBlock50

        SECTION `.text`:CODE:REORDER:NOROOT(1)
        SECTION_GROUP _ZNKSt13_String_allocISt18_String_base_typesIcSaIcEEE6_GetalEv
          CFI Block cfiBlock51 Using cfiCommon0
          CFI Function _ZNKSt13_String_allocISt18_String_base_typesIcSaIcEEE6_GetalEv
        THUMB
// __interwork __vfp std::_Wrap_alloc<std::allocator<char>> const &std::_String_alloc<std::_String_base_types<char, std::allocator<char>>>::_Getal() const
_ZNKSt13_String_allocISt18_String_base_typesIcSaIcEEE6_GetalEv:
        PUSH     {R4,LR}
          CFI R14 Frame(CFA, -4)
          CFI R4 Frame(CFA, -8)
          CFI CFA R13+8
        MOVS     R4,R0
        MOVS     R0,R4
          CFI FunCall _ZNKSt16_Compressed_pairISt11_Wrap_allocISaIcEESt11_String_valISt13_Simple_typesIcEELb1EE10_Get_firstEv
        BL       _ZNKSt16_Compressed_pairISt11_Wrap_allocISaIcEESt11_String_valISt13_Simple_typesIcEELb1EE10_Get_firstEv
        POP      {R4,PC}          ;; return
          CFI EndBlock cfiBlock51

        SECTION `.text`:CODE:REORDER:NOROOT(1)
        SECTION_GROUP _ZNSt13_String_allocISt18_String_base_typesIcSaIcEEE9_Get_dataEv
          CFI Block cfiBlock52 Using cfiCommon0
          CFI Function _ZNSt13_String_allocISt18_String_base_typesIcSaIcEEE9_Get_dataEv
        THUMB
// __interwork __vfp std::_String_val<std::_Simple_types<char>> &std::_String_alloc<std::_String_base_types<char, std::allocator<char>>>::_Get_data()
_ZNSt13_String_allocISt18_String_base_typesIcSaIcEEE9_Get_dataEv:
        PUSH     {R4,LR}
          CFI R14 Frame(CFA, -4)
          CFI R4 Frame(CFA, -8)
          CFI CFA R13+8
        MOVS     R4,R0
        MOVS     R0,R4
          CFI FunCall _ZNSt16_Compressed_pairISt11_Wrap_allocISaIcEESt11_String_valISt13_Simple_typesIcEELb1EE11_Get_secondEv
        BL       _ZNSt16_Compressed_pairISt11_Wrap_allocISaIcEESt11_String_valISt13_Simple_typesIcEELb1EE11_Get_secondEv
        POP      {R4,PC}          ;; return
          CFI EndBlock cfiBlock52

        SECTION `.text`:CODE:REORDER:NOROOT(1)
        SECTION_GROUP _ZNKSt13_String_allocISt18_String_base_typesIcSaIcEEE9_Get_dataEv
          CFI Block cfiBlock53 Using cfiCommon0
          CFI Function _ZNKSt13_String_allocISt18_String_base_typesIcSaIcEEE9_Get_dataEv
        THUMB
// __interwork __vfp std::_String_val<std::_Simple_types<char>> const &std::_String_alloc<std::_String_base_types<char, std::allocator<char>>>::_Get_data() const
_ZNKSt13_String_allocISt18_String_base_typesIcSaIcEEE9_Get_dataEv:
        PUSH     {R4,LR}
          CFI R14 Frame(CFA, -4)
          CFI R4 Frame(CFA, -8)
          CFI CFA R13+8
        MOVS     R4,R0
        MOVS     R0,R4
          CFI FunCall _ZNKSt16_Compressed_pairISt11_Wrap_allocISaIcEESt11_String_valISt13_Simple_typesIcEELb1EE11_Get_secondEv
        BL       _ZNKSt16_Compressed_pairISt11_Wrap_allocISaIcEESt11_String_valISt13_Simple_typesIcEELb1EE11_Get_secondEv
        POP      {R4,PC}          ;; return
          CFI EndBlock cfiBlock53

        SECTION `.text`:CODE:REORDER:NOROOT(1)
        SECTION_GROUP _ZNSt13_String_allocISt18_String_base_typesIcSaIcEEE3_BxEv
          CFI Block cfiBlock54 Using cfiCommon0
          CFI Function _ZNSt13_String_allocISt18_String_base_typesIcSaIcEEE3_BxEv
        THUMB
// __interwork __vfp std::_String_val<std::_Simple_types<char>>::_Bxty &std::_String_alloc<std::_String_base_types<char, std::allocator<char>>>::_Bx()
_ZNSt13_String_allocISt18_String_base_typesIcSaIcEEE3_BxEv:
        PUSH     {R4,LR}
          CFI R14 Frame(CFA, -4)
          CFI R4 Frame(CFA, -8)
          CFI CFA R13+8
        MOVS     R4,R0
        MOVS     R0,R4
          CFI FunCall _ZNSt13_String_allocISt18_String_base_typesIcSaIcEEE9_Get_dataEv
        BL       _ZNSt13_String_allocISt18_String_base_typesIcSaIcEEE9_Get_dataEv
        POP      {R4,PC}          ;; return
          CFI EndBlock cfiBlock54

        SECTION `.text`:CODE:REORDER:NOROOT(1)
        SECTION_GROUP _ZNSt13_String_allocISt18_String_base_typesIcSaIcEEE7_MysizeEv
          CFI Block cfiBlock55 Using cfiCommon0
          CFI Function _ZNSt13_String_allocISt18_String_base_typesIcSaIcEEE7_MysizeEv
        THUMB
// __interwork __vfp size_t &std::_String_alloc<std::_String_base_types<char, std::allocator<char>>>::_Mysize()
_ZNSt13_String_allocISt18_String_base_typesIcSaIcEEE7_MysizeEv:
        PUSH     {R4,LR}
          CFI R14 Frame(CFA, -4)
          CFI R4 Frame(CFA, -8)
          CFI CFA R13+8
        MOVS     R4,R0
        MOVS     R0,R4
          CFI FunCall _ZNSt13_String_allocISt18_String_base_typesIcSaIcEEE9_Get_dataEv
        BL       _ZNSt13_String_allocISt18_String_base_typesIcSaIcEEE9_Get_dataEv
        ADDS     R0,R0,#+16
        POP      {R4,PC}          ;; return
          CFI EndBlock cfiBlock55

        SECTION `.text`:CODE:REORDER:NOROOT(1)
        SECTION_GROUP _ZNKSt13_String_allocISt18_String_base_typesIcSaIcEEE7_MysizeEv
          CFI Block cfiBlock56 Using cfiCommon0
          CFI Function _ZNKSt13_String_allocISt18_String_base_typesIcSaIcEEE7_MysizeEv
        THUMB
// __interwork __vfp size_t const &std::_String_alloc<std::_String_base_types<char, std::allocator<char>>>::_Mysize() const
_ZNKSt13_String_allocISt18_String_base_typesIcSaIcEEE7_MysizeEv:
        PUSH     {R4,LR}
          CFI R14 Frame(CFA, -4)
          CFI R4 Frame(CFA, -8)
          CFI CFA R13+8
        MOVS     R4,R0
        MOVS     R0,R4
          CFI FunCall _ZNKSt13_String_allocISt18_String_base_typesIcSaIcEEE9_Get_dataEv
        BL       _ZNKSt13_String_allocISt18_String_base_typesIcSaIcEEE9_Get_dataEv
        ADDS     R0,R0,#+16
        POP      {R4,PC}          ;; return
          CFI EndBlock cfiBlock56

        SECTION `.text`:CODE:REORDER:NOROOT(1)
        SECTION_GROUP _ZNSt13_String_allocISt18_String_base_typesIcSaIcEEE6_MyresEv
          CFI Block cfiBlock57 Using cfiCommon0
          CFI Function _ZNSt13_String_allocISt18_String_base_typesIcSaIcEEE6_MyresEv
        THUMB
// __interwork __vfp size_t &std::_String_alloc<std::_String_base_types<char, std::allocator<char>>>::_Myres()
_ZNSt13_String_allocISt18_String_base_typesIcSaIcEEE6_MyresEv:
        PUSH     {R4,LR}
          CFI R14 Frame(CFA, -4)
          CFI R4 Frame(CFA, -8)
          CFI CFA R13+8
        MOVS     R4,R0
        MOVS     R0,R4
          CFI FunCall _ZNSt13_String_allocISt18_String_base_typesIcSaIcEEE9_Get_dataEv
        BL       _ZNSt13_String_allocISt18_String_base_typesIcSaIcEEE9_Get_dataEv
        ADDS     R0,R0,#+20
        POP      {R4,PC}          ;; return
          CFI EndBlock cfiBlock57

        SECTION `.text`:CODE:REORDER:NOROOT(1)
        SECTION_GROUP _ZNSsC1ERKSs
          CFI Block cfiBlock58 Using cfiCommon0
          CFI Function _ZNSsC1ERKSs
        THUMB
// __code __interwork __vfp std::string::basic_string(std::string const &)
_ZNSsC1ERKSs:
        PUSH     {R2-R6,LR}
          CFI R14 Frame(CFA, -4)
          CFI R6 Frame(CFA, -8)
          CFI R5 Frame(CFA, -12)
          CFI R4 Frame(CFA, -16)
          CFI CFA R13+24
        MOVS     R4,R0
        MOVS     R5,R1
        MOVS     R0,R5
          CFI FunCall _ZNKSt13_String_allocISt18_String_base_typesIcSaIcEEE6_GetalEv
        BL       _ZNKSt13_String_allocISt18_String_base_typesIcSaIcEEE6_GetalEv
        MOVS     R2,R6
        MOVS     R1,R0
        MOV      R0,SP
          CFI FunCall _ZNKSt11_Wrap_allocISaIcEE37select_on_container_copy_constructionESt4_Nil
        BL       _ZNKSt11_Wrap_allocISaIcEE37select_on_container_copy_constructionESt4_Nil
        MOV      R1,SP
        MOVS     R0,R4
          CFI FunCall _ZNSt13_String_allocISt18_String_base_typesIcSaIcEEEC2ERKS1_
        BL       _ZNSt13_String_allocISt18_String_base_typesIcSaIcEEEC2ERKS1_
        MOVS     R2,#+0
        MOVS     R1,#+0
        MOVS     R0,R4
          CFI FunCall _ZNSs5_TidyEbj
        BL       _ZNSs5_TidyEbj
        MOVS     R3,#-1
        MOVS     R2,#+0
        MOVS     R1,R5
        MOVS     R0,R4
          CFI FunCall _ZNSs6assignERKSsjj
        BL       _ZNSs6assignERKSsjj
        MOVS     R0,R4
        POP      {R1,R2,R4-R6,PC}  ;; return
          CFI EndBlock cfiBlock58

        SECTION `.text`:CODE:REORDER:NOROOT(1)
        SECTION_GROUP _ZNSsC1Ev
          CFI Block cfiBlock59 Using cfiCommon0
          CFI Function _ZNSsC1Ev
        THUMB
// __code __interwork __vfp std::string::basic_string()
_ZNSsC1Ev:
        PUSH     {R2-R4,LR}
          CFI R14 Frame(CFA, -4)
          CFI R4 Frame(CFA, -8)
          CFI CFA R13+16
        MOVS     R4,R0
        MOV      R1,SP
        MOVS     R0,R4
          CFI FunCall _ZNSt13_String_allocISt18_String_base_typesIcSaIcEEEC2ERKS1_
        BL       _ZNSt13_String_allocISt18_String_base_typesIcSaIcEEEC2ERKS1_
        MOVS     R2,#+0
        MOVS     R1,#+0
        MOVS     R0,R4
          CFI FunCall _ZNSs5_TidyEbj
        BL       _ZNSs5_TidyEbj
        MOVS     R0,R4
        POP      {R1,R2,R4,PC}    ;; return
          CFI EndBlock cfiBlock59

        SECTION `.text`:CODE:REORDER:NOROOT(1)
        SECTION_GROUP _ZNSsC1EPKc
          CFI Block cfiBlock60 Using cfiCommon0
          CFI Function _ZNSsC1EPKc
        THUMB
// __code __interwork __vfp std::string::basic_string(char const *)
_ZNSsC1EPKc:
        PUSH     {R3-R5,LR}
          CFI R14 Frame(CFA, -4)
          CFI R5 Frame(CFA, -8)
          CFI R4 Frame(CFA, -12)
          CFI CFA R13+16
        MOVS     R4,R0
        MOVS     R5,R1
        MOV      R1,SP
        MOVS     R0,R4
          CFI FunCall _ZNSt13_String_allocISt18_String_base_typesIcSaIcEEEC2ERKS1_
        BL       _ZNSt13_String_allocISt18_String_base_typesIcSaIcEEEC2ERKS1_
        MOVS     R2,#+0
        MOVS     R1,#+0
        MOVS     R0,R4
          CFI FunCall _ZNSs5_TidyEbj
        BL       _ZNSs5_TidyEbj
        MOVS     R1,R5
        MOVS     R0,R4
          CFI FunCall _ZNSs6assignEPKc
        BL       _ZNSs6assignEPKc
        MOVS     R0,R4
        POP      {R1,R4,R5,PC}    ;; return
          CFI EndBlock cfiBlock60

        SECTION `.text`:CODE:REORDER:NOROOT(1)
        SECTION_GROUP _ZNSsD1Ev
          CFI Block cfiBlock61 Using cfiCommon0
          CFI Function _ZNSsD1Ev
        THUMB
// __code __interwork __vfp std::string::~basic_string()
_ZNSsD1Ev:
        PUSH     {R4,LR}
          CFI R14 Frame(CFA, -4)
          CFI R4 Frame(CFA, -8)
          CFI CFA R13+8
        MOVS     R4,R0
        MOVS     R2,#+0
        MOVS     R1,#+1
        MOVS     R0,R4
          CFI FunCall _ZNSs5_TidyEbj
        BL       _ZNSs5_TidyEbj
        MOVS     R0,R4
        POP      {R4,PC}          ;; return
          CFI EndBlock cfiBlock61

        SECTION `.text`:CODE:REORDER:NOROOT(1)
        SECTION_GROUP _ZNSsaSEPKc
          CFI Block cfiBlock62 Using cfiCommon0
          CFI Function _ZNSsaSEPKc
        THUMB
// __interwork __vfp std::string &std::string::operator=(char const *)
_ZNSsaSEPKc:
        PUSH     {R3-R5,LR}
          CFI R14 Frame(CFA, -4)
          CFI R5 Frame(CFA, -8)
          CFI R4 Frame(CFA, -12)
          CFI CFA R13+16
        MOVS     R4,R0
        MOVS     R5,R1
        MOVS     R1,R5
        MOVS     R0,R4
          CFI FunCall _ZNSs6assignEPKc
        BL       _ZNSs6assignEPKc
        POP      {R1,R4,R5,PC}    ;; return
          CFI EndBlock cfiBlock62

        SECTION `.text`:CODE:REORDER:NOROOT(1)
        SECTION_GROUP _ZNSs6assignERKSsjj
          CFI Block cfiBlock63 Using cfiCommon0
          CFI Function _ZNSs6assignERKSsjj
        THUMB
// __interwork __vfp std::string &std::string::assign(std::string const &, size_t, size_t)
_ZNSs6assignERKSsjj:
        PUSH     {R3-R9,LR}
          CFI R14 Frame(CFA, -4)
          CFI R9 Frame(CFA, -8)
          CFI R8 Frame(CFA, -12)
          CFI R7 Frame(CFA, -16)
          CFI R6 Frame(CFA, -20)
          CFI R5 Frame(CFA, -24)
          CFI R4 Frame(CFA, -28)
          CFI CFA R13+32
        MOVS     R4,R0
        MOVS     R5,R1
        MOVS     R6,R2
        MOVS     R7,R3
        MOVS     R0,R5
          CFI FunCall _ZNKSs4sizeEv
        BL       _ZNKSs4sizeEv
        CMP      R0,R6
        BCS.N    ??assign_0
          CFI FunCall __iar_Raise_ran
        BL       __iar_Raise_ran
??assign_0:
        MOVS     R0,R5
          CFI FunCall _ZNKSs4sizeEv
        BL       _ZNKSs4sizeEv
        MOV      R8,R0
        SUBS     R8,R8,R6
        CMP      R7,R8
        BCS.N    ??assign_1
        MOV      R8,R7
??assign_1:
        CMP      R4,R5
        BNE.N    ??assign_2
        ADDS     R1,R8,R6
        MOVS     R0,R4
          CFI FunCall _ZNSs5eraseEj
        BL       _ZNSs5eraseEj
        MOVS     R2,R6
        MOVS     R1,#+0
        MOVS     R0,R4
          CFI FunCall _ZNSs5eraseEjj
        BL       _ZNSs5eraseEjj
        B.N      ??assign_3
??assign_2:
        MOVS     R2,#+0
        MOV      R1,R8
        MOVS     R0,R4
          CFI FunCall _ZNSs5_GrowEjb
        BL       _ZNSs5_GrowEjb
        CMP      R0,#+0
        BEQ.N    ??assign_3
        MOVS     R0,R5
          CFI FunCall _ZNKSt13_String_allocISt18_String_base_typesIcSaIcEEE6_MyptrEv
        BL       _ZNKSt13_String_allocISt18_String_base_typesIcSaIcEEE6_MyptrEv
        MOV      R9,R0
        MOVS     R0,R4
          CFI FunCall _ZNSt13_String_allocISt18_String_base_typesIcSaIcEEE6_MyptrEv
        BL       _ZNSt13_String_allocISt18_String_base_typesIcSaIcEEE6_MyptrEv
        MOV      R2,R8
        ADD      R1,R9,R6
          CFI FunCall _ZNSt11char_traitsIcE4copyEPcPKcj
        BL       _ZNSt11char_traitsIcE4copyEPcPKcj
        MOV      R1,R8
        MOVS     R0,R4
          CFI FunCall _ZNSs4_EosEj
        BL       _ZNSs4_EosEj
??assign_3:
        MOVS     R0,R4
        POP      {R1,R4-R9,PC}    ;; return
          CFI EndBlock cfiBlock63

        SECTION `.text`:CODE:REORDER:NOROOT(1)
        SECTION_GROUP _ZNSs6assignEPKcj
          CFI Block cfiBlock64 Using cfiCommon0
          CFI Function _ZNSs6assignEPKcj
        THUMB
// __interwork __vfp std::string &std::string::assign(char const *, size_t)
_ZNSs6assignEPKcj:
        PUSH     {R4-R6,LR}
          CFI R14 Frame(CFA, -4)
          CFI R6 Frame(CFA, -8)
          CFI R5 Frame(CFA, -12)
          CFI R4 Frame(CFA, -16)
          CFI CFA R13+16
        MOVS     R4,R0
        MOVS     R5,R1
        MOVS     R6,R2
        MOVS     R1,R5
        MOVS     R0,R4
          CFI FunCall _ZNSs7_InsideEPKc
        BL       _ZNSs7_InsideEPKc
        CMP      R0,#+0
        BEQ.N    ??assign_4
        MOVS     R0,R4
          CFI FunCall _ZNSt13_String_allocISt18_String_base_typesIcSaIcEEE6_MyptrEv
        BL       _ZNSt13_String_allocISt18_String_base_typesIcSaIcEEE6_MyptrEv
        MOVS     R3,R6
        SUBS     R0,R5,R0
        MOVS     R2,R0
        MOVS     R1,R4
        MOVS     R0,R4
          CFI FunCall _ZNSs6assignERKSsjj
        BL       _ZNSs6assignERKSsjj
        B.N      ??assign_5
??assign_4:
        MOVS     R2,#+0
        MOVS     R1,R6
        MOVS     R0,R4
          CFI FunCall _ZNSs5_GrowEjb
        BL       _ZNSs5_GrowEjb
        CMP      R0,#+0
        BEQ.N    ??assign_6
        MOVS     R0,R4
          CFI FunCall _ZNSt13_String_allocISt18_String_base_typesIcSaIcEEE6_MyptrEv
        BL       _ZNSt13_String_allocISt18_String_base_typesIcSaIcEEE6_MyptrEv
        MOVS     R2,R6
        MOVS     R1,R5
          CFI FunCall _ZNSt11char_traitsIcE4copyEPcPKcj
        BL       _ZNSt11char_traitsIcE4copyEPcPKcj
        MOVS     R1,R6
        MOVS     R0,R4
          CFI FunCall _ZNSs4_EosEj
        BL       _ZNSs4_EosEj
??assign_6:
        MOVS     R0,R4
??assign_5:
        POP      {R4-R6,PC}       ;; return
          CFI EndBlock cfiBlock64

        SECTION `.text`:CODE:REORDER:NOROOT(1)
        SECTION_GROUP _ZNSs6assignEPKc
          CFI Block cfiBlock65 Using cfiCommon0
          CFI Function _ZNSs6assignEPKc
        THUMB
// __interwork __vfp std::string &std::string::assign(char const *)
_ZNSs6assignEPKc:
        PUSH     {R3-R5,LR}
          CFI R14 Frame(CFA, -4)
          CFI R5 Frame(CFA, -8)
          CFI R4 Frame(CFA, -12)
          CFI CFA R13+16
        MOVS     R4,R0
        MOVS     R5,R1
        MOVS     R0,R5
          CFI FunCall _ZNSt11char_traitsIcE6lengthEPKc
        BL       _ZNSt11char_traitsIcE6lengthEPKc
        MOVS     R2,R0
        MOVS     R1,R5
        MOVS     R0,R4
          CFI FunCall _ZNSs6assignEPKcj
        BL       _ZNSs6assignEPKcj
        POP      {R1,R4,R5,PC}    ;; return
          CFI EndBlock cfiBlock65

        SECTION `.text`:CODE:REORDER:NOROOT(1)
        SECTION_GROUP _ZNSs5eraseEj
          CFI Block cfiBlock66 Using cfiCommon0
          CFI Function _ZNSs5eraseEj
        THUMB
// __interwork __vfp std::string &std::string::erase(size_t)
_ZNSs5eraseEj:
        PUSH     {R3-R5,LR}
          CFI R14 Frame(CFA, -4)
          CFI R5 Frame(CFA, -8)
          CFI R4 Frame(CFA, -12)
          CFI CFA R13+16
        MOVS     R4,R0
        MOVS     R5,R1
        MOVS     R0,R4
          CFI FunCall _ZNSt13_String_allocISt18_String_base_typesIcSaIcEEE7_MysizeEv
        BL       _ZNSt13_String_allocISt18_String_base_typesIcSaIcEEE7_MysizeEv
        LDR      R0,[R0, #+0]
        CMP      R0,R5
        BCS.N    ??erase_0
          CFI FunCall __iar_Raise_ran
        BL       __iar_Raise_ran
??erase_0:
        MOVS     R1,R5
        MOVS     R0,R4
          CFI FunCall _ZNSs4_EosEj
        BL       _ZNSs4_EosEj
        MOVS     R0,R4
        POP      {R1,R4,R5,PC}    ;; return
          CFI EndBlock cfiBlock66

        SECTION `.text`:CODE:REORDER:NOROOT(1)
        SECTION_GROUP _ZNSs5eraseEjj
          CFI Block cfiBlock67 Using cfiCommon0
          CFI Function _ZNSs5eraseEjj
        THUMB
// __interwork __vfp std::string &std::string::erase(size_t, size_t)
_ZNSs5eraseEjj:
        PUSH     {R4-R8,LR}
          CFI R14 Frame(CFA, -4)
          CFI R8 Frame(CFA, -8)
          CFI R7 Frame(CFA, -12)
          CFI R6 Frame(CFA, -16)
          CFI R5 Frame(CFA, -20)
          CFI R4 Frame(CFA, -24)
          CFI CFA R13+24
        MOVS     R5,R0
        MOVS     R6,R1
        MOVS     R4,R2
        MOVS     R0,R5
          CFI FunCall _ZNSt13_String_allocISt18_String_base_typesIcSaIcEEE7_MysizeEv
        BL       _ZNSt13_String_allocISt18_String_base_typesIcSaIcEEE7_MysizeEv
        LDR      R0,[R0, #+0]
        CMP      R0,R6
        BCS.N    ??erase_1
          CFI FunCall __iar_Raise_ran
        BL       __iar_Raise_ran
??erase_1:
        MOVS     R0,R5
          CFI FunCall _ZNSt13_String_allocISt18_String_base_typesIcSaIcEEE7_MysizeEv
        BL       _ZNSt13_String_allocISt18_String_base_typesIcSaIcEEE7_MysizeEv
        LDR      R0,[R0, #+0]
        SUBS     R0,R0,R6
        CMP      R4,R0
        BCC.N    ??erase_2
        MOVS     R1,R6
        MOVS     R0,R5
          CFI FunCall _ZNSs4_EosEj
        BL       _ZNSs4_EosEj
        B.N      ??erase_3
??erase_2:
        CMP      R4,#+0
        BEQ.N    ??erase_3
        MOVS     R0,R5
          CFI FunCall _ZNSt13_String_allocISt18_String_base_typesIcSaIcEEE6_MyptrEv
        BL       _ZNSt13_String_allocISt18_String_base_typesIcSaIcEEE6_MyptrEv
        ADD      R7,R0,R6
        MOVS     R0,R5
          CFI FunCall _ZNSt13_String_allocISt18_String_base_typesIcSaIcEEE7_MysizeEv
        BL       _ZNSt13_String_allocISt18_String_base_typesIcSaIcEEE7_MysizeEv
        LDR      R8,[R0, #+0]
        SUBS     R8,R8,R4
        SUBS     R2,R8,R6
        ADD      R1,R7,R4
        MOVS     R0,R7
          CFI FunCall _ZNSt11char_traitsIcE4moveEPcPKcj
        BL       _ZNSt11char_traitsIcE4moveEPcPKcj
        MOV      R1,R8
        MOVS     R0,R5
          CFI FunCall _ZNSs4_EosEj
        BL       _ZNSs4_EosEj
??erase_3:
        MOVS     R0,R5
        POP      {R4-R8,PC}       ;; return
          CFI EndBlock cfiBlock67

        SECTION `.text`:CODE:REORDER:NOROOT(1)
        SECTION_GROUP _ZNKSs5c_strEv
          CFI Block cfiBlock68 Using cfiCommon0
          CFI Function _ZNKSs5c_strEv
        THUMB
// __interwork __vfp char const *std::string::c_str() const
_ZNKSs5c_strEv:
        PUSH     {R4,LR}
          CFI R14 Frame(CFA, -4)
          CFI R4 Frame(CFA, -8)
          CFI CFA R13+8
        MOVS     R4,R0
        MOVS     R0,R4
          CFI FunCall _ZNKSt13_String_allocISt18_String_base_typesIcSaIcEEE6_MyptrEv
        BL       _ZNKSt13_String_allocISt18_String_base_typesIcSaIcEEE6_MyptrEv
        POP      {R4,PC}          ;; return
          CFI EndBlock cfiBlock68

        SECTION `.text`:CODE:REORDER:NOROOT(1)
        SECTION_GROUP _ZNKSs6lengthEv
          CFI Block cfiBlock69 Using cfiCommon0
          CFI Function _ZNKSs6lengthEv
        THUMB
// __interwork __vfp size_t std::string::length() const
_ZNKSs6lengthEv:
        PUSH     {R4,LR}
          CFI R14 Frame(CFA, -4)
          CFI R4 Frame(CFA, -8)
          CFI CFA R13+8
        MOVS     R4,R0
        MOVS     R0,R4
          CFI FunCall _ZNKSt13_String_allocISt18_String_base_typesIcSaIcEEE7_MysizeEv
        BL       _ZNKSt13_String_allocISt18_String_base_typesIcSaIcEEE7_MysizeEv
        LDR      R0,[R0, #+0]
        POP      {R4,PC}          ;; return
          CFI EndBlock cfiBlock69

        SECTION `.text`:CODE:REORDER:NOROOT(1)
        SECTION_GROUP _ZNKSs4sizeEv
          CFI Block cfiBlock70 Using cfiCommon0
          CFI Function _ZNKSs4sizeEv
        THUMB
// __interwork __vfp size_t std::string::size() const
_ZNKSs4sizeEv:
        PUSH     {R4,LR}
          CFI R14 Frame(CFA, -4)
          CFI R4 Frame(CFA, -8)
          CFI CFA R13+8
        MOVS     R4,R0
        MOVS     R0,R4
          CFI FunCall _ZNKSt13_String_allocISt18_String_base_typesIcSaIcEEE7_MysizeEv
        BL       _ZNKSt13_String_allocISt18_String_base_typesIcSaIcEEE7_MysizeEv
        LDR      R0,[R0, #+0]
        POP      {R4,PC}          ;; return
          CFI EndBlock cfiBlock70

        SECTION `.text`:CODE:REORDER:NOROOT(1)
        SECTION_GROUP _ZNKSs8max_sizeEv
          CFI Block cfiBlock71 Using cfiCommon0
          CFI Function _ZNKSs8max_sizeEv
        THUMB
// __interwork __vfp size_t std::string::max_size() const
_ZNKSs8max_sizeEv:
        PUSH     {R3-R5,LR}
          CFI R14 Frame(CFA, -4)
          CFI R5 Frame(CFA, -8)
          CFI R4 Frame(CFA, -12)
          CFI CFA R13+16
        MOVS     R4,R0
        MOVS     R0,R4
          CFI FunCall _ZNKSt13_String_allocISt18_String_base_typesIcSaIcEEE6_GetalEv
        BL       _ZNKSt13_String_allocISt18_String_base_typesIcSaIcEEE6_GetalEv
        MOVS     R1,R5
          CFI FunCall _ZNKSt11_Wrap_allocISaIcEE8max_sizeESt4_Nil
        BL       _ZNKSt11_Wrap_allocISaIcEE8max_sizeESt4_Nil
        CMP      R0,#+2
        BCS.N    ??max_size_0
        MOVS     R0,#+1
        B.N      ??max_size_1
??max_size_0:
        SUBS     R0,R0,#+1
??max_size_1:
        POP      {R1,R4,R5,PC}    ;; return
          CFI EndBlock cfiBlock71

        SECTION `.text`:CODE:REORDER:NOROOT(1)
        SECTION_GROUP _ZNSs5_CopyEjj
          CFI Block cfiBlock72 Using cfiCommon0
          CFI Function _ZNSs5_CopyEjj
        THUMB
// __interwork __vfp void std::string::_Copy(size_t, size_t)
_ZNSs5_CopyEjj:
        PUSH     {R3-R9,LR}
          CFI R14 Frame(CFA, -4)
          CFI R9 Frame(CFA, -8)
          CFI R8 Frame(CFA, -12)
          CFI R7 Frame(CFA, -16)
          CFI R6 Frame(CFA, -20)
          CFI R5 Frame(CFA, -24)
          CFI R4 Frame(CFA, -28)
          CFI CFA R13+32
        MOVS     R5,R0
        MOVS     R6,R1
        MOVS     R4,R2
        ORRS     R7,R6,#0xF
        MOVS     R0,R5
          CFI FunCall _ZNKSs8max_sizeEv
        BL       _ZNKSs8max_sizeEv
        CMP      R0,R7
        BCS.N    ??_Copy_0
        MOVS     R7,R6
        B.N      ??_Copy_1
??_Copy_0:
        MOVS     R0,R5
          CFI FunCall _ZNSt13_String_allocISt18_String_base_typesIcSaIcEEE6_MyresEv
        BL       _ZNSt13_String_allocISt18_String_base_typesIcSaIcEEE6_MyresEv
        MOVS     R1,#+3
        UDIV     R1,R7,R1
        LDR      R0,[R0, #+0]
        CMP      R1,R0, LSR #+1
        BCS.N    ??_Copy_1
        MOVS     R0,R5
          CFI FunCall _ZNKSs8max_sizeEv
        BL       _ZNKSs8max_sizeEv
        MOV      R8,R0
        MOVS     R0,R5
          CFI FunCall _ZNSt13_String_allocISt18_String_base_typesIcSaIcEEE6_MyresEv
        BL       _ZNSt13_String_allocISt18_String_base_typesIcSaIcEEE6_MyresEv
        MOV      R9,R0
        MOVS     R0,R5
          CFI FunCall _ZNSt13_String_allocISt18_String_base_typesIcSaIcEEE6_MyresEv
        BL       _ZNSt13_String_allocISt18_String_base_typesIcSaIcEEE6_MyresEv
        LDR      R1,[R9, #+0]
        SUBS     R8,R8,R1, LSR #+1
        LDR      R0,[R0, #+0]
        CMP      R8,R0
        BCC.N    ??_Copy_2
        MOVS     R0,R5
          CFI FunCall _ZNSt13_String_allocISt18_String_base_typesIcSaIcEEE6_MyresEv
        BL       _ZNSt13_String_allocISt18_String_base_typesIcSaIcEEE6_MyresEv
        MOV      R8,R0
        MOVS     R0,R5
          CFI FunCall _ZNSt13_String_allocISt18_String_base_typesIcSaIcEEE6_MyresEv
        BL       _ZNSt13_String_allocISt18_String_base_typesIcSaIcEEE6_MyresEv
        LDR      R1,[R8, #+0]
        LDR      R0,[R0, #+0]
        ADDS     R1,R1,R0, LSR #+1
        MOVS     R7,R1
        B.N      ??_Copy_1
??_Copy_2:
        MOVS     R0,R5
          CFI FunCall _ZNKSs8max_sizeEv
        BL       _ZNKSs8max_sizeEv
        MOVS     R7,R0
??_Copy_1:
        MOVS     R0,R5
          CFI FunCall _ZNSt13_String_allocISt18_String_base_typesIcSaIcEEE6_GetalEv
        BL       _ZNSt13_String_allocISt18_String_base_typesIcSaIcEEE6_GetalEv
        ADDS     R1,R7,#+1
          CFI FunCall _ZNSt11_Wrap_allocISaIcEE8allocateEj
        BL       _ZNSt11_Wrap_allocISaIcEE8allocateEj
        STR      R0,[SP, #+0]
        CMP      R4,#+0
        BEQ.N    ??_Copy_3
        MOVS     R0,R5
          CFI FunCall _ZNSt13_String_allocISt18_String_base_typesIcSaIcEEE6_MyptrEv
        BL       _ZNSt13_String_allocISt18_String_base_typesIcSaIcEEE6_MyptrEv
        MOV      R8,R0
        LDR      R0,[SP, #+0]
          CFI FunCall _ZSt9addressofIcEPT_RS0_
        BL       _ZSt9addressofIcEPT_RS0_
        MOVS     R2,R4
        MOV      R1,R8
          CFI FunCall _ZNSt11char_traitsIcE4copyEPcPKcj
        BL       _ZNSt11char_traitsIcE4copyEPcPKcj
??_Copy_3:
        MOVS     R2,#+0
        MOVS     R1,#+1
        MOVS     R0,R5
          CFI FunCall _ZNSs5_TidyEbj
        BL       _ZNSs5_TidyEbj
        MOV      R0,SP
          CFI FunCall _ZSt4moveIRPcEONSt16remove_referenceIT_E4typeEOS3_
        BL       _ZSt4moveIRPcEONSt16remove_referenceIT_E4typeEOS3_
        MOV      R8,R0
        MOVS     R0,R5
          CFI FunCall _ZNSt13_String_allocISt18_String_base_typesIcSaIcEEE3_BxEv
        BL       _ZNSt13_String_allocISt18_String_base_typesIcSaIcEEE3_BxEv
        MOV      R9,R0
        MOVS     R0,R5
          CFI FunCall _ZNSt13_String_allocISt18_String_base_typesIcSaIcEEE6_GetalEv
        BL       _ZNSt13_String_allocISt18_String_base_typesIcSaIcEEE6_GetalEv
        MOV      R2,R8
        MOV      R1,R9
          CFI FunCall _ZNSt11_Wrap_allocISaIcEE9constructIPcJS3_EEEvPT_DpOT0_
        BL       _ZNSt11_Wrap_allocISaIcEE9constructIPcJS3_EEEvPT_DpOT0_
        MOVS     R0,R5
          CFI FunCall _ZNSt13_String_allocISt18_String_base_typesIcSaIcEEE6_MyresEv
        BL       _ZNSt13_String_allocISt18_String_base_typesIcSaIcEEE6_MyresEv
        STR      R7,[R0, #+0]
        MOVS     R1,R4
        MOVS     R0,R5
          CFI FunCall _ZNSs4_EosEj
        BL       _ZNSs4_EosEj
        POP      {R0,R4-R9,PC}    ;; return
          CFI EndBlock cfiBlock72

        SECTION `.text`:CODE:REORDER:NOROOT(1)
        SECTION_GROUP _ZNSs4_EosEj
          CFI Block cfiBlock73 Using cfiCommon0
          CFI Function _ZNSs4_EosEj
        THUMB
// __interwork __vfp void std::string::_Eos(size_t)
_ZNSs4_EosEj:
        PUSH     {R2-R6,LR}
          CFI R14 Frame(CFA, -4)
          CFI R6 Frame(CFA, -8)
          CFI R5 Frame(CFA, -12)
          CFI R4 Frame(CFA, -16)
          CFI CFA R13+24
        MOVS     R4,R0
        MOVS     R5,R1
        MOVS     R0,#+0
        STRB     R0,[SP, #+0]
        MOVS     R0,R4
          CFI FunCall _ZNSt13_String_allocISt18_String_base_typesIcSaIcEEE6_MyptrEv
        BL       _ZNSt13_String_allocISt18_String_base_typesIcSaIcEEE6_MyptrEv
        MOVS     R6,R0
        MOVS     R0,R4
          CFI FunCall _ZNSt13_String_allocISt18_String_base_typesIcSaIcEEE7_MysizeEv
        BL       _ZNSt13_String_allocISt18_String_base_typesIcSaIcEEE7_MysizeEv
        STR      R5,[R0, #+0]
        MOV      R1,SP
        LDR      R0,[R0, #+0]
        ADD      R0,R6,R0
          CFI FunCall _ZNSt11char_traitsIcE6assignERcRKc
        BL       _ZNSt11char_traitsIcE6assignERcRKc
        POP      {R0,R1,R4-R6,PC}  ;; return
          CFI EndBlock cfiBlock73

        SECTION `.text`:CODE:REORDER:NOROOT(1)
        SECTION_GROUP _ZNSs5_GrowEjb
          CFI Block cfiBlock74 Using cfiCommon0
          CFI Function _ZNSs5_GrowEjb
        THUMB
// __interwork __vfp bool std::string::_Grow(size_t, bool)
_ZNSs5_GrowEjb:
        PUSH     {R4-R6,LR}
          CFI R14 Frame(CFA, -4)
          CFI R6 Frame(CFA, -8)
          CFI R5 Frame(CFA, -12)
          CFI R4 Frame(CFA, -16)
          CFI CFA R13+16
        MOVS     R5,R0
        MOVS     R4,R1
        MOVS     R6,R2
        MOVS     R0,R5
          CFI FunCall _ZNKSs8max_sizeEv
        BL       _ZNKSs8max_sizeEv
        CMP      R0,R4
        BCS.N    ??_Grow_0
          CFI FunCall __iar_Raise_len
        BL       __iar_Raise_len
??_Grow_0:
        MOVS     R0,R5
          CFI FunCall _ZNSt13_String_allocISt18_String_base_typesIcSaIcEEE6_MyresEv
        BL       _ZNSt13_String_allocISt18_String_base_typesIcSaIcEEE6_MyresEv
        LDR      R0,[R0, #+0]
        CMP      R0,R4
        BCS.N    ??_Grow_1
        MOVS     R0,R5
          CFI FunCall _ZNSt13_String_allocISt18_String_base_typesIcSaIcEEE7_MysizeEv
        BL       _ZNSt13_String_allocISt18_String_base_typesIcSaIcEEE7_MysizeEv
        LDR      R2,[R0, #+0]
        MOVS     R1,R4
        MOVS     R0,R5
          CFI FunCall _ZNSs5_CopyEjj
        BL       _ZNSs5_CopyEjj
        B.N      ??_Grow_2
??_Grow_1:
        MOVS     R0,R6
        UXTB     R0,R0            ;; ZeroExt  R0,R0,#+24,#+24
        CMP      R0,#+0
        BEQ.N    ??_Grow_3
        CMP      R4,#+16
        BCS.N    ??_Grow_3
        MOVS     R0,R5
          CFI FunCall _ZNSt13_String_allocISt18_String_base_typesIcSaIcEEE7_MysizeEv
        BL       _ZNSt13_String_allocISt18_String_base_typesIcSaIcEEE7_MysizeEv
        LDR      R0,[R0, #+0]
        CMP      R4,R0
        BCS.N    ??_Grow_4
        MOVS     R2,R4
        B.N      ??_Grow_5
??_Grow_4:
        MOVS     R0,R5
          CFI FunCall _ZNSt13_String_allocISt18_String_base_typesIcSaIcEEE7_MysizeEv
        BL       _ZNSt13_String_allocISt18_String_base_typesIcSaIcEEE7_MysizeEv
        LDR      R2,[R0, #+0]
??_Grow_5:
        MOVS     R1,#+1
        MOVS     R0,R5
          CFI FunCall _ZNSs5_TidyEbj
        BL       _ZNSs5_TidyEbj
        B.N      ??_Grow_2
??_Grow_3:
        CMP      R4,#+0
        BNE.N    ??_Grow_2
        MOVS     R1,#+0
        MOVS     R0,R5
          CFI FunCall _ZNSs4_EosEj
        BL       _ZNSs4_EosEj
??_Grow_2:
        CMP      R4,#+0
        BEQ.N    ??_Grow_6
        MOVS     R0,#+1
        B.N      ??_Grow_7
??_Grow_6:
        MOVS     R0,#+0
??_Grow_7:
        UXTB     R0,R0            ;; ZeroExt  R0,R0,#+24,#+24
        POP      {R4-R6,PC}       ;; return
          CFI EndBlock cfiBlock74

        SECTION `.text`:CODE:REORDER:NOROOT(1)
        SECTION_GROUP _ZNSs7_InsideEPKc
          CFI Block cfiBlock75 Using cfiCommon0
          CFI Function _ZNSs7_InsideEPKc
        THUMB
// __interwork __vfp bool std::string::_Inside(char const *)
_ZNSs7_InsideEPKc:
        PUSH     {R4-R6,LR}
          CFI R14 Frame(CFA, -4)
          CFI R6 Frame(CFA, -8)
          CFI R5 Frame(CFA, -12)
          CFI R4 Frame(CFA, -16)
          CFI CFA R13+16
        MOVS     R5,R0
        MOVS     R4,R1
        CMP      R4,#+0
        BEQ.N    ??_Inside_0
        MOVS     R0,R5
          CFI FunCall _ZNSt13_String_allocISt18_String_base_typesIcSaIcEEE6_MyptrEv
        BL       _ZNSt13_String_allocISt18_String_base_typesIcSaIcEEE6_MyptrEv
        CMP      R4,R0
        BCC.N    ??_Inside_0
        MOVS     R0,R5
          CFI FunCall _ZNSt13_String_allocISt18_String_base_typesIcSaIcEEE6_MyptrEv
        BL       _ZNSt13_String_allocISt18_String_base_typesIcSaIcEEE6_MyptrEv
        MOVS     R6,R0
        MOVS     R0,R5
          CFI FunCall _ZNSt13_String_allocISt18_String_base_typesIcSaIcEEE7_MysizeEv
        BL       _ZNSt13_String_allocISt18_String_base_typesIcSaIcEEE7_MysizeEv
        LDR      R0,[R0, #+0]
        ADD      R0,R6,R0
        CMP      R4,R0
        BCC.N    ??_Inside_1
??_Inside_0:
        MOVS     R0,#+0
        B.N      ??_Inside_2
??_Inside_1:
        MOVS     R0,#+1
??_Inside_2:
        POP      {R4-R6,PC}       ;; return
          CFI EndBlock cfiBlock75

        SECTION `.text`:CODE:REORDER:NOROOT(1)
        SECTION_GROUP _ZNSs5_TidyEbj
          CFI Block cfiBlock76 Using cfiCommon0
          CFI Function _ZNSs5_TidyEbj
        THUMB
// __interwork __vfp void std::string::_Tidy(bool, size_t)
_ZNSs5_TidyEbj:
        PUSH     {R4-R8,LR}
          CFI R14 Frame(CFA, -4)
          CFI R8 Frame(CFA, -8)
          CFI R7 Frame(CFA, -12)
          CFI R6 Frame(CFA, -16)
          CFI R5 Frame(CFA, -20)
          CFI R4 Frame(CFA, -24)
          CFI CFA R13+24
        MOVS     R5,R0
        MOVS     R6,R1
        MOVS     R4,R2
        MOVS     R0,R6
        UXTB     R0,R0            ;; ZeroExt  R0,R0,#+24,#+24
        CMP      R0,#+0
        BEQ.N    ??_Tidy_0
        MOVS     R0,R5
          CFI FunCall _ZNSt13_String_allocISt18_String_base_typesIcSaIcEEE6_MyresEv
        BL       _ZNSt13_String_allocISt18_String_base_typesIcSaIcEEE6_MyresEv
        LDR      R0,[R0, #+0]
        CMP      R0,#+16
        BCC.N    ??_Tidy_0
        MOVS     R0,R5
          CFI FunCall _ZNSt13_String_allocISt18_String_base_typesIcSaIcEEE3_BxEv
        BL       _ZNSt13_String_allocISt18_String_base_typesIcSaIcEEE3_BxEv
        LDR      R7,[R0, #+0]
        MOVS     R0,R5
          CFI FunCall _ZNSt13_String_allocISt18_String_base_typesIcSaIcEEE3_BxEv
        BL       _ZNSt13_String_allocISt18_String_base_typesIcSaIcEEE3_BxEv
        MOV      R8,R0
        MOVS     R0,R5
          CFI FunCall _ZNSt13_String_allocISt18_String_base_typesIcSaIcEEE6_GetalEv
        BL       _ZNSt13_String_allocISt18_String_base_typesIcSaIcEEE6_GetalEv
        MOV      R1,R8
          CFI FunCall _ZNSt11_Wrap_allocISaIcEE7destroyIPcEEvPT_
        BL       _ZNSt11_Wrap_allocISaIcEE7destroyIPcEEvPT_
        CMP      R4,#+0
        BEQ.N    ??_Tidy_1
        MOVS     R0,R7
          CFI FunCall _ZSt9addressofIcEPT_RS0_
        BL       _ZSt9addressofIcEPT_RS0_
        MOV      R8,R0
        MOVS     R0,R5
          CFI FunCall _ZNSt13_String_allocISt18_String_base_typesIcSaIcEEE3_BxEv
        BL       _ZNSt13_String_allocISt18_String_base_typesIcSaIcEEE3_BxEv
        MOVS     R2,R4
        MOV      R1,R8
          CFI FunCall _ZNSt11char_traitsIcE4copyEPcPKcj
        BL       _ZNSt11char_traitsIcE4copyEPcPKcj
??_Tidy_1:
        MOVS     R0,R5
          CFI FunCall _ZNSt13_String_allocISt18_String_base_typesIcSaIcEEE6_MyresEv
        BL       _ZNSt13_String_allocISt18_String_base_typesIcSaIcEEE6_MyresEv
        MOV      R8,R0
        MOVS     R0,R5
          CFI FunCall _ZNSt13_String_allocISt18_String_base_typesIcSaIcEEE6_GetalEv
        BL       _ZNSt13_String_allocISt18_String_base_typesIcSaIcEEE6_GetalEv
        LDR      R2,[R8, #+0]
        ADDS     R2,R2,#+1
        MOVS     R1,R7
          CFI FunCall _ZNSt11_Wrap_allocISaIcEE10deallocateEPcj
        BL       _ZNSt11_Wrap_allocISaIcEE10deallocateEPcj
??_Tidy_0:
        MOVS     R0,R5
          CFI FunCall _ZNSt13_String_allocISt18_String_base_typesIcSaIcEEE6_MyresEv
        BL       _ZNSt13_String_allocISt18_String_base_typesIcSaIcEEE6_MyresEv
        MOVS     R1,#+15
        STR      R1,[R0, #+0]
        MOVS     R1,R4
        MOVS     R0,R5
          CFI FunCall _ZNSs4_EosEj
        BL       _ZNSs4_EosEj
        POP      {R4-R8,PC}       ;; return
          CFI EndBlock cfiBlock76

        SECTION `.text`:CODE:REORDER:NOROOT(1)
        SECTION_GROUP _ZNKSt5arrayIcLj1024EE4sizeEv
          CFI Block cfiBlock77 Using cfiCommon0
          CFI Function _ZNKSt5arrayIcLj1024EE4sizeEv
          CFI NoCalls
        THUMB
// __interwork __vfp size_t std::array<char, 1024U>::size() const
_ZNKSt5arrayIcLj1024EE4sizeEv:
        MOVS     R1,R0
        MOV      R0,#+1024
        BX       LR               ;; return
          CFI EndBlock cfiBlock77

        SECTION `.text`:CODE:REORDER:NOROOT(1)
        SECTION_GROUP _ZNKSt5arrayIcLj200EE4sizeEv
          CFI Block cfiBlock78 Using cfiCommon0
          CFI Function _ZNKSt5arrayIcLj200EE4sizeEv
          CFI NoCalls
        THUMB
// __interwork __vfp size_t std::array<char, 200U>::size() const
_ZNKSt5arrayIcLj200EE4sizeEv:
        MOVS     R1,R0
        MOVS     R0,#+200
        BX       LR               ;; return
          CFI EndBlock cfiBlock78

        SECTION `.text`:CODE:REORDER:NOROOT(1)
        SECTION_GROUP _ZNKSt5arrayIcLj20000EE4sizeEv
          CFI Block cfiBlock79 Using cfiCommon0
          CFI Function _ZNKSt5arrayIcLj20000EE4sizeEv
          CFI NoCalls
        THUMB
// __interwork __vfp size_t std::array<char, 20000U>::size() const
_ZNKSt5arrayIcLj20000EE4sizeEv:
        MOVS     R1,R0
        MOVW     R0,#+20000
        BX       LR               ;; return
          CFI EndBlock cfiBlock79

        SECTION `.text`:CODE:REORDER:NOROOT(1)
        SECTION_GROUP _ZNSt5arrayIcLj200EEixEj
          CFI Block cfiBlock80 Using cfiCommon0
          CFI Function _ZNSt5arrayIcLj200EEixEj
          CFI NoCalls
        THUMB
// __interwork __vfp char & std::array<char, 200U>::operator[](size_t)
_ZNSt5arrayIcLj200EEixEj:
        ADD      R0,R0,R1
        BX       LR               ;; return
          CFI EndBlock cfiBlock80

        SECTION `.text`:CODE:REORDER:NOROOT(1)
        SECTION_GROUP _ZNSt5arrayIcLj20000EEixEj
          CFI Block cfiBlock81 Using cfiCommon0
          CFI Function _ZNSt5arrayIcLj20000EEixEj
          CFI NoCalls
        THUMB
// __interwork __vfp char & std::array<char, 20000U>::operator[](size_t)
_ZNSt5arrayIcLj20000EEixEj:
        ADD      R0,R0,R1
        BX       LR               ;; return
          CFI EndBlock cfiBlock81

        SECTION `.text`:CODE:REORDER:NOROOT(1)
        SECTION_GROUP _ZNSt5arrayIhLj15000EEixEj
          CFI Block cfiBlock82 Using cfiCommon0
          CFI Function _ZNSt5arrayIhLj15000EEixEj
          CFI NoCalls
        THUMB
// __interwork __vfp uint8_t & std::array<uint8_t, 15000U>::operator[](size_t)
_ZNSt5arrayIhLj15000EEixEj:
        ADD      R0,R0,R1
        BX       LR               ;; return
          CFI EndBlock cfiBlock82

        SECTION `.text`:CODE:REORDER:NOROOT(1)
        SECTION_GROUP _ZNSt5arrayIcLj1024EE4dataEv
          CFI Block cfiBlock83 Using cfiCommon0
          CFI Function _ZNSt5arrayIcLj1024EE4dataEv
          CFI NoCalls
        THUMB
// __interwork __vfp char *std::array<char, 1024U>::data()
_ZNSt5arrayIcLj1024EE4dataEv:
        BX       LR               ;; return
          CFI EndBlock cfiBlock83

        SECTION `.text`:CODE:REORDER:NOROOT(1)
        SECTION_GROUP _ZNSt5arrayIcLj200EE4dataEv
          CFI Block cfiBlock84 Using cfiCommon0
          CFI Function _ZNSt5arrayIcLj200EE4dataEv
          CFI NoCalls
        THUMB
// __interwork __vfp char *std::array<char, 200U>::data()
_ZNSt5arrayIcLj200EE4dataEv:
        BX       LR               ;; return
          CFI EndBlock cfiBlock84

        SECTION `.text`:CODE:REORDER:NOROOT(1)
        SECTION_GROUP _ZNSt5arrayIcLj20000EE4dataEv
          CFI Block cfiBlock85 Using cfiCommon0
          CFI Function _ZNSt5arrayIcLj20000EE4dataEv
          CFI NoCalls
        THUMB
// __interwork __vfp char *std::array<char, 20000U>::data()
_ZNSt5arrayIcLj20000EE4dataEv:
        BX       LR               ;; return
          CFI EndBlock cfiBlock85

        SECTION `.text`:CODE:REORDER:NOROOT(1)
        SECTION_GROUP _ZNSt5arrayIjLj400EE4dataEv
          CFI Block cfiBlock86 Using cfiCommon0
          CFI Function _ZNSt5arrayIjLj400EE4dataEv
          CFI NoCalls
        THUMB
// __interwork __vfp uint32_t *std::array<uint32_t, 400U>::data()
_ZNSt5arrayIjLj400EE4dataEv:
        BX       LR               ;; return
          CFI EndBlock cfiBlock86

        SECTION `.text`:CODE:REORDER:NOROOT(1)
        SECTION_GROUP _ZNSt5arrayIjLj128EE4dataEv
          CFI Block cfiBlock87 Using cfiCommon0
          CFI Function _ZNSt5arrayIjLj128EE4dataEv
          CFI NoCalls
        THUMB
// __interwork __vfp uint32_t *std::array<uint32_t, 128U>::data()
_ZNSt5arrayIjLj128EE4dataEv:
        BX       LR               ;; return
          CFI EndBlock cfiBlock87

        SECTION `.text`:CODE:REORDER:NOROOT(1)
        SECTION_GROUP _ZNSt5arrayIhLj15000EE4dataEv
          CFI Block cfiBlock88 Using cfiCommon0
          CFI Function _ZNSt5arrayIhLj15000EE4dataEv
          CFI NoCalls
        THUMB
// __interwork __vfp uint8_t *std::array<uint8_t, 15000U>::data()
_ZNSt5arrayIhLj15000EE4dataEv:
        BX       LR               ;; return
          CFI EndBlock cfiBlock88

        SECTION `.text`:CODE:REORDER:NOROOT(1)
        SECTION_GROUP _ZNSt6chrono13duration_castINS_8durationIjSt5ratioILx10ELx1000EEEExS2_ILx1ELx1000EEEENSt9enable_ifIXsr3std6chrono12_Is_durationIT_EE5valueES7_E4typeERKNS1_IT0_T1_EE
          CFI Block cfiBlock89 Using cfiCommon0
          CFI Function _ZNSt6chrono13duration_castINS_8durationIjSt5ratioILx10ELx1000EEEExS2_ILx1ELx1000EEEENSt9enable_ifIXsr3std6chrono12_Is_durationIT_EE5valueES7_E4typeERKNS1_IT0_T1_EE
        THUMB
// __interwork __vfp OsWrapper::TicksPerSecond std::chrono::duration_cast<OsWrapper::TicksPerSecond, __int64_t, std::milli>(std::chrono::duration<__int64_t, std::milli> const &)
_ZNSt6chrono13duration_castINS_8durationIjSt5ratioILx10ELx1000EEEExS2_ILx1ELx1000EEEENSt9enable_ifIXsr3std6chrono12_Is_durationIT_EE5valueES7_E4typeERKNS1_IT0_T1_EE:
        PUSH     {R2-R4,LR}
          CFI R14 Frame(CFA, -4)
          CFI R4 Frame(CFA, -8)
          CFI CFA R13+16
        MOVS     R4,R0
        MOVS     R0,R4
          CFI FunCall _ZNKSt6chrono8durationIxSt5ratioILx1ELx1000EEE5countEv
        BL       _ZNKSt6chrono8durationIxSt5ratioILx1ELx1000EEE5countEv
        MOVS     R2,#+10
        MOVS     R3,#+0
          CFI FunCall __aeabi_ldivmod
        BL       __aeabi_ldivmod
        STR      R0,[SP, #+4]
        ADD      R1,SP,#+4
        MOV      R0,SP
          CFI FunCall _ZNSt6chrono8durationIjSt5ratioILx10ELx1000EEEC1IjvEERKT_
        BL       _ZNSt6chrono8durationIjSt5ratioILx10ELx1000EEEC1IjvEERKT_
        LDR      R0,[SP, #+0]
        POP      {R1,R2,R4,PC}    ;; return
          CFI EndBlock cfiBlock89

        SECTION `.text`:CODE:REORDER:NOROOT(1)
        SECTION_GROUP _ZNSt6chrono8durationIjSt5ratioILx10ELx1000EEEC1IjvEERKT_
          CFI Block cfiBlock90 Using cfiCommon0
          CFI Function _ZNSt6chrono8durationIjSt5ratioILx10ELx1000EEEC1IjvEERKT_
          CFI NoCalls
        THUMB
// __code __interwork __vfp std::chrono::duration<uint32_t, std::ratio<10LL, 1000LL>>::duration<uint32_t, void>(uint32_t const &)
_ZNSt6chrono8durationIjSt5ratioILx10ELx1000EEEC1IjvEERKT_:
        LDR      R2,[R1, #+0]
        STR      R2,[R0, #+0]
        BX       LR               ;; return
          CFI EndBlock cfiBlock90

        SECTION `.text`:CODE:REORDER:NOROOT(1)
        SECTION_GROUP _ZNKSt6chrono8durationIxSt5ratioILx1ELx1000EEE5countEv
          CFI Block cfiBlock91 Using cfiCommon0
          CFI Function _ZNKSt6chrono8durationIxSt5ratioILx1ELx1000EEE5countEv
          CFI NoCalls
        THUMB
// __interwork __vfp __int64_t std::chrono::duration<__int64_t, std::milli>::count() const
_ZNKSt6chrono8durationIxSt5ratioILx1ELx1000EEE5countEv:
        LDRD     R0,R1,[R0, #+0]
        BX       LR               ;; return
          CFI EndBlock cfiBlock91

        SECTION `.text`:CODE:REORDER:NOROOT(1)
        SECTION_GROUP _ZNKSt6chrono8durationIjSt5ratioILx10ELx1000EEE5countEv
          CFI Block cfiBlock92 Using cfiCommon0
          CFI Function _ZNKSt6chrono8durationIjSt5ratioILx10ELx1000EEE5countEv
          CFI NoCalls
        THUMB
// __interwork __vfp uint32_t std::chrono::duration<uint32_t, std::ratio<10LL, 1000LL>>::count() const
_ZNKSt6chrono8durationIjSt5ratioILx10ELx1000EEE5countEv:
        LDR      R0,[R0, #+0]
        BX       LR               ;; return
          CFI EndBlock cfiBlock92

        SECTION `.text`:CODE:REORDER:NOROOT(2)
        SECTION_GROUP _ZN9OsWrapper11RtosWrapper13wCreateThreadINS_4RtosE17DisplayUpdateTaskEEvRT0_PKcNS_14ThreadPriorityEtPj
          CFI Block cfiBlock93 Using cfiCommon0
          CFI Function _ZN9OsWrapper11RtosWrapper13wCreateThreadINS_4RtosE17DisplayUpdateTaskEEvRT0_PKcNS_14ThreadPriorityEtPj
        THUMB
// __interwork __vfp void OsWrapper::RtosWrapper::wCreateThread<OsWrapper::Rtos, DisplayUpdateTask>(DisplayUpdateTask &, char const *, OsWrapper::ThreadPriority, uint16_t, uint32_t *)
_ZN9OsWrapper11RtosWrapper13wCreateThreadINS_4RtosE17DisplayUpdateTaskEEvRT0_PKcNS_14ThreadPriorityEtPj:
        PUSH     {R0-R8,LR}
          CFI R14 Frame(CFA, -4)
          CFI R8 Frame(CFA, -8)
          CFI R7 Frame(CFA, -12)
          CFI R6 Frame(CFA, -16)
          CFI R5 Frame(CFA, -20)
          CFI R4 Frame(CFA, -24)
          CFI CFA R13+40
        MOVS     R5,R0
        MOVS     R6,R1
        MOVS     R7,R2
        MOV      R8,R3
        LDR      R4,[SP, #+40]
        CMP      R4,#+0
        BEQ.N    ??wCreateThread_4
        ADDS     R0,R5,#+4
        STR      R0,[SP, #+8]
        STR      R4,[SP, #+4]
        MOVS     R0,R7
        UXTB     R0,R0            ;; ZeroExt  R0,R0,#+24,#+24
        STR      R0,[SP, #+0]
        MOVS     R3,R5
        MOV      R2,R8
        UXTH     R2,R2            ;; ZeroExt  R2,R2,#+16,#+16
        MOVS     R1,R6
        LDR.N    R0,??wCreateThread_0
          CFI FunCall xTaskCreateStatic
        BL       xTaskCreateStatic
        STR      R0,[R5, #+84]
??wCreateThread_4:
        POP      {R0-R8,PC}       ;; return
        Nop      
        DATA
??wCreateThread_0:
        DATA32
        DC32     _ZN9OsWrapper4Rtos3RunEPv
          CFI EndBlock cfiBlock93

        SECTION `.text`:CODE:REORDER:NOROOT(2)
        SECTION_GROUP _ZN9OsWrapper11RtosWrapper13wCreateThreadINS_4RtosE13BluetoothTaskEEvRT0_PKcNS_14ThreadPriorityEtPj
          CFI Block cfiBlock94 Using cfiCommon0
          CFI Function _ZN9OsWrapper11RtosWrapper13wCreateThreadINS_4RtosE13BluetoothTaskEEvRT0_PKcNS_14ThreadPriorityEtPj
        THUMB
// __interwork __vfp void OsWrapper::RtosWrapper::wCreateThread<OsWrapper::Rtos, BluetoothTask>(BluetoothTask &, char const *, OsWrapper::ThreadPriority, uint16_t, uint32_t *)
_ZN9OsWrapper11RtosWrapper13wCreateThreadINS_4RtosE13BluetoothTaskEEvRT0_PKcNS_14ThreadPriorityEtPj:
        PUSH     {R0-R8,LR}
          CFI R14 Frame(CFA, -4)
          CFI R8 Frame(CFA, -8)
          CFI R7 Frame(CFA, -12)
          CFI R6 Frame(CFA, -16)
          CFI R5 Frame(CFA, -20)
          CFI R4 Frame(CFA, -24)
          CFI CFA R13+40
        MOVS     R5,R0
        MOVS     R6,R1
        MOVS     R7,R2
        MOV      R8,R3
        LDR      R4,[SP, #+40]
        CMP      R4,#+0
        BEQ.N    ??wCreateThread_5
        ADDS     R0,R5,#+4
        STR      R0,[SP, #+8]
        STR      R4,[SP, #+4]
        MOVS     R0,R7
        UXTB     R0,R0            ;; ZeroExt  R0,R0,#+24,#+24
        STR      R0,[SP, #+0]
        MOVS     R3,R5
        MOV      R2,R8
        UXTH     R2,R2            ;; ZeroExt  R2,R2,#+16,#+16
        MOVS     R1,R6
        LDR.N    R0,??wCreateThread_1
          CFI FunCall xTaskCreateStatic
        BL       xTaskCreateStatic
        STR      R0,[R5, #+84]
??wCreateThread_5:
        POP      {R0-R8,PC}       ;; return
        Nop      
        DATA
??wCreateThread_1:
        DATA32
        DC32     _ZN9OsWrapper4Rtos3RunEPv
          CFI EndBlock cfiBlock94

        SECTION `.text`:CODE:REORDER:NOROOT(2)
        SECTION_GROUP _ZN9OsWrapper11RtosWrapper13wCreateThreadINS_4RtosE15ButtonEventTaskI6ButtonI3PinI4PortI5GPIOCELh13EEEL_Z5eventEEEEvRT0_PKcNS_14ThreadPriorityEtPj
          CFI Block cfiBlock95 Using cfiCommon0
          CFI Function _ZN9OsWrapper11RtosWrapper13wCreateThreadINS_4RtosE15ButtonEventTaskI6ButtonI3PinI4PortI5GPIOCELh13EEEL_Z5eventEEEEvRT0_PKcNS_14ThreadPriorityEtPj
        THUMB
// __interwork __vfp void OsWrapper::RtosWrapper::wCreateThread<OsWrapper::Rtos, ButtonEventTask<UserButton, event>>(ButtonEventTask<UserButton, event> &, char const *, OsWrapper::ThreadPriority, uint16_t, uint32_t *)
_ZN9OsWrapper11RtosWrapper13wCreateThreadINS_4RtosE15ButtonEventTaskI6ButtonI3PinI4PortI5GPIOCELh13EEEL_Z5eventEEEEvRT0_PKcNS_14ThreadPriorityEtPj:
        PUSH     {R0-R8,LR}
          CFI R14 Frame(CFA, -4)
          CFI R8 Frame(CFA, -8)
          CFI R7 Frame(CFA, -12)
          CFI R6 Frame(CFA, -16)
          CFI R5 Frame(CFA, -20)
          CFI R4 Frame(CFA, -24)
          CFI CFA R13+40
        MOVS     R5,R0
        MOVS     R6,R1
        MOVS     R7,R2
        MOV      R8,R3
        LDR      R4,[SP, #+40]
        CMP      R4,#+0
        BEQ.N    ??wCreateThread_6
        ADDS     R0,R5,#+4
        STR      R0,[SP, #+8]
        STR      R4,[SP, #+4]
        MOVS     R0,R7
        UXTB     R0,R0            ;; ZeroExt  R0,R0,#+24,#+24
        STR      R0,[SP, #+0]
        MOVS     R3,R5
        MOV      R2,R8
        UXTH     R2,R2            ;; ZeroExt  R2,R2,#+16,#+16
        MOVS     R1,R6
        LDR.N    R0,??wCreateThread_2
          CFI FunCall xTaskCreateStatic
        BL       xTaskCreateStatic
        STR      R0,[R5, #+84]
??wCreateThread_6:
        POP      {R0-R8,PC}       ;; return
        Nop      
        DATA
??wCreateThread_2:
        DATA32
        DC32     _ZN9OsWrapper4Rtos3RunEPv
          CFI EndBlock cfiBlock95

        SECTION `.text`:CODE:REORDER:NOROOT(2)
        SECTION_GROUP _ZN9OsWrapper11RtosWrapper13wCreateThreadINS_4RtosE15MeasurementTaskIL_Z5eventEEEEvRT0_PKcNS_14ThreadPriorityEtPj
          CFI Block cfiBlock96 Using cfiCommon0
          CFI Function _ZN9OsWrapper11RtosWrapper13wCreateThreadINS_4RtosE15MeasurementTaskIL_Z5eventEEEEvRT0_PKcNS_14ThreadPriorityEtPj
        THUMB
// __interwork __vfp void OsWrapper::RtosWrapper::wCreateThread<OsWrapper::Rtos, MeasurementTask<event>>(MeasurementTask<event> &, char const *, OsWrapper::ThreadPriority, uint16_t, uint32_t *)
_ZN9OsWrapper11RtosWrapper13wCreateThreadINS_4RtosE15MeasurementTaskIL_Z5eventEEEEvRT0_PKcNS_14ThreadPriorityEtPj:
        PUSH     {R0-R8,LR}
          CFI R14 Frame(CFA, -4)
          CFI R8 Frame(CFA, -8)
          CFI R7 Frame(CFA, -12)
          CFI R6 Frame(CFA, -16)
          CFI R5 Frame(CFA, -20)
          CFI R4 Frame(CFA, -24)
          CFI CFA R13+40
        MOVS     R5,R0
        MOVS     R6,R1
        MOVS     R7,R2
        MOV      R8,R3
        LDR      R4,[SP, #+40]
        CMP      R4,#+0
        BEQ.N    ??wCreateThread_7
        ADDS     R0,R5,#+4
        STR      R0,[SP, #+8]
        STR      R4,[SP, #+4]
        MOVS     R0,R7
        UXTB     R0,R0            ;; ZeroExt  R0,R0,#+24,#+24
        STR      R0,[SP, #+0]
        MOVS     R3,R5
        MOV      R2,R8
        UXTH     R2,R2            ;; ZeroExt  R2,R2,#+16,#+16
        MOVS     R1,R6
        LDR.N    R0,??wCreateThread_3
          CFI FunCall xTaskCreateStatic
        BL       xTaskCreateStatic
        STR      R0,[R5, #+84]
??wCreateThread_7:
        POP      {R0-R8,PC}       ;; return
        Nop      
        DATA
??wCreateThread_3:
        DATA32
        DC32     _ZN9OsWrapper4Rtos3RunEPv
          CFI EndBlock cfiBlock96

        SECTION `.text`:CODE:REORDER:NOROOT(1)
        SECTION_GROUP _ZN9OsWrapper11RtosWrapper6wStartEv
          CFI Block cfiBlock97 Using cfiCommon0
          CFI Function _ZN9OsWrapper11RtosWrapper6wStartEv
        THUMB
// __interwork __vfp void OsWrapper::RtosWrapper::wStart()
_ZN9OsWrapper11RtosWrapper6wStartEv:
        PUSH     {R7,LR}
          CFI R14 Frame(CFA, -4)
          CFI CFA R13+8
          CFI FunCall vTaskStartScheduler
        BL       vTaskStartScheduler
        POP      {R0,PC}          ;; return
          CFI EndBlock cfiBlock97

        SECTION `.text`:CODE:REORDER:NOROOT(1)
        SECTION_GROUP _ZN9OsWrapper11RtosWrapper6wSleepEj
          CFI Block cfiBlock98 Using cfiCommon0
          CFI Function _ZN9OsWrapper11RtosWrapper6wSleepEj
        THUMB
// __interwork __vfp void OsWrapper::RtosWrapper::wSleep(uint32_t)
_ZN9OsWrapper11RtosWrapper6wSleepEj:
        PUSH     {R4,LR}
          CFI R14 Frame(CFA, -4)
          CFI R4 Frame(CFA, -8)
          CFI CFA R13+8
        MOVS     R4,R0
        MOVS     R0,R4
          CFI FunCall vTaskDelay
        BL       vTaskDelay
        POP      {R4,PC}          ;; return
          CFI EndBlock cfiBlock98

        SECTION `.text`:CODE:REORDER:NOROOT(1)
        SECTION_GROUP _ZN9OsWrapper11RtosWrapper12wCreateEventER19xSTATIC_EVENT_GROUP
          CFI Block cfiBlock99 Using cfiCommon0
          CFI Function _ZN9OsWrapper11RtosWrapper12wCreateEventER19xSTATIC_EVENT_GROUP
        THUMB
// __interwork __vfp void * OsWrapper::RtosWrapper::wCreateEvent(OsWrapper::tEvent &)
_ZN9OsWrapper11RtosWrapper12wCreateEventER19xSTATIC_EVENT_GROUP:
        PUSH     {R4,LR}
          CFI R14 Frame(CFA, -4)
          CFI R4 Frame(CFA, -8)
          CFI CFA R13+8
        MOVS     R4,R0
        MOVS     R0,R4
          CFI FunCall xEventGroupCreateStatic
        BL       xEventGroupCreateStatic
        POP      {R4,PC}          ;; return
          CFI EndBlock cfiBlock99

        SECTION `.text`:CODE:REORDER:NOROOT(1)
        SECTION_GROUP _ZN9OsWrapper11RtosWrapper12wDeleteEventERPv
          CFI Block cfiBlock100 Using cfiCommon0
          CFI Function _ZN9OsWrapper11RtosWrapper12wDeleteEventERPv
        THUMB
// __interwork __vfp void OsWrapper::RtosWrapper::wDeleteEvent(void * &)
_ZN9OsWrapper11RtosWrapper12wDeleteEventERPv:
        PUSH     {R4,LR}
          CFI R14 Frame(CFA, -4)
          CFI R4 Frame(CFA, -8)
          CFI CFA R13+8
        MOVS     R4,R0
        LDR      R0,[R4, #+0]
          CFI FunCall vEventGroupDelete
        BL       vEventGroupDelete
        POP      {R4,PC}          ;; return
          CFI EndBlock cfiBlock100

        SECTION `.text`:CODE:REORDER:NOROOT(2)
        SECTION_GROUP _ZN9OsWrapper11RtosWrapper12wSignalEventERKPvj
          CFI Block cfiBlock101 Using cfiCommon0
          CFI Function _ZN9OsWrapper11RtosWrapper12wSignalEventERKPvj
        THUMB
// __interwork __vfp void OsWrapper::RtosWrapper::wSignalEvent(void * const &, uint32_t)
_ZN9OsWrapper11RtosWrapper12wSignalEventERKPvj:
        PUSH     {R3-R5,LR}
          CFI R14 Frame(CFA, -4)
          CFI R5 Frame(CFA, -8)
          CFI R4 Frame(CFA, -12)
          CFI CFA R13+16
        MOVS     R4,R0
        MOVS     R5,R1
        MOVS     R0,#+0
        STR      R0,[SP, #+0]
        MOV      R3,SP
        MOVS     R2,R5
        LDR      R1,[R4, #+0]
        LDR.N    R0,??wSignalEvent_0
          CFI FunCall xTimerPendFunctionCallFromISR
        BL       xTimerPendFunctionCallFromISR
        CMP      R0,#+0
        BEQ.N    ??wSignalEvent_1
        LDR      R0,[SP, #+0]
        CMP      R0,#+0
        BEQ.N    ??wSignalEvent_1
        MOVS     R0,#+268435456
        LDR.N    R1,??wSignalEvent_0+0x4  ;; 0xe000ed04
        STR      R0,[R1, #+0]
        DSB      SY
        ISB      SY
??wSignalEvent_1:
        POP      {R0,R4,R5,PC}    ;; return
        Nop      
        DATA
??wSignalEvent_0:
        DATA32
        DC32     vEventGroupSetBitsCallback
        DC32     0xe000ed04
          CFI EndBlock cfiBlock101

        SECTION `.text`:CODE:REORDER:NOROOT(1)
        SECTION_GROUP _ZN9OsWrapper11RtosWrapper10wWaitEventERKPvjjNS_9EventModeE
          CFI Block cfiBlock102 Using cfiCommon0
          CFI Function _ZN9OsWrapper11RtosWrapper10wWaitEventERKPvjjNS_9EventModeE
        THUMB
// __interwork __vfp uint32_t OsWrapper::RtosWrapper::wWaitEvent(void * const &, uint32_t, uint32_t, OsWrapper::EventMode)
_ZN9OsWrapper11RtosWrapper10wWaitEventERKPvjjNS_9EventModeE:
        PUSH     {R2-R8,LR}
          CFI R14 Frame(CFA, -4)
          CFI R8 Frame(CFA, -8)
          CFI R7 Frame(CFA, -12)
          CFI R6 Frame(CFA, -16)
          CFI R5 Frame(CFA, -20)
          CFI R4 Frame(CFA, -24)
          CFI CFA R13+32
        MOVS     R5,R0
        MOVS     R6,R1
        MOVS     R7,R2
        MOVS     R4,R3
        MOVS     R8,#+0
        CMP      R4,#+0
        BNE.N    ??wWaitEvent_0
        MOVS     R0,#+0
        MOV      R8,R0
??wWaitEvent_0:
        STR      R7,[SP, #+0]
        MOV      R3,R8
        MOVS     R2,#+1
        MOVS     R1,R6
        LDR      R0,[R5, #+0]
          CFI FunCall xEventGroupWaitBits
        BL       xEventGroupWaitBits
        POP      {R1,R2,R4-R8,PC}  ;; return
          CFI EndBlock cfiBlock102

        SECTION `.text`:CODE:REORDER:NOROOT(1)
        SECTION_GROUP _ZN9OsWrapper11RtosWrapper9wGetTicksEv
          CFI Block cfiBlock103 Using cfiCommon0
          CFI Function _ZN9OsWrapper11RtosWrapper9wGetTicksEv
        THUMB
// __interwork __vfp uint32_t OsWrapper::RtosWrapper::wGetTicks()
_ZN9OsWrapper11RtosWrapper9wGetTicksEv:
        PUSH     {R7,LR}
          CFI R14 Frame(CFA, -4)
          CFI CFA R13+8
          CFI FunCall xTaskGetTickCount
        BL       xTaskGetTickCount
        POP      {R1,PC}          ;; return
          CFI EndBlock cfiBlock103

        SECTION `.text`:CODE:REORDER:NOROOT(1)
        SECTION_GROUP _ZN9OsWrapper7IThreadC2Ev
          CFI Block cfiBlock104 Using cfiCommon0
          CFI Function _ZN9OsWrapper7IThreadC2Ev
        THUMB
// __code __interwork __vfp OsWrapper::IThread::subobject IThread()
_ZN9OsWrapper7IThreadC2Ev:
        PUSH     {R4,LR}
          CFI R14 Frame(CFA, -4)
          CFI R4 Frame(CFA, -8)
          CFI CFA R13+8
        MOVS     R4,R0
        MOVS     R0,R4
          CFI FunCall _ZN9OsWrapper7IThreadC1Ev
        BL       _ZN9OsWrapper7IThreadC1Ev
        POP      {R4,PC}          ;; return
          CFI EndBlock cfiBlock104

        SECTION `.text`:CODE:REORDER:NOROOT(1)
        SECTION_GROUP _ZN9OsWrapper7IThreadC1Ev
          CFI Block cfiBlock105 Using cfiCommon0
          CFI Function _ZN9OsWrapper7IThreadC1Ev
          CFI NoCalls
        THUMB
// __code __interwork __vfp OsWrapper::IThread::IThread()
_ZN9OsWrapper7IThreadC1Ev:
        MOVS     R1,#+0
        STR      R1,[R0, #+84]
        MOVS     R1,#+0
        STR      R1,[R0, #+88]
        BX       LR               ;; return
          CFI EndBlock cfiBlock105

        SECTION `.text`:CODE:REORDER:NOROOT(1)
        SECTION_GROUP _ZN9OsWrapper7IThread5SleepENSt6chrono8durationIxSt5ratioILx1ELx1000EEEE
          CFI Block cfiBlock106 Using cfiCommon0
          CFI Function _ZN9OsWrapper7IThread5SleepENSt6chrono8durationIxSt5ratioILx1ELx1000EEEE
        THUMB
// __interwork __vfp void OsWrapper::IThread::Sleep(std::chrono::milliseconds)
_ZN9OsWrapper7IThread5SleepENSt6chrono8durationIxSt5ratioILx1ELx1000EEEE:
        PUSH     {R0,R1,R7,LR}
          CFI R14 Frame(CFA, -4)
          CFI CFA R13+16
        SUB      SP,SP,#+8
          CFI CFA R13+24
        ADD      R0,SP,#+8
          CFI FunCall _ZNSt6chrono13duration_castINS_8durationIjSt5ratioILx10ELx1000EEEExS2_ILx1ELx1000EEEENSt9enable_ifIXsr3std6chrono12_Is_durationIT_EE5valueES7_E4typeERKNS1_IT0_T1_EE
        BL       _ZNSt6chrono13duration_castINS_8durationIjSt5ratioILx10ELx1000EEEExS2_ILx1ELx1000EEEENSt9enable_ifIXsr3std6chrono12_Is_durationIT_EE5valueES7_E4typeERKNS1_IT0_T1_EE
        STR      R0,[SP, #+0]
        MOV      R0,SP
          CFI FunCall _ZNKSt6chrono8durationIjSt5ratioILx10ELx1000EEE5countEv
        BL       _ZNKSt6chrono8durationIjSt5ratioILx10ELx1000EEE5countEv
          CFI FunCall _ZN9OsWrapper11RtosWrapper6wSleepEj
        BL       _ZN9OsWrapper11RtosWrapper6wSleepEj
        ADD      SP,SP,#+20
          CFI CFA R13+4
        POP      {PC}             ;; return
          CFI EndBlock cfiBlock106

        SECTION `.text`:CODE:REORDER:NOROOT(1)
        SECTION_GROUP _ZN9OsWrapper7IThread3RunEv
          CFI Block cfiBlock107 Using cfiCommon0
          CFI Function _ZN9OsWrapper7IThread3RunEv
        THUMB
// __interwork __vfp void OsWrapper::IThread::Run()
_ZN9OsWrapper7IThread3RunEv:
        PUSH     {R4,LR}
          CFI R14 Frame(CFA, -4)
          CFI R4 Frame(CFA, -8)
          CFI CFA R13+8
        MOVS     R4,R0
          CFI FunCall _ZN9OsWrapper11RtosWrapper9wGetTicksEv
        BL       _ZN9OsWrapper11RtosWrapper9wGetTicksEv
        STR      R0,[R4, #+88]
        MOVS     R0,R4
        LDR      R1,[R4, #+0]
        LDR      R1,[R1, #+0]
          CFI FunCall
        BLX      R1
        POP      {R4,PC}          ;; return
          CFI EndBlock cfiBlock107

        SECTION `.text`:CODE:REORDER:NOROOT(1)
        SECTION_GROUP _ZN9OsWrapper6ThreadILj400EEC2Ev
          CFI Block cfiBlock108 Using cfiCommon0
          CFI Function _ZN9OsWrapper6ThreadILj400EEC2Ev
        THUMB
// __code __interwork __vfp OsWrapper::Thread<400U>::subobject Thread()
_ZN9OsWrapper6ThreadILj400EEC2Ev:
        PUSH     {R4,LR}
          CFI R14 Frame(CFA, -4)
          CFI R4 Frame(CFA, -8)
          CFI CFA R13+8
        MOVS     R4,R0
        MOVS     R0,R4
          CFI FunCall _ZN9OsWrapper6ThreadILj400EEC1Ev
        BL       _ZN9OsWrapper6ThreadILj400EEC1Ev
        POP      {R4,PC}          ;; return
          CFI EndBlock cfiBlock108

        SECTION `.text`:CODE:REORDER:NOROOT(1)
        SECTION_GROUP _ZN9OsWrapper6ThreadILj128EEC2Ev
          CFI Block cfiBlock109 Using cfiCommon0
          CFI Function _ZN9OsWrapper6ThreadILj128EEC2Ev
        THUMB
// __code __interwork __vfp OsWrapper::Thread<128U>::subobject Thread()
_ZN9OsWrapper6ThreadILj128EEC2Ev:
        PUSH     {R4,LR}
          CFI R14 Frame(CFA, -4)
          CFI R4 Frame(CFA, -8)
          CFI CFA R13+8
        MOVS     R4,R0
        MOVS     R0,R4
          CFI FunCall _ZN9OsWrapper6ThreadILj128EEC1Ev
        BL       _ZN9OsWrapper6ThreadILj128EEC1Ev
        POP      {R4,PC}          ;; return
          CFI EndBlock cfiBlock109

        SECTION `.text`:CODE:REORDER:NOROOT(1)
        SECTION_GROUP _ZN9OsWrapper6ThreadILj400EEC1Ev
          CFI Block cfiBlock110 Using cfiCommon0
          CFI Function _ZN9OsWrapper6ThreadILj400EEC1Ev
        THUMB
// __code __interwork __vfp OsWrapper::Thread<400U>::Thread()
_ZN9OsWrapper6ThreadILj400EEC1Ev:
        PUSH     {R4,LR}
          CFI R14 Frame(CFA, -4)
          CFI R4 Frame(CFA, -8)
          CFI CFA R13+8
        MOVS     R4,R0
        MOVS     R0,R4
          CFI FunCall _ZN9OsWrapper7IThreadC2Ev
        BL       _ZN9OsWrapper7IThreadC2Ev
        MOVS     R0,R4
        POP      {R4,PC}          ;; return
          CFI EndBlock cfiBlock110

        SECTION `.text`:CODE:REORDER:NOROOT(1)
        SECTION_GROUP _ZN9OsWrapper6ThreadILj128EEC1Ev
          CFI Block cfiBlock111 Using cfiCommon0
          CFI Function _ZN9OsWrapper6ThreadILj128EEC1Ev
        THUMB
// __code __interwork __vfp OsWrapper::Thread<128U>::Thread()
_ZN9OsWrapper6ThreadILj128EEC1Ev:
        PUSH     {R4,LR}
          CFI R14 Frame(CFA, -4)
          CFI R4 Frame(CFA, -8)
          CFI CFA R13+8
        MOVS     R4,R0
        MOVS     R0,R4
          CFI FunCall _ZN9OsWrapper7IThreadC2Ev
        BL       _ZN9OsWrapper7IThreadC2Ev
        MOVS     R0,R4
        POP      {R4,PC}          ;; return
          CFI EndBlock cfiBlock111

        SECTION `.text`:CODE:REORDER:NOROOT(1)
        SECTION_GROUP _ZN9OsWrapper4Rtos12CreateThreadI17DisplayUpdateTaskEEvRT_PKcNS_14ThreadPriorityE
          CFI Block cfiBlock112 Using cfiCommon0
          CFI Function _ZN9OsWrapper4Rtos12CreateThreadI17DisplayUpdateTaskEEvRT_PKcNS_14ThreadPriorityE
        THUMB
// __interwork __vfp void OsWrapper::Rtos::CreateThread<DisplayUpdateTask>(DisplayUpdateTask &, char const *, OsWrapper::ThreadPriority)
_ZN9OsWrapper4Rtos12CreateThreadI17DisplayUpdateTaskEEvRT_PKcNS_14ThreadPriorityE:
        PUSH     {R2-R6,LR}
          CFI R14 Frame(CFA, -4)
          CFI R6 Frame(CFA, -8)
          CFI R5 Frame(CFA, -12)
          CFI R4 Frame(CFA, -16)
          CFI CFA R13+24
        MOVS     R4,R0
        MOVS     R5,R1
        MOVS     R6,R2
        ADDS     R0,R4,#+92
          CFI FunCall _ZNSt5arrayIjLj400EE4dataEv
        BL       _ZNSt5arrayIjLj400EE4dataEv
        STR      R0,[SP, #+0]
        MOV      R3,#+400
        MOVS     R2,R6
        UXTB     R2,R2            ;; ZeroExt  R2,R2,#+24,#+24
        MOVS     R1,R5
        MOVS     R0,R4
          CFI FunCall _ZN9OsWrapper11RtosWrapper13wCreateThreadINS_4RtosE17DisplayUpdateTaskEEvRT0_PKcNS_14ThreadPriorityEtPj
        BL       _ZN9OsWrapper11RtosWrapper13wCreateThreadINS_4RtosE17DisplayUpdateTaskEEvRT0_PKcNS_14ThreadPriorityEtPj
        POP      {R0,R1,R4-R6,PC}  ;; return
          CFI EndBlock cfiBlock112

        SECTION `.text`:CODE:REORDER:NOROOT(1)
        SECTION_GROUP _ZN9OsWrapper4Rtos12CreateThreadI13BluetoothTaskEEvRT_PKcNS_14ThreadPriorityE
          CFI Block cfiBlock113 Using cfiCommon0
          CFI Function _ZN9OsWrapper4Rtos12CreateThreadI13BluetoothTaskEEvRT_PKcNS_14ThreadPriorityE
        THUMB
// __interwork __vfp void OsWrapper::Rtos::CreateThread<BluetoothTask>(BluetoothTask &, char const *, OsWrapper::ThreadPriority)
_ZN9OsWrapper4Rtos12CreateThreadI13BluetoothTaskEEvRT_PKcNS_14ThreadPriorityE:
        PUSH     {R2-R6,LR}
          CFI R14 Frame(CFA, -4)
          CFI R6 Frame(CFA, -8)
          CFI R5 Frame(CFA, -12)
          CFI R4 Frame(CFA, -16)
          CFI CFA R13+24
        MOVS     R4,R0
        MOVS     R5,R1
        MOVS     R6,R2
        ADDS     R0,R4,#+92
          CFI FunCall _ZNSt5arrayIjLj400EE4dataEv
        BL       _ZNSt5arrayIjLj400EE4dataEv
        STR      R0,[SP, #+0]
        MOV      R3,#+400
        MOVS     R2,R6
        UXTB     R2,R2            ;; ZeroExt  R2,R2,#+24,#+24
        MOVS     R1,R5
        MOVS     R0,R4
          CFI FunCall _ZN9OsWrapper11RtosWrapper13wCreateThreadINS_4RtosE13BluetoothTaskEEvRT0_PKcNS_14ThreadPriorityEtPj
        BL       _ZN9OsWrapper11RtosWrapper13wCreateThreadINS_4RtosE13BluetoothTaskEEvRT0_PKcNS_14ThreadPriorityEtPj
        POP      {R0,R1,R4-R6,PC}  ;; return
          CFI EndBlock cfiBlock113

        SECTION `.text`:CODE:REORDER:NOROOT(1)
        SECTION_GROUP _ZN9OsWrapper4Rtos12CreateThreadI15ButtonEventTaskI6ButtonI3PinI4PortI5GPIOCELh13EEEL_Z5eventEEEEvRT_PKcNS_14ThreadPriorityE
          CFI Block cfiBlock114 Using cfiCommon0
          CFI Function _ZN9OsWrapper4Rtos12CreateThreadI15ButtonEventTaskI6ButtonI3PinI4PortI5GPIOCELh13EEEL_Z5eventEEEEvRT_PKcNS_14ThreadPriorityE
        THUMB
// __interwork __vfp void OsWrapper::Rtos::CreateThread<ButtonEventTask<UserButton, event>>(ButtonEventTask<UserButton, event> &, char const *, OsWrapper::ThreadPriority)
_ZN9OsWrapper4Rtos12CreateThreadI15ButtonEventTaskI6ButtonI3PinI4PortI5GPIOCELh13EEEL_Z5eventEEEEvRT_PKcNS_14ThreadPriorityE:
        PUSH     {R2-R6,LR}
          CFI R14 Frame(CFA, -4)
          CFI R6 Frame(CFA, -8)
          CFI R5 Frame(CFA, -12)
          CFI R4 Frame(CFA, -16)
          CFI CFA R13+24
        MOVS     R4,R0
        MOVS     R5,R1
        MOVS     R6,R2
        ADDS     R0,R4,#+92
          CFI FunCall _ZNSt5arrayIjLj128EE4dataEv
        BL       _ZNSt5arrayIjLj128EE4dataEv
        STR      R0,[SP, #+0]
        MOVS     R3,#+128
        MOVS     R2,R6
        UXTB     R2,R2            ;; ZeroExt  R2,R2,#+24,#+24
        MOVS     R1,R5
        MOVS     R0,R4
          CFI FunCall _ZN9OsWrapper11RtosWrapper13wCreateThreadINS_4RtosE15ButtonEventTaskI6ButtonI3PinI4PortI5GPIOCELh13EEEL_Z5eventEEEEvRT0_PKcNS_14ThreadPriorityEtPj
        BL       _ZN9OsWrapper11RtosWrapper13wCreateThreadINS_4RtosE15ButtonEventTaskI6ButtonI3PinI4PortI5GPIOCELh13EEEL_Z5eventEEEEvRT0_PKcNS_14ThreadPriorityEtPj
        POP      {R0,R1,R4-R6,PC}  ;; return
          CFI EndBlock cfiBlock114

        SECTION `.text`:CODE:REORDER:NOROOT(1)
        SECTION_GROUP _ZN9OsWrapper4Rtos12CreateThreadI15MeasurementTaskIL_Z5eventEEEEvRT_PKcNS_14ThreadPriorityE
          CFI Block cfiBlock115 Using cfiCommon0
          CFI Function _ZN9OsWrapper4Rtos12CreateThreadI15MeasurementTaskIL_Z5eventEEEEvRT_PKcNS_14ThreadPriorityE
        THUMB
// __interwork __vfp void OsWrapper::Rtos::CreateThread<MeasurementTask<event>>(MeasurementTask<event> &, char const *, OsWrapper::ThreadPriority)
_ZN9OsWrapper4Rtos12CreateThreadI15MeasurementTaskIL_Z5eventEEEEvRT_PKcNS_14ThreadPriorityE:
        PUSH     {R2-R6,LR}
          CFI R14 Frame(CFA, -4)
          CFI R6 Frame(CFA, -8)
          CFI R5 Frame(CFA, -12)
          CFI R4 Frame(CFA, -16)
          CFI CFA R13+24
        MOVS     R4,R0
        MOVS     R5,R1
        MOVS     R6,R2
        ADDS     R0,R4,#+92
          CFI FunCall _ZNSt5arrayIjLj128EE4dataEv
        BL       _ZNSt5arrayIjLj128EE4dataEv
        STR      R0,[SP, #+0]
        MOVS     R3,#+128
        MOVS     R2,R6
        UXTB     R2,R2            ;; ZeroExt  R2,R2,#+24,#+24
        MOVS     R1,R5
        MOVS     R0,R4
          CFI FunCall _ZN9OsWrapper11RtosWrapper13wCreateThreadINS_4RtosE15MeasurementTaskIL_Z5eventEEEEvRT0_PKcNS_14ThreadPriorityEtPj
        BL       _ZN9OsWrapper11RtosWrapper13wCreateThreadINS_4RtosE15MeasurementTaskIL_Z5eventEEEEvRT0_PKcNS_14ThreadPriorityEtPj
        POP      {R0,R1,R4-R6,PC}  ;; return
          CFI EndBlock cfiBlock115

        SECTION `.text`:CODE:REORDER:NOROOT(1)
        SECTION_GROUP _ZN9OsWrapper4Rtos5StartEv
          CFI Block cfiBlock116 Using cfiCommon0
          CFI Function _ZN9OsWrapper4Rtos5StartEv
        THUMB
// __interwork __vfp void OsWrapper::Rtos::Start()
_ZN9OsWrapper4Rtos5StartEv:
        PUSH     {R7,LR}
          CFI R14 Frame(CFA, -4)
          CFI CFA R13+8
          CFI FunCall _ZN9OsWrapper11RtosWrapper6wStartEv
        BL       _ZN9OsWrapper11RtosWrapper6wStartEv
        POP      {R0,PC}          ;; return
          CFI EndBlock cfiBlock116

        SECTION `.text`:CODE:REORDER:NOROOT(1)
        SECTION_GROUP _ZN9OsWrapper4Rtos3RunEPv
          CFI Block cfiBlock117 Using cfiCommon0
          CFI Function _ZN9OsWrapper4Rtos3RunEPv
        THUMB
// __interwork __vfp void OsWrapper::Rtos::Run(void *)
_ZN9OsWrapper4Rtos3RunEPv:
        PUSH     {R4,LR}
          CFI R14 Frame(CFA, -4)
          CFI R4 Frame(CFA, -8)
          CFI CFA R13+8
        MOVS     R4,R0
        MOVS     R0,R4
          CFI FunCall _ZN9OsWrapper7IThread3RunEv
        BL       _ZN9OsWrapper7IThread3RunEv
        POP      {R4,PC}          ;; return
          CFI EndBlock cfiBlock117

        SECTION `.text`:CODE:REORDER:NOROOT(1)
        SECTION_GROUP _ZN9OsWrapper5EventC1ENSt6chrono8durationIxSt5ratioILx1ELx1000EEEEj
          CFI Block cfiBlock118 Using cfiCommon0
          CFI Function _ZN9OsWrapper5EventC1ENSt6chrono8durationIxSt5ratioILx1ELx1000EEEEj
        THUMB
// __code __interwork __vfp OsWrapper::Event::Event(std::chrono::milliseconds, uint32_t)
_ZN9OsWrapper5EventC1ENSt6chrono8durationIxSt5ratioILx1ELx1000EEEEj:
        PUSH     {R3-R5,LR}
          CFI R14 Frame(CFA, -4)
          CFI R5 Frame(CFA, -8)
          CFI R4 Frame(CFA, -12)
          CFI CFA R13+16
        PUSH     {R0-R3}
          CFI CFA R13+32
        MOVS     R4,R0
        LDR      R5,[SP, #+32]
        MOVS     R0,#+0
        STR      R0,[R4, #+0]
        ADD      R0,SP,#+8
          CFI FunCall _ZNSt6chrono13duration_castINS_8durationIjSt5ratioILx10ELx1000EEEExS2_ILx1ELx1000EEEENSt9enable_ifIXsr3std6chrono12_Is_durationIT_EE5valueES7_E4typeERKNS1_IT0_T1_EE
        BL       _ZNSt6chrono13duration_castINS_8durationIjSt5ratioILx10ELx1000EEEExS2_ILx1ELx1000EEEENSt9enable_ifIXsr3std6chrono12_Is_durationIT_EE5valueES7_E4typeERKNS1_IT0_T1_EE
        STR      R0,[SP, #+0]
        MOV      R0,SP
          CFI FunCall _ZNKSt6chrono8durationIjSt5ratioILx10ELx1000EEE5countEv
        BL       _ZNKSt6chrono8durationIjSt5ratioILx10ELx1000EEE5countEv
        STR      R0,[R4, #+28]
        STR      R5,[R4, #+32]
        ADDS     R0,R4,#+4
          CFI FunCall _ZN9OsWrapper11RtosWrapper12wCreateEventER19xSTATIC_EVENT_GROUP
        BL       _ZN9OsWrapper11RtosWrapper12wCreateEventER19xSTATIC_EVENT_GROUP
        STR      R0,[R4, #+0]
        MOVS     R0,R4
        ADD      SP,SP,#+20
          CFI CFA R13+12
        POP      {R4,R5,PC}       ;; return
          CFI EndBlock cfiBlock118

        SECTION `.text`:CODE:REORDER:NOROOT(1)
        SECTION_GROUP _ZN9OsWrapper5EventD1Ev
          CFI Block cfiBlock119 Using cfiCommon0
          CFI Function _ZN9OsWrapper5EventD1Ev
        THUMB
// __code __interwork __vfp OsWrapper::Event::~Event()
_ZN9OsWrapper5EventD1Ev:
        PUSH     {R4,LR}
          CFI R14 Frame(CFA, -4)
          CFI R4 Frame(CFA, -8)
          CFI CFA R13+8
        MOVS     R4,R0
        MOVS     R0,R4
          CFI FunCall _ZN9OsWrapper11RtosWrapper12wDeleteEventERPv
        BL       _ZN9OsWrapper11RtosWrapper12wDeleteEventERPv
        MOVS     R0,R4
        POP      {R4,PC}          ;; return
          CFI EndBlock cfiBlock119

        SECTION `.text`:CODE:REORDER:NOROOT(1)
        SECTION_GROUP _ZN9OsWrapper5Event6SignalEv
          CFI Block cfiBlock120 Using cfiCommon0
          CFI Function _ZN9OsWrapper5Event6SignalEv
        THUMB
// __interwork __vfp void OsWrapper::Event::Signal()
_ZN9OsWrapper5Event6SignalEv:
        PUSH     {R4,LR}
          CFI R14 Frame(CFA, -4)
          CFI R4 Frame(CFA, -8)
          CFI CFA R13+8
        MOVS     R4,R0
        LDR      R1,[R4, #+32]
        MOVS     R0,R4
          CFI FunCall _ZN9OsWrapper11RtosWrapper12wSignalEventERKPvj
        BL       _ZN9OsWrapper11RtosWrapper12wSignalEventERKPvj
        POP      {R4,PC}          ;; return
          CFI EndBlock cfiBlock120

        SECTION `.text`:CODE:REORDER:NOROOT(1)
        SECTION_GROUP _ZNK9OsWrapper5Event4WaitENS_9EventModeEj
          CFI Block cfiBlock121 Using cfiCommon0
          CFI Function _ZNK9OsWrapper5Event4WaitENS_9EventModeEj
        THUMB
// __interwork __vfp uint32_t OsWrapper::Event::Wait(OsWrapper::EventMode, uint32_t) const
_ZNK9OsWrapper5Event4WaitENS_9EventModeEj:
        PUSH     {R4-R6,LR}
          CFI R14 Frame(CFA, -4)
          CFI R6 Frame(CFA, -8)
          CFI R5 Frame(CFA, -12)
          CFI R4 Frame(CFA, -16)
          CFI CFA R13+16
        MOVS     R4,R0
        MOVS     R5,R1
        MOVS     R6,R2
        MOVS     R3,R5
        LDR      R2,[R4, #+28]
        MOVS     R1,R6
        MOVS     R0,R4
          CFI FunCall _ZN9OsWrapper11RtosWrapper10wWaitEventERKPvjjNS_9EventModeE
        BL       _ZN9OsWrapper11RtosWrapper10wWaitEventERKPvjjNS_9EventModeE
        POP      {R4-R6,PC}       ;; return
          CFI EndBlock cfiBlock121

        SECTION `.text`:CODE:REORDER:NOROOT(2)
        SECTION_GROUP _ZN13RegisterFieldIN6USART23BRRELj4ELj12E13ReadWriteModevE3SetIS2_vEEvj
          CFI Block cfiBlock122 Using cfiCommon0
          CFI Function _ZN13RegisterFieldIN6USART23BRRELj4ELj12E13ReadWriteModevE3SetIS2_vEEvj
        THUMB
// __interwork __vfp void RegisterField<USART2::BRR, 4U, 12U, ReadWriteMode>::Set<ReadWriteMode, void>(uint32_t)
_ZN13RegisterFieldIN6USART23BRRELj4ELj12E13ReadWriteModevE3SetIS2_vEEvj:
        PUSH     {R4,LR}
          CFI R14 Frame(CFA, -4)
          CFI R4 Frame(CFA, -8)
          CFI CFA R13+8
        MOVS     R4,R0
        CMP      R4,#+4096
        BCC.N    ??Set_56
        MOVS     R2,#+31
        LDR.N    R1,??Set_0
        LDR.N    R0,??Set_0+0x4
          CFI FunCall __aeabi_assert
        BL       __aeabi_assert
          CFI FunCall __iar_EmptyStepPoint
        BL       __iar_EmptyStepPoint
??Set_56:
        LDR.N    R1,??Set_0+0x8   ;; 0x40004408
        LDR      R0,[R1, #+0]
        BFC      R0,#+4,#+12
        ORRS     R0,R0,R4, LSL #+4
        STR      R0,[R1, #+0]
        POP      {R4,PC}          ;; return
        DATA
??Set_0:
        DATA32
        DC32     _ZZN13RegisterFieldIN6USART23BRRELj4ELj12E13ReadWriteModevE3SetIS2_vEEvjEs_0
        DC32     _ZZN13RegisterFieldIN6USART23BRRELj4ELj12E13ReadWriteModevE3SetIS2_vEEvjEs
        DC32     0x40004408
          CFI EndBlock cfiBlock122

        SECTION `.text`:CODE:REORDER:NOROOT(2)
        SECTION_GROUP _ZN13RegisterFieldIN6USART23BRRELj0ELj4E13ReadWriteModevE3SetIS2_vEEvj
          CFI Block cfiBlock123 Using cfiCommon0
          CFI Function _ZN13RegisterFieldIN6USART23BRRELj0ELj4E13ReadWriteModevE3SetIS2_vEEvj
        THUMB
// __interwork __vfp void RegisterField<USART2::BRR, 0U, 4U, ReadWriteMode>::Set<ReadWriteMode, void>(uint32_t)
_ZN13RegisterFieldIN6USART23BRRELj0ELj4E13ReadWriteModevE3SetIS2_vEEvj:
        PUSH     {R4,LR}
          CFI R14 Frame(CFA, -4)
          CFI R4 Frame(CFA, -8)
          CFI CFA R13+8
        MOVS     R4,R0
        CMP      R4,#+16
        BCC.N    ??Set_57
        MOVS     R2,#+31
        LDR.N    R1,??Set_1
        LDR.N    R0,??Set_1+0x4
          CFI FunCall __aeabi_assert
        BL       __aeabi_assert
          CFI FunCall __iar_EmptyStepPoint
        BL       __iar_EmptyStepPoint
??Set_57:
        LDR.N    R1,??Set_1+0x8   ;; 0x40004408
        LDR      R0,[R1, #+0]
        LSRS     R0,R0,#+4
        LSLS     R0,R0,#+4
        ORRS     R0,R4,R0
        STR      R0,[R1, #+0]
        POP      {R4,PC}          ;; return
        DATA
??Set_1:
        DATA32
        DC32     _ZZN13RegisterFieldIN6USART23BRRELj0ELj4E13ReadWriteModevE3SetIS2_vEEvjEs_0
        DC32     _ZZN13RegisterFieldIN6USART23BRRELj0ELj4E13ReadWriteModevE3SetIS2_vEEvjEs
        DC32     0x40004408
          CFI EndBlock cfiBlock123

        SECTION `.text`:CODE:REORDER:NOROOT(2)
        SECTION_GROUP _ZN13RegisterFieldIN4SPI25CRCPRELj0ELj16E13ReadWriteModevE3SetIS2_vEEvj
          CFI Block cfiBlock124 Using cfiCommon0
          CFI Function _ZN13RegisterFieldIN4SPI25CRCPRELj0ELj16E13ReadWriteModevE3SetIS2_vEEvj
        THUMB
// __interwork __vfp void RegisterField<SPI2::CRCPR, 0U, 16U, ReadWriteMode>::Set<ReadWriteMode, void>(uint32_t)
_ZN13RegisterFieldIN4SPI25CRCPRELj0ELj16E13ReadWriteModevE3SetIS2_vEEvj:
        PUSH     {R4,LR}
          CFI R14 Frame(CFA, -4)
          CFI R4 Frame(CFA, -8)
          CFI CFA R13+8
        MOVS     R4,R0
        CMP      R4,#+65536
        BCC.N    ??Set_58
        MOVS     R2,#+31
        LDR.N    R1,??Set_2
        LDR.N    R0,??Set_2+0x4
          CFI FunCall __aeabi_assert
        BL       __aeabi_assert
          CFI FunCall __iar_EmptyStepPoint
        BL       __iar_EmptyStepPoint
??Set_58:
        LDR.N    R1,??Set_2+0x8   ;; 0x40003810
        LDR      R0,[R1, #+0]
        LSRS     R0,R0,#+16
        LSLS     R0,R0,#+16
        ORRS     R0,R4,R0
        STR      R0,[R1, #+0]
        POP      {R4,PC}          ;; return
        Nop      
        DATA
??Set_2:
        DATA32
        DC32     _ZZN13RegisterFieldIN4SPI25CRCPRELj0ELj16E13ReadWriteModevE3SetIS2_vEEvjEs_0
        DC32     _ZZN13RegisterFieldIN4SPI25CRCPRELj0ELj16E13ReadWriteModevE3SetIS2_vEEvjEs
        DC32     0x40003810
          CFI EndBlock cfiBlock124

        SECTION `.text`:CODE:REORDER:NOROOT(2)
        SECTION_GROUP _ZN13RegisterFieldIN6USART23CR1ELj15ELj1E13ReadWriteModevE3GetIS2_vEEjv
          CFI Block cfiBlock125 Using cfiCommon0
          CFI Function _ZN13RegisterFieldIN6USART23CR1ELj15ELj1E13ReadWriteModevE3GetIS2_vEEjv
          CFI NoCalls
        THUMB
// __interwork __vfp uint32_t RegisterField<USART2::CR1, 15U, 1U, ReadWriteMode>::Get<ReadWriteMode, void>()
_ZN13RegisterFieldIN6USART23CR1ELj15ELj1E13ReadWriteModevE3GetIS2_vEEjv:
        LDR.N    R0,??Get_0       ;; 0x4000440c
        LDR      R0,[R0, #+0]
        UBFX     R0,R0,#+15,#+1
        BX       LR               ;; return
        Nop      
        DATA
??Get_0:
        DATA32
        DC32     0x4000440c
          CFI EndBlock cfiBlock125

        SECTION `.text`:CODE:REORDER:NOROOT(2)
        SECTION_GROUP _ZN14FieldValueBaseI19SPI1_CR1_SPE_ValuesIN4SPI13CR1ELj6ELj1E13ReadWriteModeNS1_11SPI1CR1BaseEES4_Lj1EE3SetIS3_vEEvv
          CFI Block cfiBlock126 Using cfiCommon0
          CFI Function _ZN14FieldValueBaseI19SPI1_CR1_SPE_ValuesIN4SPI13CR1ELj6ELj1E13ReadWriteModeNS1_11SPI1CR1BaseEES4_Lj1EE3SetIS3_vEEvv
          CFI NoCalls
        THUMB
// __interwork __vfp void FieldValueBase<SPI1_CR1_SPE_Values<SPI1::CR1, 6U, 1U, ReadWriteMode, SPI1::SPI1CR1Base>, SPI1::SPI1CR1Base, 1U>::Set<ReadWriteMode, void>()
_ZN14FieldValueBaseI19SPI1_CR1_SPE_ValuesIN4SPI13CR1ELj6ELj1E13ReadWriteModeNS1_11SPI1CR1BaseEES4_Lj1EE3SetIS3_vEEvv:
        LDR.N    R1,??Set_3       ;; 0x40013000
        LDR      R0,[R1, #+0]
        BICS     R0,R0,#0x40
        ORRS     R0,R0,#0x40
        STR      R0,[R1, #+0]
        BX       LR               ;; return
        DATA
??Set_3:
        DATA32
        DC32     0x40013000
          CFI EndBlock cfiBlock126

        SECTION `.text`:CODE:REORDER:NOROOT(2)
        SECTION_GROUP _ZN14FieldValueBaseI20USART2_CR1_UE_ValuesIN6USART23CR1ELj13ELj1E13ReadWriteModeNS1_13USART2CR1BaseEES4_Lj1EE3SetIS3_vEEvv
          CFI Block cfiBlock127 Using cfiCommon0
          CFI Function _ZN14FieldValueBaseI20USART2_CR1_UE_ValuesIN6USART23CR1ELj13ELj1E13ReadWriteModeNS1_13USART2CR1BaseEES4_Lj1EE3SetIS3_vEEvv
          CFI NoCalls
        THUMB
// __interwork __vfp void FieldValueBase<USART2_CR1_UE_Values<USART2::CR1, 13U, 1U, ReadWriteMode, USART2::USART2CR1Base>, USART2::USART2CR1Base, 1U>::Set<ReadWriteMode, void>()
_ZN14FieldValueBaseI20USART2_CR1_UE_ValuesIN6USART23CR1ELj13ELj1E13ReadWriteModeNS1_13USART2CR1BaseEES4_Lj1EE3SetIS3_vEEvv:
        LDR.N    R1,??Set_4       ;; 0x4000440c
        LDR      R0,[R1, #+0]
        BICS     R0,R0,#0x2000
        ORRS     R0,R0,#0x2000
        STR      R0,[R1, #+0]
        BX       LR               ;; return
        DATA
??Set_4:
        DATA32
        DC32     0x4000440c
          CFI EndBlock cfiBlock127

        SECTION `.text`:CODE:REORDER:NOROOT(2)
        SECTION_GROUP _ZN14FieldValueBaseI20USART2_CR1_TE_ValuesIN6USART23CR1ELj3ELj1E13ReadWriteModeNS1_13USART2CR1BaseEES4_Lj1EE3SetIS3_vEEvv
          CFI Block cfiBlock128 Using cfiCommon0
          CFI Function _ZN14FieldValueBaseI20USART2_CR1_TE_ValuesIN6USART23CR1ELj3ELj1E13ReadWriteModeNS1_13USART2CR1BaseEES4_Lj1EE3SetIS3_vEEvv
          CFI NoCalls
        THUMB
// __interwork __vfp void FieldValueBase<USART2_CR1_TE_Values<USART2::CR1, 3U, 1U, ReadWriteMode, USART2::USART2CR1Base>, USART2::USART2CR1Base, 1U>::Set<ReadWriteMode, void>()
_ZN14FieldValueBaseI20USART2_CR1_TE_ValuesIN6USART23CR1ELj3ELj1E13ReadWriteModeNS1_13USART2CR1BaseEES4_Lj1EE3SetIS3_vEEvv:
        LDR.N    R1,??Set_5       ;; 0x4000440c
        LDR      R0,[R1, #+0]
        BICS     R0,R0,#0x8
        ORRS     R0,R0,#0x8
        STR      R0,[R1, #+0]
        BX       LR               ;; return
        DATA
??Set_5:
        DATA32
        DC32     0x4000440c
          CFI EndBlock cfiBlock128

        SECTION `.text`:CODE:REORDER:NOROOT(2)
        SECTION_GROUP _ZN14FieldValueBaseI23USART2_CR1_TXEIE_ValuesIN6USART23CR1ELj7ELj1E13ReadWriteModeNS1_13USART2CR1BaseEES4_Lj1EE3SetIS3_vEEvv
          CFI Block cfiBlock129 Using cfiCommon0
          CFI Function _ZN14FieldValueBaseI23USART2_CR1_TXEIE_ValuesIN6USART23CR1ELj7ELj1E13ReadWriteModeNS1_13USART2CR1BaseEES4_Lj1EE3SetIS3_vEEvv
          CFI NoCalls
        THUMB
// __interwork __vfp void FieldValueBase<USART2_CR1_TXEIE_Values<USART2::CR1, 7U, 1U, ReadWriteMode, USART2::USART2CR1Base>, USART2::USART2CR1Base, 1U>::Set<ReadWriteMode, void>()
_ZN14FieldValueBaseI23USART2_CR1_TXEIE_ValuesIN6USART23CR1ELj7ELj1E13ReadWriteModeNS1_13USART2CR1BaseEES4_Lj1EE3SetIS3_vEEvv:
        LDR.N    R1,??Set_6       ;; 0x4000440c
        LDR      R0,[R1, #+0]
        BICS     R0,R0,#0x80
        ORRS     R0,R0,#0x80
        STR      R0,[R1, #+0]
        BX       LR               ;; return
        DATA
??Set_6:
        DATA32
        DC32     0x4000440c
          CFI EndBlock cfiBlock129

        SECTION `.text`:CODE:REORDER:NOROOT(2)
        SECTION_GROUP _ZN14FieldValueBaseI19SPI2_CR1_SPE_ValuesIN4SPI23CR1ELj6ELj1E13ReadWriteModeNS1_11SPI2CR1BaseEES4_Lj1EE3SetIS3_vEEvv
          CFI Block cfiBlock130 Using cfiCommon0
          CFI Function _ZN14FieldValueBaseI19SPI2_CR1_SPE_ValuesIN4SPI23CR1ELj6ELj1E13ReadWriteModeNS1_11SPI2CR1BaseEES4_Lj1EE3SetIS3_vEEvv
          CFI NoCalls
        THUMB
// __interwork __vfp void FieldValueBase<SPI2_CR1_SPE_Values<SPI2::CR1, 6U, 1U, ReadWriteMode, SPI2::SPI2CR1Base>, SPI2::SPI2CR1Base, 1U>::Set<ReadWriteMode, void>()
_ZN14FieldValueBaseI19SPI2_CR1_SPE_ValuesIN4SPI23CR1ELj6ELj1E13ReadWriteModeNS1_11SPI2CR1BaseEES4_Lj1EE3SetIS3_vEEvv:
        LDR.N    R1,??Set_7       ;; 0x40003800
        LDR      R0,[R1, #+0]
        BICS     R0,R0,#0x40
        ORRS     R0,R0,#0x40
        STR      R0,[R1, #+0]
        BX       LR               ;; return
        DATA
??Set_7:
        DATA32
        DC32     0x40003800
          CFI EndBlock cfiBlock130

        SECTION `.text`:CODE:REORDER:NOROOT(2)
        SECTION_GROUP _ZN14FieldValueBaseI21SPI2_CR2_TXEIE_ValuesIN4SPI23CR2ELj7ELj1E13ReadWriteModeNS1_11SPI2CR2BaseEES4_Lj1EE3SetIS3_vEEvv
          CFI Block cfiBlock131 Using cfiCommon0
          CFI Function _ZN14FieldValueBaseI21SPI2_CR2_TXEIE_ValuesIN4SPI23CR2ELj7ELj1E13ReadWriteModeNS1_11SPI2CR2BaseEES4_Lj1EE3SetIS3_vEEvv
          CFI NoCalls
        THUMB
// __interwork __vfp void FieldValueBase<SPI2_CR2_TXEIE_Values<SPI2::CR2, 7U, 1U, ReadWriteMode, SPI2::SPI2CR2Base>, SPI2::SPI2CR2Base, 1U>::Set<ReadWriteMode, void>()
_ZN14FieldValueBaseI21SPI2_CR2_TXEIE_ValuesIN4SPI23CR2ELj7ELj1E13ReadWriteModeNS1_11SPI2CR2BaseEES4_Lj1EE3SetIS3_vEEvv:
        LDR.N    R1,??Set_8       ;; 0x40003804
        LDR      R0,[R1, #+0]
        BICS     R0,R0,#0x80
        ORRS     R0,R0,#0x80
        STR      R0,[R1, #+0]
        BX       LR               ;; return
        DATA
??Set_8:
        DATA32
        DC32     0x40003804
          CFI EndBlock cfiBlock131

        SECTION `.text`:CODE:REORDER:NOROOT(2)
        SECTION_GROUP _ZN14FieldValueBaseI19RCC_CR_HSION_ValuesIN3RCC2CRELj0ELj1E13ReadWriteModeNS1_9RCCCRBaseEES4_Lj1EE3SetIS3_vEEvv
          CFI Block cfiBlock132 Using cfiCommon0
          CFI Function _ZN14FieldValueBaseI19RCC_CR_HSION_ValuesIN3RCC2CRELj0ELj1E13ReadWriteModeNS1_9RCCCRBaseEES4_Lj1EE3SetIS3_vEEvv
          CFI NoCalls
        THUMB
// __interwork __vfp void FieldValueBase<RCC_CR_HSION_Values<RCC::CR, 0U, 1U, ReadWriteMode, RCC::RCCCRBase>, RCC::RCCCRBase, 1U>::Set<ReadWriteMode, void>()
_ZN14FieldValueBaseI19RCC_CR_HSION_ValuesIN3RCC2CRELj0ELj1E13ReadWriteModeNS1_9RCCCRBaseEES4_Lj1EE3SetIS3_vEEvv:
        LDR.N    R1,??Set_9       ;; 0x40023800
        LDR      R0,[R1, #+0]
        LSRS     R0,R0,#+1
        LSLS     R0,R0,#+1
        ORRS     R0,R0,#0x1
        STR      R0,[R1, #+0]
        BX       LR               ;; return
        DATA
??Set_9:
        DATA32
        DC32     0x40023800
          CFI EndBlock cfiBlock132

        SECTION `.text`:CODE:REORDER:NOROOT(2)
        SECTION_GROUP _ZN14FieldValueBaseI18RCC_CFGR_SW_ValuesIN3RCC4CFGRELj0ELj2E13ReadWriteModeNS1_11RCCCFGRBaseEES4_Lj0EE3SetIS3_vEEvv
          CFI Block cfiBlock133 Using cfiCommon0
          CFI Function _ZN14FieldValueBaseI18RCC_CFGR_SW_ValuesIN3RCC4CFGRELj0ELj2E13ReadWriteModeNS1_11RCCCFGRBaseEES4_Lj0EE3SetIS3_vEEvv
          CFI NoCalls
        THUMB
// __interwork __vfp void FieldValueBase<RCC_CFGR_SW_Values<RCC::CFGR, 0U, 2U, ReadWriteMode, RCC::RCCCFGRBase>, RCC::RCCCFGRBase, 0U>::Set<ReadWriteMode, void>()
_ZN14FieldValueBaseI18RCC_CFGR_SW_ValuesIN3RCC4CFGRELj0ELj2E13ReadWriteModeNS1_11RCCCFGRBaseEES4_Lj0EE3SetIS3_vEEvv:
        LDR.N    R1,??Set_10      ;; 0x40023808
        LDR      R0,[R1, #+0]
        LSRS     R0,R0,#+2
        LSLS     R0,R0,#+2
        STR      R0,[R1, #+0]
        BX       LR               ;; return
        DATA
??Set_10:
        DATA32
        DC32     0x40023808
          CFI EndBlock cfiBlock133

        SECTION `.text`:CODE:REORDER:NOROOT(2)
        SECTION_GROUP _ZN14FieldValueBaseI26RCC_AHB1ENR_GPIOAEN_ValuesIN3RCC7AHB1ENRELj0ELj1E13ReadWriteModeNS1_14RCCAHB1ENRBaseEES4_Lj1EE3SetIS3_vEEvv
          CFI Block cfiBlock134 Using cfiCommon0
          CFI Function _ZN14FieldValueBaseI26RCC_AHB1ENR_GPIOAEN_ValuesIN3RCC7AHB1ENRELj0ELj1E13ReadWriteModeNS1_14RCCAHB1ENRBaseEES4_Lj1EE3SetIS3_vEEvv
          CFI NoCalls
        THUMB
// __interwork __vfp void FieldValueBase<RCC_AHB1ENR_GPIOAEN_Values<RCC::AHB1ENR, 0U, 1U, ReadWriteMode, RCC::RCCAHB1ENRBase>, RCC::RCCAHB1ENRBase, 1U>::Set<ReadWriteMode, void>()
_ZN14FieldValueBaseI26RCC_AHB1ENR_GPIOAEN_ValuesIN3RCC7AHB1ENRELj0ELj1E13ReadWriteModeNS1_14RCCAHB1ENRBaseEES4_Lj1EE3SetIS3_vEEvv:
        LDR.N    R1,??Set_11      ;; 0x40023830
        LDR      R0,[R1, #+0]
        LSRS     R0,R0,#+1
        LSLS     R0,R0,#+1
        ORRS     R0,R0,#0x1
        STR      R0,[R1, #+0]
        BX       LR               ;; return
        DATA
??Set_11:
        DATA32
        DC32     0x40023830
          CFI EndBlock cfiBlock134

        SECTION `.text`:CODE:REORDER:NOROOT(2)
        SECTION_GROUP _ZN14FieldValueBaseI25RCC_AHB1ENR_DMA2EN_ValuesIN3RCC7APB1ENRELj17ELj1E13ReadWriteModeNS1_14RCCAPB1ENRBaseEES4_Lj1EE3SetIS3_vEEvv
          CFI Block cfiBlock135 Using cfiCommon0
          CFI Function _ZN14FieldValueBaseI25RCC_AHB1ENR_DMA2EN_ValuesIN3RCC7APB1ENRELj17ELj1E13ReadWriteModeNS1_14RCCAPB1ENRBaseEES4_Lj1EE3SetIS3_vEEvv
          CFI NoCalls
        THUMB
// __interwork __vfp void FieldValueBase<RCC_AHB1ENR_DMA2EN_Values<RCC::APB1ENR, 17U, 1U, ReadWriteMode, RCC::RCCAPB1ENRBase>, RCC::RCCAPB1ENRBase, 1U>::Set<ReadWriteMode, void>()
_ZN14FieldValueBaseI25RCC_AHB1ENR_DMA2EN_ValuesIN3RCC7APB1ENRELj17ELj1E13ReadWriteModeNS1_14RCCAPB1ENRBaseEES4_Lj1EE3SetIS3_vEEvv:
        LDR.N    R1,??Set_12      ;; 0x40023840
        LDR      R0,[R1, #+0]
        BICS     R0,R0,#0x20000
        ORRS     R0,R0,#0x20000
        STR      R0,[R1, #+0]
        BX       LR               ;; return
        DATA
??Set_12:
        DATA32
        DC32     0x40023840
          CFI EndBlock cfiBlock135

        SECTION `.text`:CODE:REORDER:NOROOT(2)
        SECTION_GROUP _ZN14FieldValueBaseI26GPIOA_MODER_MODER15_ValuesIN5GPIOA5MODERELj6ELj2E13ReadWriteModeNS1_14GPIOAMODERBaseEES4_Lj2EE3SetIS3_vEEvv
          CFI Block cfiBlock136 Using cfiCommon0
          CFI Function _ZN14FieldValueBaseI26GPIOA_MODER_MODER15_ValuesIN5GPIOA5MODERELj6ELj2E13ReadWriteModeNS1_14GPIOAMODERBaseEES4_Lj2EE3SetIS3_vEEvv
          CFI NoCalls
        THUMB
// __interwork __vfp void FieldValueBase<GPIOA_MODER_MODER15_Values<GPIOA::MODER, 6U, 2U, ReadWriteMode, GPIOA::GPIOAMODERBase>, GPIOA::GPIOAMODERBase, 2U>::Set<ReadWriteMode, void>()
_ZN14FieldValueBaseI26GPIOA_MODER_MODER15_ValuesIN5GPIOA5MODERELj6ELj2E13ReadWriteModeNS1_14GPIOAMODERBaseEES4_Lj2EE3SetIS3_vEEvv:
        LDR.N    R1,??Set_13      ;; 0x40020000
        LDR      R0,[R1, #+0]
        BICS     R0,R0,#0xC0
        ORRS     R0,R0,#0x80
        STR      R0,[R1, #+0]
        BX       LR               ;; return
        DATA
??Set_13:
        DATA32
        DC32     0x40020000
          CFI EndBlock cfiBlock136

        SECTION `.text`:CODE:REORDER:NOROOT(2)
        SECTION_GROUP _ZN14FieldValueBaseI26GPIOA_MODER_MODER15_ValuesIN5GPIOA5MODERELj4ELj2E13ReadWriteModeNS1_14GPIOAMODERBaseEES4_Lj2EE3SetIS3_vEEvv
          CFI Block cfiBlock137 Using cfiCommon0
          CFI Function _ZN14FieldValueBaseI26GPIOA_MODER_MODER15_ValuesIN5GPIOA5MODERELj4ELj2E13ReadWriteModeNS1_14GPIOAMODERBaseEES4_Lj2EE3SetIS3_vEEvv
          CFI NoCalls
        THUMB
// __interwork __vfp void FieldValueBase<GPIOA_MODER_MODER15_Values<GPIOA::MODER, 4U, 2U, ReadWriteMode, GPIOA::GPIOAMODERBase>, GPIOA::GPIOAMODERBase, 2U>::Set<ReadWriteMode, void>()
_ZN14FieldValueBaseI26GPIOA_MODER_MODER15_ValuesIN5GPIOA5MODERELj4ELj2E13ReadWriteModeNS1_14GPIOAMODERBaseEES4_Lj2EE3SetIS3_vEEvv:
        LDR.N    R1,??Set_14      ;; 0x40020000
        LDR      R0,[R1, #+0]
        BICS     R0,R0,#0x30
        ORRS     R0,R0,#0x20
        STR      R0,[R1, #+0]
        BX       LR               ;; return
        DATA
??Set_14:
        DATA32
        DC32     0x40020000
          CFI EndBlock cfiBlock137

        SECTION `.text`:CODE:REORDER:NOROOT(2)
        SECTION_GROUP _ZN14FieldValueBaseI23GPIOA_AFRL_AFRL7_ValuesIN5GPIOA4AFRLELj12ELj4E13ReadWriteModeNS1_13GPIOAAFRLBaseEES4_Lj7EE3SetIS3_vEEvv
          CFI Block cfiBlock138 Using cfiCommon0
          CFI Function _ZN14FieldValueBaseI23GPIOA_AFRL_AFRL7_ValuesIN5GPIOA4AFRLELj12ELj4E13ReadWriteModeNS1_13GPIOAAFRLBaseEES4_Lj7EE3SetIS3_vEEvv
          CFI NoCalls
        THUMB
// __interwork __vfp void FieldValueBase<GPIOA_AFRL_AFRL7_Values<GPIOA::AFRL, 12U, 4U, ReadWriteMode, GPIOA::GPIOAAFRLBase>, GPIOA::GPIOAAFRLBase, 7U>::Set<ReadWriteMode, void>()
_ZN14FieldValueBaseI23GPIOA_AFRL_AFRL7_ValuesIN5GPIOA4AFRLELj12ELj4E13ReadWriteModeNS1_13GPIOAAFRLBaseEES4_Lj7EE3SetIS3_vEEvv:
        LDR.N    R1,??Set_15      ;; 0x40020020
        LDR      R0,[R1, #+0]
        BICS     R0,R0,#0xF000
        ORRS     R0,R0,#0x7000
        STR      R0,[R1, #+0]
        BX       LR               ;; return
        DATA
??Set_15:
        DATA32
        DC32     0x40020020
          CFI EndBlock cfiBlock138

        SECTION `.text`:CODE:REORDER:NOROOT(2)
        SECTION_GROUP _ZN14FieldValueBaseI23GPIOA_AFRL_AFRL7_ValuesIN5GPIOA4AFRLELj8ELj4E13ReadWriteModeNS1_13GPIOAAFRLBaseEES4_Lj7EE3SetIS3_vEEvv
          CFI Block cfiBlock139 Using cfiCommon0
          CFI Function _ZN14FieldValueBaseI23GPIOA_AFRL_AFRL7_ValuesIN5GPIOA4AFRLELj8ELj4E13ReadWriteModeNS1_13GPIOAAFRLBaseEES4_Lj7EE3SetIS3_vEEvv
          CFI NoCalls
        THUMB
// __interwork __vfp void FieldValueBase<GPIOA_AFRL_AFRL7_Values<GPIOA::AFRL, 8U, 4U, ReadWriteMode, GPIOA::GPIOAAFRLBase>, GPIOA::GPIOAAFRLBase, 7U>::Set<ReadWriteMode, void>()
_ZN14FieldValueBaseI23GPIOA_AFRL_AFRL7_ValuesIN5GPIOA4AFRLELj8ELj4E13ReadWriteModeNS1_13GPIOAAFRLBaseEES4_Lj7EE3SetIS3_vEEvv:
        LDR.N    R1,??Set_16      ;; 0x40020020
        LDR      R0,[R1, #+0]
        BICS     R0,R0,#0xF00
        ORRS     R0,R0,#0x700
        STR      R0,[R1, #+0]
        BX       LR               ;; return
        DATA
??Set_16:
        DATA32
        DC32     0x40020020
          CFI EndBlock cfiBlock139

        SECTION `.text`:CODE:REORDER:NOROOT(2)
        SECTION_GROUP _ZN14FieldValueBaseI26GPIOA_PUPDR_PUPDR15_ValuesIN5GPIOA5PUPDRELj4ELj2E13ReadWriteModeNS1_14GPIOAPUPDRBaseEES4_Lj0EE3SetIS3_vEEvv
          CFI Block cfiBlock140 Using cfiCommon0
          CFI Function _ZN14FieldValueBaseI26GPIOA_PUPDR_PUPDR15_ValuesIN5GPIOA5PUPDRELj4ELj2E13ReadWriteModeNS1_14GPIOAPUPDRBaseEES4_Lj0EE3SetIS3_vEEvv
          CFI NoCalls
        THUMB
// __interwork __vfp void FieldValueBase<GPIOA_PUPDR_PUPDR15_Values<GPIOA::PUPDR, 4U, 2U, ReadWriteMode, GPIOA::GPIOAPUPDRBase>, GPIOA::GPIOAPUPDRBase, 0U>::Set<ReadWriteMode, void>()
_ZN14FieldValueBaseI26GPIOA_PUPDR_PUPDR15_ValuesIN5GPIOA5PUPDRELj4ELj2E13ReadWriteModeNS1_14GPIOAPUPDRBaseEES4_Lj0EE3SetIS3_vEEvv:
        LDR.N    R1,??Set_17      ;; 0x4002000c
        LDR      R0,[R1, #+0]
        BICS     R0,R0,#0x30
        STR      R0,[R1, #+0]
        BX       LR               ;; return
        DATA
??Set_17:
        DATA32
        DC32     0x4002000c
          CFI EndBlock cfiBlock140

        SECTION `.text`:CODE:REORDER:NOROOT(2)
        SECTION_GROUP _ZN14FieldValueBaseI26GPIOA_PUPDR_PUPDR15_ValuesIN5GPIOA5PUPDRELj6ELj2E13ReadWriteModeNS1_14GPIOAPUPDRBaseEES4_Lj1EE3SetIS3_vEEvv
          CFI Block cfiBlock141 Using cfiCommon0
          CFI Function _ZN14FieldValueBaseI26GPIOA_PUPDR_PUPDR15_ValuesIN5GPIOA5PUPDRELj6ELj2E13ReadWriteModeNS1_14GPIOAPUPDRBaseEES4_Lj1EE3SetIS3_vEEvv
          CFI NoCalls
        THUMB
// __interwork __vfp void FieldValueBase<GPIOA_PUPDR_PUPDR15_Values<GPIOA::PUPDR, 6U, 2U, ReadWriteMode, GPIOA::GPIOAPUPDRBase>, GPIOA::GPIOAPUPDRBase, 1U>::Set<ReadWriteMode, void>()
_ZN14FieldValueBaseI26GPIOA_PUPDR_PUPDR15_ValuesIN5GPIOA5PUPDRELj6ELj2E13ReadWriteModeNS1_14GPIOAPUPDRBaseEES4_Lj1EE3SetIS3_vEEvv:
        LDR.N    R1,??Set_18      ;; 0x4002000c
        LDR      R0,[R1, #+0]
        BICS     R0,R0,#0xC0
        ORRS     R0,R0,#0x40
        STR      R0,[R1, #+0]
        BX       LR               ;; return
        DATA
??Set_18:
        DATA32
        DC32     0x4002000c
          CFI EndBlock cfiBlock141

        SECTION `.text`:CODE:REORDER:NOROOT(2)
        SECTION_GROUP _ZN14FieldValueBaseI23USART2_CR1_OVER8_ValuesIN6USART23CR1ELj15ELj1E13ReadWriteModeNS1_13USART2CR1BaseEES4_Lj0EE3SetIS3_vEEvv
          CFI Block cfiBlock142 Using cfiCommon0
          CFI Function _ZN14FieldValueBaseI23USART2_CR1_OVER8_ValuesIN6USART23CR1ELj15ELj1E13ReadWriteModeNS1_13USART2CR1BaseEES4_Lj0EE3SetIS3_vEEvv
          CFI NoCalls
        THUMB
// __interwork __vfp void FieldValueBase<USART2_CR1_OVER8_Values<USART2::CR1, 15U, 1U, ReadWriteMode, USART2::USART2CR1Base>, USART2::USART2CR1Base, 0U>::Set<ReadWriteMode, void>()
_ZN14FieldValueBaseI23USART2_CR1_OVER8_ValuesIN6USART23CR1ELj15ELj1E13ReadWriteModeNS1_13USART2CR1BaseEES4_Lj0EE3SetIS3_vEEvv:
        LDR.N    R1,??Set_19      ;; 0x4000440c
        LDR      R0,[R1, #+0]
        BICS     R0,R0,#0x8000
        STR      R0,[R1, #+0]
        BX       LR               ;; return
        DATA
??Set_19:
        DATA32
        DC32     0x4000440c
          CFI EndBlock cfiBlock142

        SECTION `.text`:CODE:REORDER:NOROOT(2)
        SECTION_GROUP _ZN14FieldValueBaseI19USART2_CR1_M_ValuesIN6USART23CR1ELj12ELj1E13ReadWriteModeNS1_13USART2CR1BaseEES4_Lj0EE3SetIS3_vEEvv
          CFI Block cfiBlock143 Using cfiCommon0
          CFI Function _ZN14FieldValueBaseI19USART2_CR1_M_ValuesIN6USART23CR1ELj12ELj1E13ReadWriteModeNS1_13USART2CR1BaseEES4_Lj0EE3SetIS3_vEEvv
          CFI NoCalls
        THUMB
// __interwork __vfp void FieldValueBase<USART2_CR1_M_Values<USART2::CR1, 12U, 1U, ReadWriteMode, USART2::USART2CR1Base>, USART2::USART2CR1Base, 0U>::Set<ReadWriteMode, void>()
_ZN14FieldValueBaseI19USART2_CR1_M_ValuesIN6USART23CR1ELj12ELj1E13ReadWriteModeNS1_13USART2CR1BaseEES4_Lj0EE3SetIS3_vEEvv:
        LDR.N    R1,??Set_20      ;; 0x4000440c
        LDR      R0,[R1, #+0]
        BICS     R0,R0,#0x1000
        STR      R0,[R1, #+0]
        BX       LR               ;; return
        DATA
??Set_20:
        DATA32
        DC32     0x4000440c
          CFI EndBlock cfiBlock143

        SECTION `.text`:CODE:REORDER:NOROOT(2)
        SECTION_GROUP _ZN14FieldValueBaseI22USART2_CR2_STOP_ValuesIN6USART23CR2ELj12ELj2E13ReadWriteModeNS1_13USART2CR2BaseEES4_Lj0EE3SetIS3_vEEvv
          CFI Block cfiBlock144 Using cfiCommon0
          CFI Function _ZN14FieldValueBaseI22USART2_CR2_STOP_ValuesIN6USART23CR2ELj12ELj2E13ReadWriteModeNS1_13USART2CR2BaseEES4_Lj0EE3SetIS3_vEEvv
          CFI NoCalls
        THUMB
// __interwork __vfp void FieldValueBase<USART2_CR2_STOP_Values<USART2::CR2, 12U, 2U, ReadWriteMode, USART2::USART2CR2Base>, USART2::USART2CR2Base, 0U>::Set<ReadWriteMode, void>()
_ZN14FieldValueBaseI22USART2_CR2_STOP_ValuesIN6USART23CR2ELj12ELj2E13ReadWriteModeNS1_13USART2CR2BaseEES4_Lj0EE3SetIS3_vEEvv:
        LDR.N    R1,??Set_21      ;; 0x40004410
        LDR      R0,[R1, #+0]
        BICS     R0,R0,#0x3000
        STR      R0,[R1, #+0]
        BX       LR               ;; return
        DATA
??Set_21:
        DATA32
        DC32     0x40004410
          CFI EndBlock cfiBlock144

        SECTION `.text`:CODE:REORDER:NOROOT(2)
        SECTION_GROUP _ZN14FieldValueBaseI21USART2_CR1_PCE_ValuesIN6USART23CR1ELj10ELj1E13ReadWriteModeNS1_13USART2CR1BaseEES4_Lj0EE3SetIS3_vEEvv
          CFI Block cfiBlock145 Using cfiCommon0
          CFI Function _ZN14FieldValueBaseI21USART2_CR1_PCE_ValuesIN6USART23CR1ELj10ELj1E13ReadWriteModeNS1_13USART2CR1BaseEES4_Lj0EE3SetIS3_vEEvv
          CFI NoCalls
        THUMB
// __interwork __vfp void FieldValueBase<USART2_CR1_PCE_Values<USART2::CR1, 10U, 1U, ReadWriteMode, USART2::USART2CR1Base>, USART2::USART2CR1Base, 0U>::Set<ReadWriteMode, void>()
_ZN14FieldValueBaseI21USART2_CR1_PCE_ValuesIN6USART23CR1ELj10ELj1E13ReadWriteModeNS1_13USART2CR1BaseEES4_Lj0EE3SetIS3_vEEvv:
        LDR.N    R1,??Set_22      ;; 0x4000440c
        LDR      R0,[R1, #+0]
        BICS     R0,R0,#0x400
        STR      R0,[R1, #+0]
        BX       LR               ;; return
        DATA
??Set_22:
        DATA32
        DC32     0x4000440c
          CFI EndBlock cfiBlock145

        SECTION `.text`:CODE:REORDER:NOROOT(2)
        SECTION_GROUP _ZN14FieldValueBaseI20USART2_CR1_RE_ValuesIN6USART23CR1ELj2ELj1E13ReadWriteModeNS1_13USART2CR1BaseEES4_Lj1EE3SetIS3_vEEvv
          CFI Block cfiBlock146 Using cfiCommon0
          CFI Function _ZN14FieldValueBaseI20USART2_CR1_RE_ValuesIN6USART23CR1ELj2ELj1E13ReadWriteModeNS1_13USART2CR1BaseEES4_Lj1EE3SetIS3_vEEvv
          CFI NoCalls
        THUMB
// __interwork __vfp void FieldValueBase<USART2_CR1_RE_Values<USART2::CR1, 2U, 1U, ReadWriteMode, USART2::USART2CR1Base>, USART2::USART2CR1Base, 1U>::Set<ReadWriteMode, void>()
_ZN14FieldValueBaseI20USART2_CR1_RE_ValuesIN6USART23CR1ELj2ELj1E13ReadWriteModeNS1_13USART2CR1BaseEES4_Lj1EE3SetIS3_vEEvv:
        LDR.N    R1,??Set_23      ;; 0x4000440c
        LDR      R0,[R1, #+0]
        BICS     R0,R0,#0x4
        ORRS     R0,R0,#0x4
        STR      R0,[R1, #+0]
        BX       LR               ;; return
        DATA
??Set_23:
        DATA32
        DC32     0x4000440c
          CFI EndBlock cfiBlock146

        SECTION `.text`:CODE:REORDER:NOROOT(2)
        SECTION_GROUP _ZN14FieldValueBaseI24USART2_CR1_RXNEIE_ValuesIN6USART23CR1ELj5ELj1E13ReadWriteModeNS1_13USART2CR1BaseEES4_Lj1EE3SetIS3_vEEvv
          CFI Block cfiBlock147 Using cfiCommon0
          CFI Function _ZN14FieldValueBaseI24USART2_CR1_RXNEIE_ValuesIN6USART23CR1ELj5ELj1E13ReadWriteModeNS1_13USART2CR1BaseEES4_Lj1EE3SetIS3_vEEvv
          CFI NoCalls
        THUMB
// __interwork __vfp void FieldValueBase<USART2_CR1_RXNEIE_Values<USART2::CR1, 5U, 1U, ReadWriteMode, USART2::USART2CR1Base>, USART2::USART2CR1Base, 1U>::Set<ReadWriteMode, void>()
_ZN14FieldValueBaseI24USART2_CR1_RXNEIE_ValuesIN6USART23CR1ELj5ELj1E13ReadWriteModeNS1_13USART2CR1BaseEES4_Lj1EE3SetIS3_vEEvv:
        LDR.N    R1,??Set_24      ;; 0x4000440c
        LDR      R0,[R1, #+0]
        BICS     R0,R0,#0x20
        ORRS     R0,R0,#0x20
        STR      R0,[R1, #+0]
        BX       LR               ;; return
        DATA
??Set_24:
        DATA32
        DC32     0x4000440c
          CFI EndBlock cfiBlock147

        SECTION `.text`:CODE:REORDER:NOROOT(2)
        SECTION_GROUP _ZN14FieldValueBaseI26RCC_AHB1ENR_GPIOCEN_ValuesIN3RCC7AHB1ENRELj2ELj1E13ReadWriteModeNS1_14RCCAHB1ENRBaseEES4_Lj1EE3SetIS3_vEEvv
          CFI Block cfiBlock148 Using cfiCommon0
          CFI Function _ZN14FieldValueBaseI26RCC_AHB1ENR_GPIOCEN_ValuesIN3RCC7AHB1ENRELj2ELj1E13ReadWriteModeNS1_14RCCAHB1ENRBaseEES4_Lj1EE3SetIS3_vEEvv
          CFI NoCalls
        THUMB
// __interwork __vfp void FieldValueBase<RCC_AHB1ENR_GPIOCEN_Values<RCC::AHB1ENR, 2U, 1U, ReadWriteMode, RCC::RCCAHB1ENRBase>, RCC::RCCAHB1ENRBase, 1U>::Set<ReadWriteMode, void>()
_ZN14FieldValueBaseI26RCC_AHB1ENR_GPIOCEN_ValuesIN3RCC7AHB1ENRELj2ELj1E13ReadWriteModeNS1_14RCCAHB1ENRBaseEES4_Lj1EE3SetIS3_vEEvv:
        LDR.N    R1,??Set_25      ;; 0x40023830
        LDR      R0,[R1, #+0]
        BICS     R0,R0,#0x4
        ORRS     R0,R0,#0x4
        STR      R0,[R1, #+0]
        BX       LR               ;; return
        DATA
??Set_25:
        DATA32
        DC32     0x40023830
          CFI EndBlock cfiBlock148

        SECTION `.text`:CODE:REORDER:NOROOT(2)
        SECTION_GROUP _ZN14FieldValueBaseI25RCC_AHB1ENR_DMA2EN_ValuesIN3RCC7APB1ENRELj14ELj1E13ReadWriteModeNS1_14RCCAPB1ENRBaseEES4_Lj1EE3SetIS3_vEEvv
          CFI Block cfiBlock149 Using cfiCommon0
          CFI Function _ZN14FieldValueBaseI25RCC_AHB1ENR_DMA2EN_ValuesIN3RCC7APB1ENRELj14ELj1E13ReadWriteModeNS1_14RCCAPB1ENRBaseEES4_Lj1EE3SetIS3_vEEvv
          CFI NoCalls
        THUMB
// __interwork __vfp void FieldValueBase<RCC_AHB1ENR_DMA2EN_Values<RCC::APB1ENR, 14U, 1U, ReadWriteMode, RCC::RCCAPB1ENRBase>, RCC::RCCAPB1ENRBase, 1U>::Set<ReadWriteMode, void>()
_ZN14FieldValueBaseI25RCC_AHB1ENR_DMA2EN_ValuesIN3RCC7APB1ENRELj14ELj1E13ReadWriteModeNS1_14RCCAPB1ENRBaseEES4_Lj1EE3SetIS3_vEEvv:
        LDR.N    R1,??Set_26      ;; 0x40023840
        LDR      R0,[R1, #+0]
        BICS     R0,R0,#0x4000
        ORRS     R0,R0,#0x4000
        STR      R0,[R1, #+0]
        BX       LR               ;; return
        DATA
??Set_26:
        DATA32
        DC32     0x40023840
          CFI EndBlock cfiBlock149

        SECTION `.text`:CODE:REORDER:NOROOT(2)
        SECTION_GROUP _ZN14FieldValueBaseI20SPI2_CR1_MSTR_ValuesIN4SPI23CR1ELj2ELj1E13ReadWriteModeNS1_11SPI2CR1BaseEES4_Lj1EE3SetIS3_vEEvv
          CFI Block cfiBlock150 Using cfiCommon0
          CFI Function _ZN14FieldValueBaseI20SPI2_CR1_MSTR_ValuesIN4SPI23CR1ELj2ELj1E13ReadWriteModeNS1_11SPI2CR1BaseEES4_Lj1EE3SetIS3_vEEvv
          CFI NoCalls
        THUMB
// __interwork __vfp void FieldValueBase<SPI2_CR1_MSTR_Values<SPI2::CR1, 2U, 1U, ReadWriteMode, SPI2::SPI2CR1Base>, SPI2::SPI2CR1Base, 1U>::Set<ReadWriteMode, void>()
_ZN14FieldValueBaseI20SPI2_CR1_MSTR_ValuesIN4SPI23CR1ELj2ELj1E13ReadWriteModeNS1_11SPI2CR1BaseEES4_Lj1EE3SetIS3_vEEvv:
        LDR.N    R1,??Set_27      ;; 0x40003800
        LDR      R0,[R1, #+0]
        BICS     R0,R0,#0x4
        ORRS     R0,R0,#0x4
        STR      R0,[R1, #+0]
        BX       LR               ;; return
        DATA
??Set_27:
        DATA32
        DC32     0x40003800
          CFI EndBlock cfiBlock150

        SECTION `.text`:CODE:REORDER:NOROOT(2)
        SECTION_GROUP _ZN14FieldValueBaseI24SPI2_CR1_BIDIMODE_ValuesIN4SPI23CR1ELj15ELj1E13ReadWriteModeNS1_11SPI2CR1BaseEES4_Lj0EE3SetIS3_vEEvv
          CFI Block cfiBlock151 Using cfiCommon0
          CFI Function _ZN14FieldValueBaseI24SPI2_CR1_BIDIMODE_ValuesIN4SPI23CR1ELj15ELj1E13ReadWriteModeNS1_11SPI2CR1BaseEES4_Lj0EE3SetIS3_vEEvv
          CFI NoCalls
        THUMB
// __interwork __vfp void FieldValueBase<SPI2_CR1_BIDIMODE_Values<SPI2::CR1, 15U, 1U, ReadWriteMode, SPI2::SPI2CR1Base>, SPI2::SPI2CR1Base, 0U>::Set<ReadWriteMode, void>()
_ZN14FieldValueBaseI24SPI2_CR1_BIDIMODE_ValuesIN4SPI23CR1ELj15ELj1E13ReadWriteModeNS1_11SPI2CR1BaseEES4_Lj0EE3SetIS3_vEEvv:
        LDR.N    R1,??Set_28      ;; 0x40003800
        LDR      R0,[R1, #+0]
        BICS     R0,R0,#0x8000
        STR      R0,[R1, #+0]
        BX       LR               ;; return
        DATA
??Set_28:
        DATA32
        DC32     0x40003800
          CFI EndBlock cfiBlock151

        SECTION `.text`:CODE:REORDER:NOROOT(2)
        SECTION_GROUP _ZN14FieldValueBaseI19SPI2_CR1_DFF_ValuesIN4SPI23CR1ELj11ELj1E13ReadWriteModeNS1_11SPI2CR1BaseEES4_Lj0EE3SetIS3_vEEvv
          CFI Block cfiBlock152 Using cfiCommon0
          CFI Function _ZN14FieldValueBaseI19SPI2_CR1_DFF_ValuesIN4SPI23CR1ELj11ELj1E13ReadWriteModeNS1_11SPI2CR1BaseEES4_Lj0EE3SetIS3_vEEvv
          CFI NoCalls
        THUMB
// __interwork __vfp void FieldValueBase<SPI2_CR1_DFF_Values<SPI2::CR1, 11U, 1U, ReadWriteMode, SPI2::SPI2CR1Base>, SPI2::SPI2CR1Base, 0U>::Set<ReadWriteMode, void>()
_ZN14FieldValueBaseI19SPI2_CR1_DFF_ValuesIN4SPI23CR1ELj11ELj1E13ReadWriteModeNS1_11SPI2CR1BaseEES4_Lj0EE3SetIS3_vEEvv:
        LDR.N    R1,??Set_29      ;; 0x40003800
        LDR      R0,[R1, #+0]
        BICS     R0,R0,#0x800
        STR      R0,[R1, #+0]
        BX       LR               ;; return
        DATA
??Set_29:
        DATA32
        DC32     0x40003800
          CFI EndBlock cfiBlock152

        SECTION `.text`:CODE:REORDER:NOROOT(2)
        SECTION_GROUP _ZN14FieldValueBaseI20SPI2_CR1_CPOL_ValuesIN4SPI23CR1ELj1ELj1E13ReadWriteModeNS1_11SPI2CR1BaseEES4_Lj1EE3SetIS3_vEEvv
          CFI Block cfiBlock153 Using cfiCommon0
          CFI Function _ZN14FieldValueBaseI20SPI2_CR1_CPOL_ValuesIN4SPI23CR1ELj1ELj1E13ReadWriteModeNS1_11SPI2CR1BaseEES4_Lj1EE3SetIS3_vEEvv
          CFI NoCalls
        THUMB
// __interwork __vfp void FieldValueBase<SPI2_CR1_CPOL_Values<SPI2::CR1, 1U, 1U, ReadWriteMode, SPI2::SPI2CR1Base>, SPI2::SPI2CR1Base, 1U>::Set<ReadWriteMode, void>()
_ZN14FieldValueBaseI20SPI2_CR1_CPOL_ValuesIN4SPI23CR1ELj1ELj1E13ReadWriteModeNS1_11SPI2CR1BaseEES4_Lj1EE3SetIS3_vEEvv:
        LDR.N    R1,??Set_30      ;; 0x40003800
        LDR      R0,[R1, #+0]
        BICS     R0,R0,#0x2
        ORRS     R0,R0,#0x2
        STR      R0,[R1, #+0]
        BX       LR               ;; return
        DATA
??Set_30:
        DATA32
        DC32     0x40003800
          CFI EndBlock cfiBlock153

        SECTION `.text`:CODE:REORDER:NOROOT(2)
        SECTION_GROUP _ZN14FieldValueBaseI20SPI2_CR1_CPHA_ValuesIN4SPI23CR1ELj0ELj1E13ReadWriteModeNS1_11SPI2CR1BaseEES4_Lj1EE3SetIS3_vEEvv
          CFI Block cfiBlock154 Using cfiCommon0
          CFI Function _ZN14FieldValueBaseI20SPI2_CR1_CPHA_ValuesIN4SPI23CR1ELj0ELj1E13ReadWriteModeNS1_11SPI2CR1BaseEES4_Lj1EE3SetIS3_vEEvv
          CFI NoCalls
        THUMB
// __interwork __vfp void FieldValueBase<SPI2_CR1_CPHA_Values<SPI2::CR1, 0U, 1U, ReadWriteMode, SPI2::SPI2CR1Base>, SPI2::SPI2CR1Base, 1U>::Set<ReadWriteMode, void>()
_ZN14FieldValueBaseI20SPI2_CR1_CPHA_ValuesIN4SPI23CR1ELj0ELj1E13ReadWriteModeNS1_11SPI2CR1BaseEES4_Lj1EE3SetIS3_vEEvv:
        LDR.N    R1,??Set_31      ;; 0x40003800
        LDR      R0,[R1, #+0]
        LSRS     R0,R0,#+1
        LSLS     R0,R0,#+1
        ORRS     R0,R0,#0x1
        STR      R0,[R1, #+0]
        BX       LR               ;; return
        DATA
??Set_31:
        DATA32
        DC32     0x40003800
          CFI EndBlock cfiBlock154

        SECTION `.text`:CODE:REORDER:NOROOT(2)
        SECTION_GROUP _ZN14FieldValueBaseI19SPI2_CR1_SSM_ValuesIN4SPI23CR1ELj9ELj1E13ReadWriteModeNS1_11SPI2CR1BaseEES4_Lj1EE3SetIS3_vEEvv
          CFI Block cfiBlock155 Using cfiCommon0
          CFI Function _ZN14FieldValueBaseI19SPI2_CR1_SSM_ValuesIN4SPI23CR1ELj9ELj1E13ReadWriteModeNS1_11SPI2CR1BaseEES4_Lj1EE3SetIS3_vEEvv
          CFI NoCalls
        THUMB
// __interwork __vfp void FieldValueBase<SPI2_CR1_SSM_Values<SPI2::CR1, 9U, 1U, ReadWriteMode, SPI2::SPI2CR1Base>, SPI2::SPI2CR1Base, 1U>::Set<ReadWriteMode, void>()
_ZN14FieldValueBaseI19SPI2_CR1_SSM_ValuesIN4SPI23CR1ELj9ELj1E13ReadWriteModeNS1_11SPI2CR1BaseEES4_Lj1EE3SetIS3_vEEvv:
        LDR.N    R1,??Set_32      ;; 0x40003800
        LDR      R0,[R1, #+0]
        BICS     R0,R0,#0x200
        ORRS     R0,R0,#0x200
        STR      R0,[R1, #+0]
        BX       LR               ;; return
        DATA
??Set_32:
        DATA32
        DC32     0x40003800
          CFI EndBlock cfiBlock155

        SECTION `.text`:CODE:REORDER:NOROOT(2)
        SECTION_GROUP _ZN14FieldValueBaseI19SPI2_CR1_SSI_ValuesIN4SPI23CR1ELj8ELj1E13ReadWriteModeNS1_11SPI2CR1BaseEES4_Lj1EE3SetIS3_vEEvv
          CFI Block cfiBlock156 Using cfiCommon0
          CFI Function _ZN14FieldValueBaseI19SPI2_CR1_SSI_ValuesIN4SPI23CR1ELj8ELj1E13ReadWriteModeNS1_11SPI2CR1BaseEES4_Lj1EE3SetIS3_vEEvv
          CFI NoCalls
        THUMB
// __interwork __vfp void FieldValueBase<SPI2_CR1_SSI_Values<SPI2::CR1, 8U, 1U, ReadWriteMode, SPI2::SPI2CR1Base>, SPI2::SPI2CR1Base, 1U>::Set<ReadWriteMode, void>()
_ZN14FieldValueBaseI19SPI2_CR1_SSI_ValuesIN4SPI23CR1ELj8ELj1E13ReadWriteModeNS1_11SPI2CR1BaseEES4_Lj1EE3SetIS3_vEEvv:
        LDR.N    R1,??Set_33      ;; 0x40003800
        LDR      R0,[R1, #+0]
        BICS     R0,R0,#0x100
        ORRS     R0,R0,#0x100
        STR      R0,[R1, #+0]
        BX       LR               ;; return
        DATA
??Set_33:
        DATA32
        DC32     0x40003800
          CFI EndBlock cfiBlock156

        SECTION `.text`:CODE:REORDER:NOROOT(2)
        SECTION_GROUP _ZN14FieldValueBaseI18SPI2_CR1_BR_ValuesIN4SPI23CR1ELj3ELj3E13ReadWriteModeNS1_11SPI2CR1BaseEES4_Lj0EE3SetIS3_vEEvv
          CFI Block cfiBlock157 Using cfiCommon0
          CFI Function _ZN14FieldValueBaseI18SPI2_CR1_BR_ValuesIN4SPI23CR1ELj3ELj3E13ReadWriteModeNS1_11SPI2CR1BaseEES4_Lj0EE3SetIS3_vEEvv
          CFI NoCalls
        THUMB
// __interwork __vfp void FieldValueBase<SPI2_CR1_BR_Values<SPI2::CR1, 3U, 3U, ReadWriteMode, SPI2::SPI2CR1Base>, SPI2::SPI2CR1Base, 0U>::Set<ReadWriteMode, void>()
_ZN14FieldValueBaseI18SPI2_CR1_BR_ValuesIN4SPI23CR1ELj3ELj3E13ReadWriteModeNS1_11SPI2CR1BaseEES4_Lj0EE3SetIS3_vEEvv:
        LDR.N    R1,??Set_34      ;; 0x40003800
        LDR      R0,[R1, #+0]
        BICS     R0,R0,#0x38
        STR      R0,[R1, #+0]
        BX       LR               ;; return
        DATA
??Set_34:
        DATA32
        DC32     0x40003800
          CFI EndBlock cfiBlock157

        SECTION `.text`:CODE:REORDER:NOROOT(2)
        SECTION_GROUP _ZN14FieldValueBaseI24SPI2_CR1_LSBFIRST_ValuesIN4SPI23CR1ELj7ELj1E13ReadWriteModeNS1_11SPI2CR1BaseEES4_Lj0EE3SetIS3_vEEvv
          CFI Block cfiBlock158 Using cfiCommon0
          CFI Function _ZN14FieldValueBaseI24SPI2_CR1_LSBFIRST_ValuesIN4SPI23CR1ELj7ELj1E13ReadWriteModeNS1_11SPI2CR1BaseEES4_Lj0EE3SetIS3_vEEvv
          CFI NoCalls
        THUMB
// __interwork __vfp void FieldValueBase<SPI2_CR1_LSBFIRST_Values<SPI2::CR1, 7U, 1U, ReadWriteMode, SPI2::SPI2CR1Base>, SPI2::SPI2CR1Base, 0U>::Set<ReadWriteMode, void>()
_ZN14FieldValueBaseI24SPI2_CR1_LSBFIRST_ValuesIN4SPI23CR1ELj7ELj1E13ReadWriteModeNS1_11SPI2CR1BaseEES4_Lj0EE3SetIS3_vEEvv:
        LDR.N    R1,??Set_35      ;; 0x40003800
        LDR      R0,[R1, #+0]
        BICS     R0,R0,#0x80
        STR      R0,[R1, #+0]
        BX       LR               ;; return
        DATA
??Set_35:
        DATA32
        DC32     0x40003800
          CFI EndBlock cfiBlock158

        SECTION `.text`:CODE:REORDER:NOROOT(2)
        SECTION_GROUP _ZN14FieldValueBaseI21SPI2_CR1_CRCEN_ValuesIN4SPI23CR1ELj13ELj1E13ReadWriteModeNS1_11SPI2CR1BaseEES4_Lj0EE3SetIS3_vEEvv
          CFI Block cfiBlock159 Using cfiCommon0
          CFI Function _ZN14FieldValueBaseI21SPI2_CR1_CRCEN_ValuesIN4SPI23CR1ELj13ELj1E13ReadWriteModeNS1_11SPI2CR1BaseEES4_Lj0EE3SetIS3_vEEvv
          CFI NoCalls
        THUMB
// __interwork __vfp void FieldValueBase<SPI2_CR1_CRCEN_Values<SPI2::CR1, 13U, 1U, ReadWriteMode, SPI2::SPI2CR1Base>, SPI2::SPI2CR1Base, 0U>::Set<ReadWriteMode, void>()
_ZN14FieldValueBaseI21SPI2_CR1_CRCEN_ValuesIN4SPI23CR1ELj13ELj1E13ReadWriteModeNS1_11SPI2CR1BaseEES4_Lj0EE3SetIS3_vEEvv:
        LDR.N    R1,??Set_36      ;; 0x40003800
        LDR      R0,[R1, #+0]
        BICS     R0,R0,#0x2000
        STR      R0,[R1, #+0]
        BX       LR               ;; return
        DATA
??Set_36:
        DATA32
        DC32     0x40003800
          CFI EndBlock cfiBlock159

        SECTION `.text`:CODE:REORDER:NOROOT(2)
        SECTION_GROUP _ZN14FieldValueBaseI25RCC_AHB1ENR_DMA2EN_ValuesIN3RCC7APB2ENRELj12ELj1E13ReadWriteModeNS1_14RCCAPB2ENRBaseEES4_Lj1EE3SetIS3_vEEvv
          CFI Block cfiBlock160 Using cfiCommon0
          CFI Function _ZN14FieldValueBaseI25RCC_AHB1ENR_DMA2EN_ValuesIN3RCC7APB2ENRELj12ELj1E13ReadWriteModeNS1_14RCCAPB2ENRBaseEES4_Lj1EE3SetIS3_vEEvv
          CFI NoCalls
        THUMB
// __interwork __vfp void FieldValueBase<RCC_AHB1ENR_DMA2EN_Values<RCC::APB2ENR, 12U, 1U, ReadWriteMode, RCC::RCCAPB2ENRBase>, RCC::RCCAPB2ENRBase, 1U>::Set<ReadWriteMode, void>()
_ZN14FieldValueBaseI25RCC_AHB1ENR_DMA2EN_ValuesIN3RCC7APB2ENRELj12ELj1E13ReadWriteModeNS1_14RCCAPB2ENRBaseEES4_Lj1EE3SetIS3_vEEvv:
        LDR.N    R1,??Set_37      ;; 0x40023844
        LDR      R0,[R1, #+0]
        BICS     R0,R0,#0x1000
        ORRS     R0,R0,#0x1000
        STR      R0,[R1, #+0]
        BX       LR               ;; return
        DATA
??Set_37:
        DATA32
        DC32     0x40023844
          CFI EndBlock cfiBlock160

        SECTION `.text`:CODE:REORDER:NOROOT(2)
        SECTION_GROUP _ZN14FieldValueBaseI20SPI1_CR1_MSTR_ValuesIN4SPI13CR1ELj2ELj1E13ReadWriteModeNS1_11SPI1CR1BaseEES4_Lj1EE3SetIS3_vEEvv
          CFI Block cfiBlock161 Using cfiCommon0
          CFI Function _ZN14FieldValueBaseI20SPI1_CR1_MSTR_ValuesIN4SPI13CR1ELj2ELj1E13ReadWriteModeNS1_11SPI1CR1BaseEES4_Lj1EE3SetIS3_vEEvv
          CFI NoCalls
        THUMB
// __interwork __vfp void FieldValueBase<SPI1_CR1_MSTR_Values<SPI1::CR1, 2U, 1U, ReadWriteMode, SPI1::SPI1CR1Base>, SPI1::SPI1CR1Base, 1U>::Set<ReadWriteMode, void>()
_ZN14FieldValueBaseI20SPI1_CR1_MSTR_ValuesIN4SPI13CR1ELj2ELj1E13ReadWriteModeNS1_11SPI1CR1BaseEES4_Lj1EE3SetIS3_vEEvv:
        LDR.N    R1,??Set_38      ;; 0x40013000
        LDR      R0,[R1, #+0]
        BICS     R0,R0,#0x4
        ORRS     R0,R0,#0x4
        STR      R0,[R1, #+0]
        BX       LR               ;; return
        DATA
??Set_38:
        DATA32
        DC32     0x40013000
          CFI EndBlock cfiBlock161

        SECTION `.text`:CODE:REORDER:NOROOT(2)
        SECTION_GROUP _ZN14FieldValueBaseI19SPI1_CR1_DFF_ValuesIN4SPI13CR1ELj11ELj1E13ReadWriteModeNS1_11SPI1CR1BaseEES4_Lj0EE3SetIS3_vEEvv
          CFI Block cfiBlock162 Using cfiCommon0
          CFI Function _ZN14FieldValueBaseI19SPI1_CR1_DFF_ValuesIN4SPI13CR1ELj11ELj1E13ReadWriteModeNS1_11SPI1CR1BaseEES4_Lj0EE3SetIS3_vEEvv
          CFI NoCalls
        THUMB
// __interwork __vfp void FieldValueBase<SPI1_CR1_DFF_Values<SPI1::CR1, 11U, 1U, ReadWriteMode, SPI1::SPI1CR1Base>, SPI1::SPI1CR1Base, 0U>::Set<ReadWriteMode, void>()
_ZN14FieldValueBaseI19SPI1_CR1_DFF_ValuesIN4SPI13CR1ELj11ELj1E13ReadWriteModeNS1_11SPI1CR1BaseEES4_Lj0EE3SetIS3_vEEvv:
        LDR.N    R1,??Set_39      ;; 0x40013000
        LDR      R0,[R1, #+0]
        BICS     R0,R0,#0x800
        STR      R0,[R1, #+0]
        BX       LR               ;; return
        DATA
??Set_39:
        DATA32
        DC32     0x40013000
          CFI EndBlock cfiBlock162

        SECTION `.text`:CODE:REORDER:NOROOT(2)
        SECTION_GROUP _ZN14FieldValueBaseI18SPI1_CR1_BR_ValuesIN4SPI13CR1ELj3ELj3E13ReadWriteModeNS1_11SPI1CR1BaseEES4_Lj0EE3SetIS3_vEEvv
          CFI Block cfiBlock163 Using cfiCommon0
          CFI Function _ZN14FieldValueBaseI18SPI1_CR1_BR_ValuesIN4SPI13CR1ELj3ELj3E13ReadWriteModeNS1_11SPI1CR1BaseEES4_Lj0EE3SetIS3_vEEvv
          CFI NoCalls
        THUMB
// __interwork __vfp void FieldValueBase<SPI1_CR1_BR_Values<SPI1::CR1, 3U, 3U, ReadWriteMode, SPI1::SPI1CR1Base>, SPI1::SPI1CR1Base, 0U>::Set<ReadWriteMode, void>()
_ZN14FieldValueBaseI18SPI1_CR1_BR_ValuesIN4SPI13CR1ELj3ELj3E13ReadWriteModeNS1_11SPI1CR1BaseEES4_Lj0EE3SetIS3_vEEvv:
        LDR.N    R1,??Set_40      ;; 0x40013000
        LDR      R0,[R1, #+0]
        BICS     R0,R0,#0x38
        STR      R0,[R1, #+0]
        BX       LR               ;; return
        DATA
??Set_40:
        DATA32
        DC32     0x40013000
          CFI EndBlock cfiBlock163

        SECTION `.text`:CODE:REORDER:NOROOT(2)
        SECTION_GROUP _ZN14FieldValueBaseI21SPI1_CR1_CRCEN_ValuesIN4SPI13CR1ELj13ELj1E13ReadWriteModeNS1_11SPI1CR1BaseEES4_Lj0EE3SetIS3_vEEvv
          CFI Block cfiBlock164 Using cfiCommon0
          CFI Function _ZN14FieldValueBaseI21SPI1_CR1_CRCEN_ValuesIN4SPI13CR1ELj13ELj1E13ReadWriteModeNS1_11SPI1CR1BaseEES4_Lj0EE3SetIS3_vEEvv
          CFI NoCalls
        THUMB
// __interwork __vfp void FieldValueBase<SPI1_CR1_CRCEN_Values<SPI1::CR1, 13U, 1U, ReadWriteMode, SPI1::SPI1CR1Base>, SPI1::SPI1CR1Base, 0U>::Set<ReadWriteMode, void>()
_ZN14FieldValueBaseI21SPI1_CR1_CRCEN_ValuesIN4SPI13CR1ELj13ELj1E13ReadWriteModeNS1_11SPI1CR1BaseEES4_Lj0EE3SetIS3_vEEvv:
        LDR.N    R1,??Set_41      ;; 0x40013000
        LDR      R0,[R1, #+0]
        BICS     R0,R0,#0x2000
        STR      R0,[R1, #+0]
        BX       LR               ;; return
        DATA
??Set_41:
        DATA32
        DC32     0x40013000
          CFI EndBlock cfiBlock164

        SECTION `.text`:CODE:REORDER:NOROOT(2)
        SECTION_GROUP _ZN14FieldValueBaseI20SPI1_CR1_CPOL_ValuesIN4SPI13CR1ELj1ELj1E13ReadWriteModeNS1_11SPI1CR1BaseEES4_Lj1EE3SetIS3_vEEvv
          CFI Block cfiBlock165 Using cfiCommon0
          CFI Function _ZN14FieldValueBaseI20SPI1_CR1_CPOL_ValuesIN4SPI13CR1ELj1ELj1E13ReadWriteModeNS1_11SPI1CR1BaseEES4_Lj1EE3SetIS3_vEEvv
          CFI NoCalls
        THUMB
// __interwork __vfp void FieldValueBase<SPI1_CR1_CPOL_Values<SPI1::CR1, 1U, 1U, ReadWriteMode, SPI1::SPI1CR1Base>, SPI1::SPI1CR1Base, 1U>::Set<ReadWriteMode, void>()
_ZN14FieldValueBaseI20SPI1_CR1_CPOL_ValuesIN4SPI13CR1ELj1ELj1E13ReadWriteModeNS1_11SPI1CR1BaseEES4_Lj1EE3SetIS3_vEEvv:
        LDR.N    R1,??Set_42      ;; 0x40013000
        LDR      R0,[R1, #+0]
        BICS     R0,R0,#0x2
        ORRS     R0,R0,#0x2
        STR      R0,[R1, #+0]
        BX       LR               ;; return
        DATA
??Set_42:
        DATA32
        DC32     0x40013000
          CFI EndBlock cfiBlock165

        SECTION `.text`:CODE:REORDER:NOROOT(2)
        SECTION_GROUP _ZN14FieldValueBaseI20SPI1_CR1_CPHA_ValuesIN4SPI13CR1ELj0ELj1E13ReadWriteModeNS1_11SPI1CR1BaseEES4_Lj1EE3SetIS3_vEEvv
          CFI Block cfiBlock166 Using cfiCommon0
          CFI Function _ZN14FieldValueBaseI20SPI1_CR1_CPHA_ValuesIN4SPI13CR1ELj0ELj1E13ReadWriteModeNS1_11SPI1CR1BaseEES4_Lj1EE3SetIS3_vEEvv
          CFI NoCalls
        THUMB
// __interwork __vfp void FieldValueBase<SPI1_CR1_CPHA_Values<SPI1::CR1, 0U, 1U, ReadWriteMode, SPI1::SPI1CR1Base>, SPI1::SPI1CR1Base, 1U>::Set<ReadWriteMode, void>()
_ZN14FieldValueBaseI20SPI1_CR1_CPHA_ValuesIN4SPI13CR1ELj0ELj1E13ReadWriteModeNS1_11SPI1CR1BaseEES4_Lj1EE3SetIS3_vEEvv:
        LDR.N    R1,??Set_43      ;; 0x40013000
        LDR      R0,[R1, #+0]
        LSRS     R0,R0,#+1
        LSLS     R0,R0,#+1
        ORRS     R0,R0,#0x1
        STR      R0,[R1, #+0]
        BX       LR               ;; return
        DATA
??Set_43:
        DATA32
        DC32     0x40013000
          CFI EndBlock cfiBlock166

        SECTION `.text`:CODE:REORDER:NOROOT(2)
        SECTION_GROUP _ZN14FieldValueBaseI24SPI1_CR1_LSBFIRST_ValuesIN4SPI13CR1ELj7ELj1E13ReadWriteModeNS1_11SPI1CR1BaseEES4_Lj0EE3SetIS3_vEEvv
          CFI Block cfiBlock167 Using cfiCommon0
          CFI Function _ZN14FieldValueBaseI24SPI1_CR1_LSBFIRST_ValuesIN4SPI13CR1ELj7ELj1E13ReadWriteModeNS1_11SPI1CR1BaseEES4_Lj0EE3SetIS3_vEEvv
          CFI NoCalls
        THUMB
// __interwork __vfp void FieldValueBase<SPI1_CR1_LSBFIRST_Values<SPI1::CR1, 7U, 1U, ReadWriteMode, SPI1::SPI1CR1Base>, SPI1::SPI1CR1Base, 0U>::Set<ReadWriteMode, void>()
_ZN14FieldValueBaseI24SPI1_CR1_LSBFIRST_ValuesIN4SPI13CR1ELj7ELj1E13ReadWriteModeNS1_11SPI1CR1BaseEES4_Lj0EE3SetIS3_vEEvv:
        LDR.N    R1,??Set_44      ;; 0x40013000
        LDR      R0,[R1, #+0]
        BICS     R0,R0,#0x80
        STR      R0,[R1, #+0]
        BX       LR               ;; return
        DATA
??Set_44:
        DATA32
        DC32     0x40013000
          CFI EndBlock cfiBlock167

        SECTION `.text`:CODE:REORDER:NOROOT(2)
        SECTION_GROUP _ZN14FieldValueBaseI20SPI1_CR2_SSOE_ValuesIN4SPI13CR2ELj2ELj1E13ReadWriteModeNS1_11SPI1CR2BaseEES4_Lj1EE3SetIS3_vEEvv
          CFI Block cfiBlock168 Using cfiCommon0
          CFI Function _ZN14FieldValueBaseI20SPI1_CR2_SSOE_ValuesIN4SPI13CR2ELj2ELj1E13ReadWriteModeNS1_11SPI1CR2BaseEES4_Lj1EE3SetIS3_vEEvv
          CFI NoCalls
        THUMB
// __interwork __vfp void FieldValueBase<SPI1_CR2_SSOE_Values<SPI1::CR2, 2U, 1U, ReadWriteMode, SPI1::SPI1CR2Base>, SPI1::SPI1CR2Base, 1U>::Set<ReadWriteMode, void>()
_ZN14FieldValueBaseI20SPI1_CR2_SSOE_ValuesIN4SPI13CR2ELj2ELj1E13ReadWriteModeNS1_11SPI1CR2BaseEES4_Lj1EE3SetIS3_vEEvv:
        LDR.N    R1,??Set_45      ;; 0x40013004
        LDR      R0,[R1, #+0]
        BICS     R0,R0,#0x4
        ORRS     R0,R0,#0x4
        STR      R0,[R1, #+0]
        BX       LR               ;; return
        DATA
??Set_45:
        DATA32
        DC32     0x40013004
          CFI EndBlock cfiBlock168

        SECTION `.text`:CODE:REORDER:NOROOT(2)
        SECTION_GROUP _ZN14FieldValueBaseI19SPI1_CR1_SSM_ValuesIN4SPI13CR1ELj9ELj1E13ReadWriteModeNS1_11SPI1CR1BaseEES4_Lj1EE3SetIS3_vEEvv
          CFI Block cfiBlock169 Using cfiCommon0
          CFI Function _ZN14FieldValueBaseI19SPI1_CR1_SSM_ValuesIN4SPI13CR1ELj9ELj1E13ReadWriteModeNS1_11SPI1CR1BaseEES4_Lj1EE3SetIS3_vEEvv
          CFI NoCalls
        THUMB
// __interwork __vfp void FieldValueBase<SPI1_CR1_SSM_Values<SPI1::CR1, 9U, 1U, ReadWriteMode, SPI1::SPI1CR1Base>, SPI1::SPI1CR1Base, 1U>::Set<ReadWriteMode, void>()
_ZN14FieldValueBaseI19SPI1_CR1_SSM_ValuesIN4SPI13CR1ELj9ELj1E13ReadWriteModeNS1_11SPI1CR1BaseEES4_Lj1EE3SetIS3_vEEvv:
        LDR.N    R1,??Set_46      ;; 0x40013000
        LDR      R0,[R1, #+0]
        BICS     R0,R0,#0x200
        ORRS     R0,R0,#0x200
        STR      R0,[R1, #+0]
        BX       LR               ;; return
        DATA
??Set_46:
        DATA32
        DC32     0x40013000
          CFI EndBlock cfiBlock169

        SECTION `.text`:CODE:REORDER:NOROOT(2)
        SECTION_GROUP _ZN14FieldValueBaseI19SPI1_CR1_SSI_ValuesIN4SPI13CR1ELj8ELj1E13ReadWriteModeNS1_11SPI1CR1BaseEES4_Lj1EE3SetIS3_vEEvv
          CFI Block cfiBlock170 Using cfiCommon0
          CFI Function _ZN14FieldValueBaseI19SPI1_CR1_SSI_ValuesIN4SPI13CR1ELj8ELj1E13ReadWriteModeNS1_11SPI1CR1BaseEES4_Lj1EE3SetIS3_vEEvv
          CFI NoCalls
        THUMB
// __interwork __vfp void FieldValueBase<SPI1_CR1_SSI_Values<SPI1::CR1, 8U, 1U, ReadWriteMode, SPI1::SPI1CR1Base>, SPI1::SPI1CR1Base, 1U>::Set<ReadWriteMode, void>()
_ZN14FieldValueBaseI19SPI1_CR1_SSI_ValuesIN4SPI13CR1ELj8ELj1E13ReadWriteModeNS1_11SPI1CR1BaseEES4_Lj1EE3SetIS3_vEEvv:
        LDR.N    R1,??Set_47      ;; 0x40013000
        LDR      R0,[R1, #+0]
        BICS     R0,R0,#0x100
        ORRS     R0,R0,#0x100
        STR      R0,[R1, #+0]
        BX       LR               ;; return
        DATA
??Set_47:
        DATA32
        DC32     0x40013000
          CFI EndBlock cfiBlock170

        SECTION `.text`:CODE:REORDER:NOROOT(2)
        SECTION_GROUP _ZN14FieldValueBaseI22SPI1_CR2_RXNEIE_ValuesIN4SPI13CR2ELj6ELj1E13ReadWriteModeNS1_11SPI1CR2BaseEES4_Lj1EE3SetIS3_vEEvv
          CFI Block cfiBlock171 Using cfiCommon0
          CFI Function _ZN14FieldValueBaseI22SPI1_CR2_RXNEIE_ValuesIN4SPI13CR2ELj6ELj1E13ReadWriteModeNS1_11SPI1CR2BaseEES4_Lj1EE3SetIS3_vEEvv
          CFI NoCalls
        THUMB
// __interwork __vfp void FieldValueBase<SPI1_CR2_RXNEIE_Values<SPI1::CR2, 6U, 1U, ReadWriteMode, SPI1::SPI1CR2Base>, SPI1::SPI1CR2Base, 1U>::Set<ReadWriteMode, void>()
_ZN14FieldValueBaseI22SPI1_CR2_RXNEIE_ValuesIN4SPI13CR2ELj6ELj1E13ReadWriteModeNS1_11SPI1CR2BaseEES4_Lj1EE3SetIS3_vEEvv:
        LDR.N    R1,??Set_48      ;; 0x40013004
        LDR      R0,[R1, #+0]
        BICS     R0,R0,#0x40
        ORRS     R0,R0,#0x40
        STR      R0,[R1, #+0]
        BX       LR               ;; return
        DATA
??Set_48:
        DATA32
        DC32     0x40013004
          CFI EndBlock cfiBlock171

        SECTION `.text`:CODE:REORDER:NOROOT(2)
        SECTION_GROUP _ZN14FieldValueBaseI21SPI1_CR2_TXEIE_ValuesIN4SPI13CR2ELj7ELj1E13ReadWriteModeNS1_11SPI1CR2BaseEES4_Lj1EE3SetIS3_vEEvv
          CFI Block cfiBlock172 Using cfiCommon0
          CFI Function _ZN14FieldValueBaseI21SPI1_CR2_TXEIE_ValuesIN4SPI13CR2ELj7ELj1E13ReadWriteModeNS1_11SPI1CR2BaseEES4_Lj1EE3SetIS3_vEEvv
          CFI NoCalls
        THUMB
// __interwork __vfp void FieldValueBase<SPI1_CR2_TXEIE_Values<SPI1::CR2, 7U, 1U, ReadWriteMode, SPI1::SPI1CR2Base>, SPI1::SPI1CR2Base, 1U>::Set<ReadWriteMode, void>()
_ZN14FieldValueBaseI21SPI1_CR2_TXEIE_ValuesIN4SPI13CR2ELj7ELj1E13ReadWriteModeNS1_11SPI1CR2BaseEES4_Lj1EE3SetIS3_vEEvv:
        LDR.N    R1,??Set_49      ;; 0x40013004
        LDR      R0,[R1, #+0]
        BICS     R0,R0,#0x80
        ORRS     R0,R0,#0x80
        STR      R0,[R1, #+0]
        BX       LR               ;; return
        DATA
??Set_49:
        DATA32
        DC32     0x40013004
          CFI EndBlock cfiBlock172

        SECTION `.text`:CODE:REORDER:NOROOT(2)
        SECTION_GROUP _ZN14FieldValueBaseI21GPIOB_BSRR_BS1_ValuesIN5GPIOB4BSRRELj1ELj1E9WriteModeNS1_13GPIOBBSRRBaseEES4_Lj1EE5WriteIS3_vEEvv
          CFI Block cfiBlock173 Using cfiCommon0
          CFI Function _ZN14FieldValueBaseI21GPIOB_BSRR_BS1_ValuesIN5GPIOB4BSRRELj1ELj1E9WriteModeNS1_13GPIOBBSRRBaseEES4_Lj1EE5WriteIS3_vEEvv
          CFI NoCalls
        THUMB
// __interwork __vfp void FieldValueBase<GPIOB_BSRR_BS1_Values<GPIOB::BSRR, 1U, 1U, WriteMode, GPIOB::GPIOBBSRRBase>, GPIOB::GPIOBBSRRBase, 1U>::Write<WriteMode, void>()
_ZN14FieldValueBaseI21GPIOB_BSRR_BS1_ValuesIN5GPIOB4BSRRELj1ELj1E9WriteModeNS1_13GPIOBBSRRBaseEES4_Lj1EE5WriteIS3_vEEvv:
        MOVS     R0,#+2
        LDR.N    R1,??Write_0     ;; 0x40020418
        STR      R0,[R1, #+0]
        BX       LR               ;; return
        DATA
??Write_0:
        DATA32
        DC32     0x40020418
          CFI EndBlock cfiBlock173

        SECTION `.text`:CODE:REORDER:NOROOT(2)
        SECTION_GROUP _ZN14FieldValueBaseI22GPIOB_BSRR_BS10_ValuesIN5GPIOB4BSRRELj10ELj1E9WriteModeNS1_13GPIOBBSRRBaseEES4_Lj1EE5WriteIS3_vEEvv
          CFI Block cfiBlock174 Using cfiCommon0
          CFI Function _ZN14FieldValueBaseI22GPIOB_BSRR_BS10_ValuesIN5GPIOB4BSRRELj10ELj1E9WriteModeNS1_13GPIOBBSRRBaseEES4_Lj1EE5WriteIS3_vEEvv
          CFI NoCalls
        THUMB
// __interwork __vfp void FieldValueBase<GPIOB_BSRR_BS10_Values<GPIOB::BSRR, 10U, 1U, WriteMode, GPIOB::GPIOBBSRRBase>, GPIOB::GPIOBBSRRBase, 1U>::Write<WriteMode, void>()
_ZN14FieldValueBaseI22GPIOB_BSRR_BS10_ValuesIN5GPIOB4BSRRELj10ELj1E9WriteModeNS1_13GPIOBBSRRBaseEES4_Lj1EE5WriteIS3_vEEvv:
        MOV      R0,#+1024
        LDR.N    R1,??Write_1     ;; 0x40020418
        STR      R0,[R1, #+0]
        BX       LR               ;; return
        Nop      
        DATA
??Write_1:
        DATA32
        DC32     0x40020418
          CFI EndBlock cfiBlock174

        SECTION `.text`:CODE:REORDER:NOROOT(2)
        SECTION_GROUP _ZN14FieldValueBaseI20RCC_CR_HSIRDY_ValuesIN3RCC2CRELj1ELj1E8ReadModeNS1_9RCCCRBaseEES4_Lj0EE5IsSetIS3_vEEbv
          CFI Block cfiBlock175 Using cfiCommon0
          CFI Function _ZN14FieldValueBaseI20RCC_CR_HSIRDY_ValuesIN3RCC2CRELj1ELj1E8ReadModeNS1_9RCCCRBaseEES4_Lj0EE5IsSetIS3_vEEbv
          CFI NoCalls
        THUMB
// __interwork __vfp bool FieldValueBase<RCC_CR_HSIRDY_Values<RCC::CR, 1U, 1U, ReadMode, RCC::RCCCRBase>, RCC::RCCCRBase, 0U>::IsSet<ReadMode, void>()
_ZN14FieldValueBaseI20RCC_CR_HSIRDY_ValuesIN3RCC2CRELj1ELj1E8ReadModeNS1_9RCCCRBaseEES4_Lj0EE5IsSetIS3_vEEbv:
        LDR.N    R0,??IsSet_0     ;; 0x40023800
        LDR      R0,[R0, #+0]
        LSRS     R0,R0,#+1
        ANDS     R0,R0,#0x1
        EORS     R0,R0,#0x1
        UXTB     R0,R0            ;; ZeroExt  R0,R0,#+24,#+24
        BX       LR               ;; return
        Nop      
        DATA
??IsSet_0:
        DATA32
        DC32     0x40023800
          CFI EndBlock cfiBlock175

        SECTION `.text`:CODE:REORDER:NOROOT(2)
        SECTION_GROUP _ZN14FieldValueBaseI19RCC_CFGR_SWS_ValuesIN3RCC4CFGRELj2ELj2E8ReadModeNS1_11RCCCFGRBaseEES4_Lj0EE5IsSetIS3_vEEbv
          CFI Block cfiBlock176 Using cfiCommon0
          CFI Function _ZN14FieldValueBaseI19RCC_CFGR_SWS_ValuesIN3RCC4CFGRELj2ELj2E8ReadModeNS1_11RCCCFGRBaseEES4_Lj0EE5IsSetIS3_vEEbv
          CFI NoCalls
        THUMB
// __interwork __vfp bool FieldValueBase<RCC_CFGR_SWS_Values<RCC::CFGR, 2U, 2U, ReadMode, RCC::RCCCFGRBase>, RCC::RCCCFGRBase, 0U>::IsSet<ReadMode, void>()
_ZN14FieldValueBaseI19RCC_CFGR_SWS_ValuesIN3RCC4CFGRELj2ELj2E8ReadModeNS1_11RCCCFGRBaseEES4_Lj0EE5IsSetIS3_vEEbv:
        LDR.N    R0,??IsSet_1     ;; 0x40023808
        LDR      R0,[R0, #+0]
        TST      R0,#0xC
        BNE.N    ??IsSet_3
        MOVS     R0,#+1
        B.N      ??IsSet_4
??IsSet_3:
        MOVS     R0,#+0
??IsSet_4:
        UXTB     R0,R0            ;; ZeroExt  R0,R0,#+24,#+24
        BX       LR               ;; return
        DATA
??IsSet_1:
        DATA32
        DC32     0x40023808
          CFI EndBlock cfiBlock176

        SECTION `.text`:CODE:REORDER:NOROOT(2)
        SECTION_GROUP _ZN14FieldValueBaseI26RCC_AHB1ENR_GPIOCEN_ValuesIN3RCC7AHB1ENRELj2ELj1E13ReadWriteModeNS1_14RCCAHB1ENRBaseEES4_Lj1EE5IsSetIS3_vEEbv
          CFI Block cfiBlock177 Using cfiCommon0
          CFI Function _ZN14FieldValueBaseI26RCC_AHB1ENR_GPIOCEN_ValuesIN3RCC7AHB1ENRELj2ELj1E13ReadWriteModeNS1_14RCCAHB1ENRBaseEES4_Lj1EE5IsSetIS3_vEEbv
          CFI NoCalls
        THUMB
// __interwork __vfp bool FieldValueBase<RCC_AHB1ENR_GPIOCEN_Values<RCC::AHB1ENR, 2U, 1U, ReadWriteMode, RCC::RCCAHB1ENRBase>, RCC::RCCAHB1ENRBase, 1U>::IsSet<ReadWriteMode, void>()
_ZN14FieldValueBaseI26RCC_AHB1ENR_GPIOCEN_ValuesIN3RCC7AHB1ENRELj2ELj1E13ReadWriteModeNS1_14RCCAHB1ENRBaseEES4_Lj1EE5IsSetIS3_vEEbv:
        LDR.N    R0,??IsSet_2     ;; 0x40023830
        LDR      R0,[R0, #+0]
        LSRS     R0,R0,#+2
        ANDS     R0,R0,#0x1
        BX       LR               ;; return
        DATA
??IsSet_2:
        DATA32
        DC32     0x40023830
          CFI EndBlock cfiBlock177

        SECTION `.text`:CODE:REORDER:NOROOT(2)
        SECTION_GROUP _ZN12RegisterBaseILj1073874944ELj32E13ReadWriteModeE5WriteIS0_vEEvj
          CFI Block cfiBlock178 Using cfiCommon0
          CFI Function _ZN12RegisterBaseILj1073874944ELj32E13ReadWriteModeE5WriteIS0_vEEvj
          CFI NoCalls
        THUMB
// __interwork __vfp void RegisterBase<1073874944U, 32U, ReadWriteMode>::Write<ReadWriteMode, void>(uint32_t)
_ZN12RegisterBaseILj1073874944ELj32E13ReadWriteModeE5WriteIS0_vEEvj:
        LDR.N    R1,??Write_2     ;; 0x40020800
        STR      R0,[R1, #+0]
        BX       LR               ;; return
        Nop      
        DATA
??Write_2:
        DATA32
        DC32     0x40020800
          CFI EndBlock cfiBlock178

        SECTION `.text`:CODE:REORDER:NOROOT(2)
        SECTION_GROUP _ZN12RegisterBaseILj1073874968ELj32E9WriteModeE5WriteIS0_vEEvj
          CFI Block cfiBlock179 Using cfiCommon0
          CFI Function _ZN12RegisterBaseILj1073874968ELj32E9WriteModeE5WriteIS0_vEEvj
          CFI NoCalls
        THUMB
// __interwork __vfp void RegisterBase<1073874968U, 32U, WriteMode>::Write<WriteMode, void>(uint32_t)
_ZN12RegisterBaseILj1073874968ELj32E9WriteModeE5WriteIS0_vEEvj:
        LDR.N    R1,??Write_3     ;; 0x40020818
        STR      R0,[R1, #+0]
        BX       LR               ;; return
        Nop      
        DATA
??Write_3:
        DATA32
        DC32     0x40020818
          CFI EndBlock cfiBlock179

        SECTION `.text`:CODE:REORDER:NOROOT(2)
        SECTION_GROUP _ZN12RegisterBaseILj1073873944ELj32E9WriteModeE5WriteIS0_vEEvj
          CFI Block cfiBlock180 Using cfiCommon0
          CFI Function _ZN12RegisterBaseILj1073873944ELj32E9WriteModeE5WriteIS0_vEEvj
          CFI NoCalls
        THUMB
// __interwork __vfp void RegisterBase<1073873944U, 32U, WriteMode>::Write<WriteMode, void>(uint32_t)
_ZN12RegisterBaseILj1073873944ELj32E9WriteModeE5WriteIS0_vEEvj:
        LDR.N    R1,??Write_4     ;; 0x40020418
        STR      R0,[R1, #+0]
        BX       LR               ;; return
        Nop      
        DATA
??Write_4:
        DATA32
        DC32     0x40020418
          CFI EndBlock cfiBlock180

        SECTION `.text`:CODE:REORDER:NOROOT(2)
        SECTION_GROUP _ZN12RegisterBaseILj3758153988ELj32E13ReadWriteModeE5WriteIS0_vEEvj
          CFI Block cfiBlock181 Using cfiCommon0
          CFI Function _ZN12RegisterBaseILj3758153988ELj32E13ReadWriteModeE5WriteIS0_vEEvj
          CFI NoCalls
        THUMB
// __interwork __vfp void RegisterBase<3758153988U, 32U, ReadWriteMode>::Write<ReadWriteMode, void>(uint32_t)
_ZN12RegisterBaseILj3758153988ELj32E13ReadWriteModeE5WriteIS0_vEEvj:
        LDR.N    R1,??Write_5     ;; 0xe000e104
        STR      R0,[R1, #+0]
        BX       LR               ;; return
        Nop      
        DATA
??Write_5:
        DATA32
        DC32     0xe000e104
          CFI EndBlock cfiBlock181

        SECTION `.text`:CODE:REORDER:NOROOT(2)
        SECTION_GROUP _ZN12RegisterBaseILj1073874964ELj32E13ReadWriteModeE6ToggleIS0_vEEvj
          CFI Block cfiBlock182 Using cfiCommon0
          CFI Function _ZN12RegisterBaseILj1073874964ELj32E13ReadWriteModeE6ToggleIS0_vEEvj
          CFI NoCalls
        THUMB
// __interwork __vfp void RegisterBase<1073874964U, 32U, ReadWriteMode>::Toggle<ReadWriteMode, void>(uint32_t)
_ZN12RegisterBaseILj1073874964ELj32E13ReadWriteModeE6ToggleIS0_vEEvj:
        LDR.N    R1,??Toggle_0    ;; 0x40020814
        LDR      R2,[R1, #+0]
        EORS     R2,R0,R2
        STR      R2,[R1, #+0]
        BX       LR               ;; return
        Nop      
        DATA
??Toggle_0:
        DATA32
        DC32     0x40020814
          CFI EndBlock cfiBlock182

        SECTION `.text`:CODE:REORDER:NOROOT(2)
        SECTION_GROUP _ZN12RegisterBaseILj1073872916ELj32E13ReadWriteModeE6ToggleIS0_vEEvj
          CFI Block cfiBlock183 Using cfiCommon0
          CFI Function _ZN12RegisterBaseILj1073872916ELj32E13ReadWriteModeE6ToggleIS0_vEEvj
          CFI NoCalls
        THUMB
// __interwork __vfp void RegisterBase<1073872916U, 32U, ReadWriteMode>::Toggle<ReadWriteMode, void>(uint32_t)
_ZN12RegisterBaseILj1073872916ELj32E13ReadWriteModeE6ToggleIS0_vEEvj:
        LDR.N    R1,??Toggle_1    ;; 0x40020014
        LDR      R2,[R1, #+0]
        EORS     R2,R0,R2
        STR      R2,[R1, #+0]
        BX       LR               ;; return
        Nop      
        DATA
??Toggle_1:
        DATA32
        DC32     0x40020014
          CFI EndBlock cfiBlock183

        SECTION `.text`:CODE:REORDER:NOROOT(2)
        SECTION_GROUP _ZN12RegisterBaseILj1073874944ELj32E13ReadWriteModeE3GetIS0_vEEjv
          CFI Block cfiBlock184 Using cfiCommon0
          CFI Function _ZN12RegisterBaseILj1073874944ELj32E13ReadWriteModeE3GetIS0_vEEjv
          CFI NoCalls
        THUMB
// __interwork __vfp uint32_t RegisterBase<1073874944U, 32U, ReadWriteMode>::Get<ReadWriteMode, void>()
_ZN12RegisterBaseILj1073874944ELj32E13ReadWriteModeE3GetIS0_vEEjv:
        LDR.N    R0,??Get_1       ;; 0x40020800
        LDR      R0,[R0, #+0]
        BX       LR               ;; return
        Nop      
        DATA
??Get_1:
        DATA32
        DC32     0x40020800
          CFI EndBlock cfiBlock184

        SECTION `.text`:CODE:REORDER:NOROOT(2)
        SECTION_GROUP _ZN12RegisterBaseILj1073874960ELj32E8ReadModeE3GetIS0_vEEjv
          CFI Block cfiBlock185 Using cfiCommon0
          CFI Function _ZN12RegisterBaseILj1073874960ELj32E8ReadModeE3GetIS0_vEEjv
          CFI NoCalls
        THUMB
// __interwork __vfp uint32_t RegisterBase<1073874960U, 32U, ReadMode>::Get<ReadMode, void>()
_ZN12RegisterBaseILj1073874960ELj32E8ReadModeE3GetIS0_vEEjv:
        LDR.N    R0,??Get_2       ;; 0x40020810
        LDR      R0,[R0, #+0]
        BX       LR               ;; return
        Nop      
        DATA
??Get_2:
        DATA32
        DC32     0x40020810
          CFI EndBlock cfiBlock185

        SECTION `.text`:CODE:REORDER:NOROOT(2)
        SECTION_GROUP _ZN12RegisterBaseILj1073819660ELj32E13ReadWriteModeE3GetIS0_vEEjv
          CFI Block cfiBlock186 Using cfiCommon0
          CFI Function _ZN12RegisterBaseILj1073819660ELj32E13ReadWriteModeE3GetIS0_vEEjv
          CFI NoCalls
        THUMB
// __interwork __vfp uint32_t RegisterBase<1073819660U, 32U, ReadWriteMode>::Get<ReadWriteMode, void>()
_ZN12RegisterBaseILj1073819660ELj32E13ReadWriteModeE3GetIS0_vEEjv:
        LDR.N    R0,??Get_3       ;; 0x4001300c
        LDR      R0,[R0, #+0]
        BX       LR               ;; return
        Nop      
        DATA
??Get_3:
        DATA32
        DC32     0x4001300c
          CFI EndBlock cfiBlock186

        SECTION `.text`:CODE:REORDER:NOROOT(2)
        SECTION_GROUP _ZN8RegisterILj1073887280ELj32E13ReadWriteModeN3RCC14RCCAHB1ENRBaseEJ10FieldValueI26RCC_AHB1ENR_GPIOCEN_ValuesINS1_7AHB1ENRELj2ELj1ES0_S2_ES2_Lj1EvES3_I26RCC_AHB1ENR_GPIOBEN_ValuesIS5_Lj1ELj1ES0_S2_ES2_Lj1EvES3_I26RCC_AHB1ENR_GPIOAEN_ValuesIS5_Lj0ELj1ES0_S2_ES2_Lj1EvEEE3SetIS0_vEEvv
          CFI Block cfiBlock187 Using cfiCommon0
          CFI Function _ZN8RegisterILj1073887280ELj32E13ReadWriteModeN3RCC14RCCAHB1ENRBaseEJ10FieldValueI26RCC_AHB1ENR_GPIOCEN_ValuesINS1_7AHB1ENRELj2ELj1ES0_S2_ES2_Lj1EvES3_I26RCC_AHB1ENR_GPIOBEN_ValuesIS5_Lj1ELj1ES0_S2_ES2_Lj1EvES3_I26RCC_AHB1ENR_GPIOAEN_ValuesIS5_Lj0ELj1ES0_S2_ES2_Lj1EvEEE3SetIS0_vEEvv
          CFI NoCalls
        THUMB
// __interwork __vfp void Register<1073887280U, 32U, ReadWriteMode, RCC::RCCAHB1ENRBase, RCC_AHB1ENR_GPIOCEN_Values<RCC::AHB1ENR, 2U, 1U, ReadWriteMode, RCC::RCCAHB1ENRBase>::Enable, RCC_AHB1ENR_GPIOBEN_Values<RCC::AHB1ENR, 1U, 1U, ReadWriteMode, RCC::RCCAHB1ENRBase>::Enable, RCC_AHB1ENR_GPIOAEN_Values<RCC::AHB1ENR, 0U, 1U, ReadWriteMode, RCC::RCCAHB1ENRBase>::Enable>::Set<ReadWriteMode, void>()
_ZN8RegisterILj1073887280ELj32E13ReadWriteModeN3RCC14RCCAHB1ENRBaseEJ10FieldValueI26RCC_AHB1ENR_GPIOCEN_ValuesINS1_7AHB1ENRELj2ELj1ES0_S2_ES2_Lj1EvES3_I26RCC_AHB1ENR_GPIOBEN_ValuesIS5_Lj1ELj1ES0_S2_ES2_Lj1EvES3_I26RCC_AHB1ENR_GPIOAEN_ValuesIS5_Lj0ELj1ES0_S2_ES2_Lj1EvEEE3SetIS0_vEEvv:
        LDR.N    R1,??Set_50      ;; 0x40023830
        LDR      R0,[R1, #+0]
        LSRS     R0,R0,#+3
        LSLS     R0,R0,#+3
        ORRS     R0,R0,#0x7
        STR      R0,[R1, #+0]
        BX       LR               ;; return
        DATA
??Set_50:
        DATA32
        DC32     0x40023830
          CFI EndBlock cfiBlock187

        SECTION `.text`:CODE:REORDER:NOROOT(2)
        SECTION_GROUP _ZN8RegisterILj1073873920ELj32E13ReadWriteModeN5GPIOB14GPIOBMODERBaseEJ10FieldValueI26GPIOB_MODER_MODER15_ValuesINS1_5MODERELj2ELj2ES0_S2_ES2_Lj1EvES3_IS4_IS5_Lj4ELj2ES0_S2_ES2_Lj1EvES3_IS4_IS5_Lj26ELj2ES0_S2_ES2_Lj2EvES3_IS4_IS5_Lj30ELj2ES0_S2_ES2_Lj2EvEEE3SetIS0_vEEvv
          CFI Block cfiBlock188 Using cfiCommon0
          CFI Function _ZN8RegisterILj1073873920ELj32E13ReadWriteModeN5GPIOB14GPIOBMODERBaseEJ10FieldValueI26GPIOB_MODER_MODER15_ValuesINS1_5MODERELj2ELj2ES0_S2_ES2_Lj1EvES3_IS4_IS5_Lj4ELj2ES0_S2_ES2_Lj1EvES3_IS4_IS5_Lj26ELj2ES0_S2_ES2_Lj2EvES3_IS4_IS5_Lj30ELj2ES0_S2_ES2_Lj2EvEEE3SetIS0_vEEvv
          CFI NoCalls
        THUMB
// __interwork __vfp void Register<1073873920U, 32U, ReadWriteMode, GPIOB::GPIOBMODERBase, GPIOB_MODER_MODER15_Values<GPIOB::MODER, 2U, 2U, ReadWriteMode, GPIOB::GPIOBMODERBase>::Output, GPIOB_MODER_MODER15_Values<GPIOB::MODER, 4U, 2U, ReadWriteMode, GPIOB::GPIOBMODERBase>::Output, GPIOB_MODER_MODER15_Values<GPIOB::MODER, 26U, 2U, ReadWriteMode, GPIOB::GPIOBMODERBase>::Alternate, GPIOB_MODER_MODER15_Values<GPIOB::MODER, 30U, 2U, ReadWriteMode, GPIOB::GPIOBMODERBase>::Alternate>::Set<ReadWriteMode, void>()
_ZN8RegisterILj1073873920ELj32E13ReadWriteModeN5GPIOB14GPIOBMODERBaseEJ10FieldValueI26GPIOB_MODER_MODER15_ValuesINS1_5MODERELj2ELj2ES0_S2_ES2_Lj1EvES3_IS4_IS5_Lj4ELj2ES0_S2_ES2_Lj1EvES3_IS4_IS5_Lj26ELj2ES0_S2_ES2_Lj2EvES3_IS4_IS5_Lj30ELj2ES0_S2_ES2_Lj2EvEEE3SetIS0_vEEvv:
        LDR.N    R2,??Set_51      ;; 0x40020400
        LDR      R1,[R2, #+0]
        LDR.N    R0,??Set_51+0x4  ;; 0x33ffffc3
        ANDS     R1,R0,R1
        ORR      R1,R1,#0x88000000
        ORRS     R1,R1,#0x14
        STR      R1,[R2, #+0]
        BX       LR               ;; return
        DATA
??Set_51:
        DATA32
        DC32     0x40020400
        DC32     0x33ffffc3
          CFI EndBlock cfiBlock188

        SECTION `.text`:CODE:REORDER:NOROOT(2)
        SECTION_GROUP _ZN8RegisterILj1073873956ELj32E13ReadWriteModeN5GPIOB13GPIOBAFRHBaseEJ10FieldValueI23GPIOB_AFRL_AFRL7_ValuesINS1_4AFRHELj20ELj4ES0_S2_ES2_Lj5EvES3_IS4_IS5_Lj28ELj4ES0_S2_ES2_Lj5EvEEE3SetIS0_vEEvv
          CFI Block cfiBlock189 Using cfiCommon0
          CFI Function _ZN8RegisterILj1073873956ELj32E13ReadWriteModeN5GPIOB13GPIOBAFRHBaseEJ10FieldValueI23GPIOB_AFRL_AFRL7_ValuesINS1_4AFRHELj20ELj4ES0_S2_ES2_Lj5EvES3_IS4_IS5_Lj28ELj4ES0_S2_ES2_Lj5EvEEE3SetIS0_vEEvv
          CFI NoCalls
        THUMB
// __interwork __vfp void Register<1073873956U, 32U, ReadWriteMode, GPIOB::GPIOBAFRHBase, GPIOB_AFRL_AFRL7_Values<GPIOB::AFRH, 20U, 4U, ReadWriteMode, GPIOB::GPIOBAFRHBase>::Af5, GPIOB_AFRL_AFRL7_Values<GPIOB::AFRH, 28U, 4U, ReadWriteMode, GPIOB::GPIOBAFRHBase>::Af5>::Set<ReadWriteMode, void>()
_ZN8RegisterILj1073873956ELj32E13ReadWriteModeN5GPIOB13GPIOBAFRHBaseEJ10FieldValueI23GPIOB_AFRL_AFRL7_ValuesINS1_4AFRHELj20ELj4ES0_S2_ES2_Lj5EvES3_IS4_IS5_Lj28ELj4ES0_S2_ES2_Lj5EvEEE3SetIS0_vEEvv:
        LDR.N    R2,??Set_52      ;; 0x40020424
        LDR      R1,[R2, #+0]
        LDR.N    R0,??Set_52+0x4  ;; 0xf0fffff
        ANDS     R1,R0,R1
        LDR.N    R0,??Set_52+0x8  ;; 0x50500000
        ORRS     R1,R0,R1
        STR      R1,[R2, #+0]
        BX       LR               ;; return
        DATA
??Set_52:
        DATA32
        DC32     0x40020424
        DC32     0xf0fffff
        DC32     0x50500000
          CFI EndBlock cfiBlock189

        SECTION `.text`:CODE:REORDER:NOROOT(2)
        SECTION_GROUP _ZN8RegisterILj1073874944ELj32E13ReadWriteModeN5GPIOC14GPIOCMODERBaseEJ10FieldValueI26GPIOC_MODER_MODER15_ValuesINS1_5MODERELj4ELj2ES0_S2_ES2_Lj0EvES3_IS4_IS5_Lj6ELj2ES0_S2_ES2_Lj1EvEEE3SetIS0_vEEvv
          CFI Block cfiBlock190 Using cfiCommon0
          CFI Function _ZN8RegisterILj1073874944ELj32E13ReadWriteModeN5GPIOC14GPIOCMODERBaseEJ10FieldValueI26GPIOC_MODER_MODER15_ValuesINS1_5MODERELj4ELj2ES0_S2_ES2_Lj0EvES3_IS4_IS5_Lj6ELj2ES0_S2_ES2_Lj1EvEEE3SetIS0_vEEvv
          CFI NoCalls
        THUMB
// __interwork __vfp void Register<1073874944U, 32U, ReadWriteMode, GPIOC::GPIOCMODERBase, GPIOC_MODER_MODER15_Values<GPIOC::MODER, 4U, 2U, ReadWriteMode, GPIOC::GPIOCMODERBase>::Input, GPIOC_MODER_MODER15_Values<GPIOC::MODER, 6U, 2U, ReadWriteMode, GPIOC::GPIOCMODERBase>::Output>::Set<ReadWriteMode, void>()
_ZN8RegisterILj1073874944ELj32E13ReadWriteModeN5GPIOC14GPIOCMODERBaseEJ10FieldValueI26GPIOC_MODER_MODER15_ValuesINS1_5MODERELj4ELj2ES0_S2_ES2_Lj0EvES3_IS4_IS5_Lj6ELj2ES0_S2_ES2_Lj1EvEEE3SetIS0_vEEvv:
        LDR.N    R1,??Set_53      ;; 0x40020800
        LDR      R0,[R1, #+0]
        BICS     R0,R0,#0xF0
        ORRS     R0,R0,#0x40
        STR      R0,[R1, #+0]
        BX       LR               ;; return
        DATA
??Set_53:
        DATA32
        DC32     0x40020800
          CFI EndBlock cfiBlock190

        SECTION `.text`:CODE:REORDER:NOROOT(2)
        SECTION_GROUP _ZN8RegisterILj1073873920ELj32E13ReadWriteModeN5GPIOB14GPIOBMODERBaseEJ10FieldValueI26GPIOB_MODER_MODER15_ValuesINS1_5MODERELj6ELj2ES0_S2_ES2_Lj2EvES3_IS4_IS5_Lj8ELj2ES0_S2_ES2_Lj2EvES3_IS4_IS5_Lj10ELj2ES0_S2_ES2_Lj2EvES3_IS4_IS5_Lj20ELj2ES0_S2_ES2_Lj1EvEEE3SetIS0_vEEvv
          CFI Block cfiBlock191 Using cfiCommon0
          CFI Function _ZN8RegisterILj1073873920ELj32E13ReadWriteModeN5GPIOB14GPIOBMODERBaseEJ10FieldValueI26GPIOB_MODER_MODER15_ValuesINS1_5MODERELj6ELj2ES0_S2_ES2_Lj2EvES3_IS4_IS5_Lj8ELj2ES0_S2_ES2_Lj2EvES3_IS4_IS5_Lj10ELj2ES0_S2_ES2_Lj2EvES3_IS4_IS5_Lj20ELj2ES0_S2_ES2_Lj1EvEEE3SetIS0_vEEvv
          CFI NoCalls
        THUMB
// __interwork __vfp void Register<1073873920U, 32U, ReadWriteMode, GPIOB::GPIOBMODERBase, GPIOB_MODER_MODER15_Values<GPIOB::MODER, 6U, 2U, ReadWriteMode, GPIOB::GPIOBMODERBase>::Alternate, GPIOB_MODER_MODER15_Values<GPIOB::MODER, 8U, 2U, ReadWriteMode, GPIOB::GPIOBMODERBase>::Alternate, GPIOB_MODER_MODER15_Values<GPIOB::MODER, 10U, 2U, ReadWriteMode, GPIOB::GPIOBMODERBase>::Alternate, GPIOB_MODER_MODER15_Values<GPIOB::MODER, 20U, 2U, ReadWriteMode, GPIOB::GPIOBMODERBase>::Output>::Set<ReadWriteMode, void>()
_ZN8RegisterILj1073873920ELj32E13ReadWriteModeN5GPIOB14GPIOBMODERBaseEJ10FieldValueI26GPIOB_MODER_MODER15_ValuesINS1_5MODERELj6ELj2ES0_S2_ES2_Lj2EvES3_IS4_IS5_Lj8ELj2ES0_S2_ES2_Lj2EvES3_IS4_IS5_Lj10ELj2ES0_S2_ES2_Lj2EvES3_IS4_IS5_Lj20ELj2ES0_S2_ES2_Lj1EvEEE3SetIS0_vEEvv:
        LDR.N    R2,??Set_54      ;; 0x40020400
        LDR      R1,[R2, #+0]
        LDR.N    R0,??Set_54+0x4  ;; 0xffcff03f
        ANDS     R1,R0,R1
        LDR.N    R0,??Set_54+0x8  ;; 0x100a80
        ORRS     R1,R0,R1
        STR      R1,[R2, #+0]
        BX       LR               ;; return
        DATA
??Set_54:
        DATA32
        DC32     0x40020400
        DC32     0xffcff03f
        DC32     0x100a80
          CFI EndBlock cfiBlock191

        SECTION `.text`:CODE:REORDER:NOROOT(2)
        SECTION_GROUP _ZN8RegisterILj1073873952ELj32E13ReadWriteModeN5GPIOB13GPIOBAFRLBaseEJ10FieldValueI23GPIOB_AFRL_AFRL7_ValuesINS1_4AFRLELj12ELj4ES0_S2_ES2_Lj5EvES3_IS4_IS5_Lj16ELj4ES0_S2_ES2_Lj5EvES3_IS4_IS5_Lj20ELj4ES0_S2_ES2_Lj5EvEEE3SetIS0_vEEvv
          CFI Block cfiBlock192 Using cfiCommon0
          CFI Function _ZN8RegisterILj1073873952ELj32E13ReadWriteModeN5GPIOB13GPIOBAFRLBaseEJ10FieldValueI23GPIOB_AFRL_AFRL7_ValuesINS1_4AFRLELj12ELj4ES0_S2_ES2_Lj5EvES3_IS4_IS5_Lj16ELj4ES0_S2_ES2_Lj5EvES3_IS4_IS5_Lj20ELj4ES0_S2_ES2_Lj5EvEEE3SetIS0_vEEvv
          CFI NoCalls
        THUMB
// __interwork __vfp void Register<1073873952U, 32U, ReadWriteMode, GPIOB::GPIOBAFRLBase, GPIOB_AFRL_AFRL7_Values<GPIOB::AFRL, 12U, 4U, ReadWriteMode, GPIOB::GPIOBAFRLBase>::Af5, GPIOB_AFRL_AFRL7_Values<GPIOB::AFRL, 16U, 4U, ReadWriteMode, GPIOB::GPIOBAFRLBase>::Af5, GPIOB_AFRL_AFRL7_Values<GPIOB::AFRL, 20U, 4U, ReadWriteMode, GPIOB::GPIOBAFRLBase>::Af5>::Set<ReadWriteMode, void>()
_ZN8RegisterILj1073873952ELj32E13ReadWriteModeN5GPIOB13GPIOBAFRLBaseEJ10FieldValueI23GPIOB_AFRL_AFRL7_ValuesINS1_4AFRLELj12ELj4ES0_S2_ES2_Lj5EvES3_IS4_IS5_Lj16ELj4ES0_S2_ES2_Lj5EvES3_IS4_IS5_Lj20ELj4ES0_S2_ES2_Lj5EvEEE3SetIS0_vEEvv:
        LDR.N    R1,??Set_55      ;; 0x40020420
        LDR      R0,[R1, #+0]
        BFC      R0,#+12,#+12
        ORR      R0,R0,#0x500000
        ORRS     R0,R0,#0x55000
        STR      R0,[R1, #+0]
        BX       LR               ;; return
        DATA
??Set_55:
        DATA32
        DC32     0x40020420
          CFI EndBlock cfiBlock192

        SECTION `.text`:CODE:REORDER:NOROOT(1)
        SECTION_GROUP _ZN4PortI5GPIOAE6ToggleEh
          CFI Block cfiBlock193 Using cfiCommon0
          CFI Function _ZN4PortI5GPIOAE6ToggleEh
        THUMB
// __interwork __vfp void Port<GPIOA>::Toggle(uint8_t)
_ZN4PortI5GPIOAE6ToggleEh:
        PUSH     {R4,LR}
          CFI R14 Frame(CFA, -4)
          CFI R4 Frame(CFA, -8)
          CFI CFA R13+8
        MOVS     R4,R0
        MOVS     R0,#+1
        LSLS     R0,R0,R4
          CFI FunCall _ZN12RegisterBaseILj1073872916ELj32E13ReadWriteModeE6ToggleIS0_vEEvj
        BL       _ZN12RegisterBaseILj1073872916ELj32E13ReadWriteModeE6ToggleIS0_vEEvj
        POP      {R4,PC}          ;; return
          CFI EndBlock cfiBlock193

        SECTION `.text`:CODE:REORDER:NOROOT(1)
        SECTION_GROUP _ZN4PortI5GPIOCE6ToggleEh
          CFI Block cfiBlock194 Using cfiCommon0
          CFI Function _ZN4PortI5GPIOCE6ToggleEh
        THUMB
// __interwork __vfp void Port<GPIOC>::Toggle(uint8_t)
_ZN4PortI5GPIOCE6ToggleEh:
        PUSH     {R4,LR}
          CFI R14 Frame(CFA, -4)
          CFI R4 Frame(CFA, -8)
          CFI CFA R13+8
        MOVS     R4,R0
        MOVS     R0,#+1
        LSLS     R0,R0,R4
          CFI FunCall _ZN12RegisterBaseILj1073874964ELj32E13ReadWriteModeE6ToggleIS0_vEEvj
        BL       _ZN12RegisterBaseILj1073874964ELj32E13ReadWriteModeE6ToggleIS0_vEEvj
        POP      {R4,PC}          ;; return
          CFI EndBlock cfiBlock194

        SECTION `.text`:CODE:REORDER:NOROOT(1)
        SECTION_GROUP _ZN4PortI5GPIOCE5IsSetEh
          CFI Block cfiBlock195 Using cfiCommon0
          CFI Function _ZN4PortI5GPIOCE5IsSetEh
        THUMB
// __interwork __vfp bool Port<GPIOC>::IsSet(uint8_t)
_ZN4PortI5GPIOCE5IsSetEh:
        PUSH     {R4,LR}
          CFI R14 Frame(CFA, -4)
          CFI R4 Frame(CFA, -8)
          CFI CFA R13+8
        MOVS     R4,R0
          CFI FunCall _ZN12RegisterBaseILj1073874960ELj32E8ReadModeE3GetIS0_vEEjv
        BL       _ZN12RegisterBaseILj1073874960ELj32E8ReadModeE3GetIS0_vEEjv
        LSRS     R0,R0,R4
        ANDS     R0,R0,#0x1
        POP      {R4,PC}          ;; return
          CFI EndBlock cfiBlock195

        SECTION `.text`:CODE:REORDER:NOROOT(1)
        SECTION_GROUP _ZN4PortI5GPIOBE3SetEj
          CFI Block cfiBlock196 Using cfiCommon0
          CFI Function _ZN4PortI5GPIOBE3SetEj
        THUMB
// __interwork __vfp void Port<GPIOB>::Set(uint32_t)
_ZN4PortI5GPIOBE3SetEj:
        PUSH     {R4,LR}
          CFI R14 Frame(CFA, -4)
          CFI R4 Frame(CFA, -8)
          CFI CFA R13+8
        MOVS     R4,R0
        MOVS     R0,R4
          CFI FunCall _ZN12RegisterBaseILj1073873944ELj32E9WriteModeE5WriteIS0_vEEvj
        BL       _ZN12RegisterBaseILj1073873944ELj32E9WriteModeE5WriteIS0_vEEvj
        POP      {R4,PC}          ;; return
          CFI EndBlock cfiBlock196

        SECTION `.text`:CODE:REORDER:NOROOT(1)
        SECTION_GROUP _ZN4PortI5GPIOCE3SetEj
          CFI Block cfiBlock197 Using cfiCommon0
          CFI Function _ZN4PortI5GPIOCE3SetEj
        THUMB
// __interwork __vfp void Port<GPIOC>::Set(uint32_t)
_ZN4PortI5GPIOCE3SetEj:
        PUSH     {R4,LR}
          CFI R14 Frame(CFA, -4)
          CFI R4 Frame(CFA, -8)
          CFI CFA R13+8
        MOVS     R4,R0
        MOVS     R0,R4
          CFI FunCall _ZN12RegisterBaseILj1073874968ELj32E9WriteModeE5WriteIS0_vEEvj
        BL       _ZN12RegisterBaseILj1073874968ELj32E9WriteModeE5WriteIS0_vEEvj
        POP      {R4,PC}          ;; return
          CFI EndBlock cfiBlock197

        SECTION `.text`:CODE:REORDER:NOROOT(1)
        SECTION_GROUP _ZN4PortI5GPIOBE5ResetEj
          CFI Block cfiBlock198 Using cfiCommon0
          CFI Function _ZN4PortI5GPIOBE5ResetEj
        THUMB
// __interwork __vfp void Port<GPIOB>::Reset(uint32_t)
_ZN4PortI5GPIOBE5ResetEj:
        PUSH     {R4,LR}
          CFI R14 Frame(CFA, -4)
          CFI R4 Frame(CFA, -8)
          CFI CFA R13+8
        MOVS     R4,R0
        LSLS     R0,R4,#+16
          CFI FunCall _ZN12RegisterBaseILj1073873944ELj32E9WriteModeE5WriteIS0_vEEvj
        BL       _ZN12RegisterBaseILj1073873944ELj32E9WriteModeE5WriteIS0_vEEvj
        POP      {R4,PC}          ;; return
          CFI EndBlock cfiBlock198

        SECTION `.text`:CODE:REORDER:NOROOT(1)
        SECTION_GROUP _ZN4PortI5GPIOCE5ResetEj
          CFI Block cfiBlock199 Using cfiCommon0
          CFI Function _ZN4PortI5GPIOCE5ResetEj
        THUMB
// __interwork __vfp void Port<GPIOC>::Reset(uint32_t)
_ZN4PortI5GPIOCE5ResetEj:
        PUSH     {R4,LR}
          CFI R14 Frame(CFA, -4)
          CFI R4 Frame(CFA, -8)
          CFI CFA R13+8
        MOVS     R4,R0
        LSLS     R0,R4,#+16
          CFI FunCall _ZN12RegisterBaseILj1073874968ELj32E9WriteModeE5WriteIS0_vEEvj
        BL       _ZN12RegisterBaseILj1073874968ELj32E9WriteModeE5WriteIS0_vEEvj
        POP      {R4,PC}          ;; return
          CFI EndBlock cfiBlock199

        SECTION `.text`:CODE:REORDER:NOROOT(1)
        SECTION_GROUP _ZN4PortI5GPIOCE7ModeSetEh5Moder
          CFI Block cfiBlock200 Using cfiCommon0
          CFI Function _ZN4PortI5GPIOCE7ModeSetEh5Moder
        THUMB
// __interwork __vfp void Port<GPIOC>::ModeSet(uint8_t, Moder)
_ZN4PortI5GPIOCE7ModeSetEh5Moder:
        PUSH     {R4-R6,LR}
          CFI R14 Frame(CFA, -4)
          CFI R6 Frame(CFA, -8)
          CFI R5 Frame(CFA, -12)
          CFI R4 Frame(CFA, -16)
          CFI CFA R13+16
        MOVS     R4,R0
        MOVS     R5,R1
          CFI FunCall _ZN12RegisterBaseILj1073874944ELj32E13ReadWriteModeE3GetIS0_vEEjv
        BL       _ZN12RegisterBaseILj1073874944ELj32E13ReadWriteModeE3GetIS0_vEEjv
        MOVS     R6,R0
        MOVS     R1,#+3
        UXTB     R4,R4            ;; ZeroExt  R4,R4,#+24,#+24
        LSLS     R0,R4,#+1
        LSLS     R1,R1,R0
        BICS     R6,R6,R1
        MOVS     R1,R5
        UXTB     R1,R1            ;; ZeroExt  R1,R1,#+24,#+24
        UXTB     R4,R4            ;; ZeroExt  R4,R4,#+24,#+24
        LSLS     R0,R4,#+1
        LSLS     R1,R1,R0
        ORRS     R6,R1,R6
        MOVS     R0,R6
          CFI FunCall _ZN12RegisterBaseILj1073874944ELj32E13ReadWriteModeE5WriteIS0_vEEvj
        BL       _ZN12RegisterBaseILj1073874944ELj32E13ReadWriteModeE5WriteIS0_vEEvj
        POP      {R4-R6,PC}       ;; return
          CFI EndBlock cfiBlock200

        SECTION `.text`:CODE:REORDER:NOROOT(1)
        SECTION_GROUP _ZN4PortI5GPIOCE6EnableEv
          CFI Block cfiBlock201 Using cfiCommon0
          CFI Function _ZN4PortI5GPIOCE6EnableEv
        THUMB
// __interwork __vfp void Port<GPIOC>::Enable()
_ZN4PortI5GPIOCE6EnableEv:
        PUSH     {R7,LR}
          CFI R14 Frame(CFA, -4)
          CFI CFA R13+8
          CFI FunCall _ZN14FieldValueBaseI26RCC_AHB1ENR_GPIOCEN_ValuesIN3RCC7AHB1ENRELj2ELj1E13ReadWriteModeNS1_14RCCAHB1ENRBaseEES4_Lj1EE3SetIS3_vEEvv
        BL       _ZN14FieldValueBaseI26RCC_AHB1ENR_GPIOCEN_ValuesIN3RCC7AHB1ENRELj2ELj1E13ReadWriteModeNS1_14RCCAHB1ENRBaseEES4_Lj1EE3SetIS3_vEEvv
        POP      {R0,PC}          ;; return
          CFI EndBlock cfiBlock201

        SECTION `.text`:CODE:REORDER:NOROOT(1)
        SECTION_GROUP _ZN4PortI5GPIOCE8IsEnableEv
          CFI Block cfiBlock202 Using cfiCommon0
          CFI Function _ZN4PortI5GPIOCE8IsEnableEv
        THUMB
// __interwork __vfp bool Port<GPIOC>::IsEnable()
_ZN4PortI5GPIOCE8IsEnableEv:
        PUSH     {R7,LR}
          CFI R14 Frame(CFA, -4)
          CFI CFA R13+8
          CFI FunCall _ZN14FieldValueBaseI26RCC_AHB1ENR_GPIOCEN_ValuesIN3RCC7AHB1ENRELj2ELj1E13ReadWriteModeNS1_14RCCAHB1ENRBaseEES4_Lj1EE5IsSetIS3_vEEbv
        BL       _ZN14FieldValueBaseI26RCC_AHB1ENR_GPIOCEN_ValuesIN3RCC7AHB1ENRELj2ELj1E13ReadWriteModeNS1_14RCCAHB1ENRBaseEES4_Lj1EE5IsSetIS3_vEEbv
        POP      {R1,PC}          ;; return
          CFI EndBlock cfiBlock202

        SECTION `.text`:CODE:REORDER:NOROOT(1)
        SECTION_GROUP _ZN3PinI4PortI5GPIOAELh5EE6ToggleEv
          CFI Block cfiBlock203 Using cfiCommon0
          CFI Function _ZN3PinI4PortI5GPIOAELh5EE6ToggleEv
        THUMB
// __interwork __vfp void Pin<PortA, (uint8_t)'\005'>::Toggle()
_ZN3PinI4PortI5GPIOAELh5EE6ToggleEv:
        PUSH     {R7,LR}
          CFI R14 Frame(CFA, -4)
          CFI CFA R13+8
        MOVS     R0,#+5
          CFI FunCall _ZN4PortI5GPIOAE6ToggleEh
        BL       _ZN4PortI5GPIOAE6ToggleEh
        POP      {R0,PC}          ;; return
          CFI EndBlock cfiBlock203

        SECTION `.text`:CODE:REORDER:NOROOT(1)
        SECTION_GROUP _ZN3PinI4PortI5GPIOCELh8EE6ToggleEv
          CFI Block cfiBlock204 Using cfiCommon0
          CFI Function _ZN3PinI4PortI5GPIOCELh8EE6ToggleEv
        THUMB
// __interwork __vfp void Pin<PortC, (uint8_t)'\b'>::Toggle()
_ZN3PinI4PortI5GPIOCELh8EE6ToggleEv:
        PUSH     {R7,LR}
          CFI R14 Frame(CFA, -4)
          CFI CFA R13+8
        MOVS     R0,#+8
          CFI FunCall _ZN4PortI5GPIOCE6ToggleEh
        BL       _ZN4PortI5GPIOCE6ToggleEh
        POP      {R0,PC}          ;; return
          CFI EndBlock cfiBlock204

        SECTION `.text`:CODE:REORDER:NOROOT(1)
        SECTION_GROUP _ZN3PinI4PortI5GPIOCELh9EE6ToggleEv
          CFI Block cfiBlock205 Using cfiCommon0
          CFI Function _ZN3PinI4PortI5GPIOCELh9EE6ToggleEv
        THUMB
// __interwork __vfp void Pin<PortC, (uint8_t)'\t'>::Toggle()
_ZN3PinI4PortI5GPIOCELh9EE6ToggleEv:
        PUSH     {R7,LR}
          CFI R14 Frame(CFA, -4)
          CFI CFA R13+8
        MOVS     R0,#+9
          CFI FunCall _ZN4PortI5GPIOCE6ToggleEh
        BL       _ZN4PortI5GPIOCE6ToggleEh
        POP      {R0,PC}          ;; return
          CFI EndBlock cfiBlock205

        SECTION `.text`:CODE:REORDER:NOROOT(1)
        SECTION_GROUP _ZN3PinI4PortI5GPIOBELh10EE3SetEv
          CFI Block cfiBlock206 Using cfiCommon0
          CFI Function _ZN3PinI4PortI5GPIOBELh10EE3SetEv
        THUMB
// __interwork __vfp void Pin<PortB, (uint8_t)'\n'>::Set()
_ZN3PinI4PortI5GPIOBELh10EE3SetEv:
        PUSH     {R7,LR}
          CFI R14 Frame(CFA, -4)
          CFI CFA R13+8
        MOV      R0,#+1024
          CFI FunCall _ZN4PortI5GPIOBE3SetEj
        BL       _ZN4PortI5GPIOBE3SetEj
        POP      {R0,PC}          ;; return
          CFI EndBlock cfiBlock206

        SECTION `.text`:CODE:REORDER:NOROOT(1)
        SECTION_GROUP _ZN3PinI4PortI5GPIOBELh2EE3SetEv
          CFI Block cfiBlock207 Using cfiCommon0
          CFI Function _ZN3PinI4PortI5GPIOBELh2EE3SetEv
        THUMB
// __interwork __vfp void Pin<PortB, (uint8_t)'\002'>::Set()
_ZN3PinI4PortI5GPIOBELh2EE3SetEv:
        PUSH     {R7,LR}
          CFI R14 Frame(CFA, -4)
          CFI CFA R13+8
        MOVS     R0,#+4
          CFI FunCall _ZN4PortI5GPIOBE3SetEj
        BL       _ZN4PortI5GPIOBE3SetEj
        POP      {R0,PC}          ;; return
          CFI EndBlock cfiBlock207

        SECTION `.text`:CODE:REORDER:NOROOT(1)
        SECTION_GROUP _ZN3PinI4PortI5GPIOBELh1EE3SetEv
          CFI Block cfiBlock208 Using cfiCommon0
          CFI Function _ZN3PinI4PortI5GPIOBELh1EE3SetEv
        THUMB
// __interwork __vfp void Pin<PortB, (uint8_t)'\001'>::Set()
_ZN3PinI4PortI5GPIOBELh1EE3SetEv:
        PUSH     {R7,LR}
          CFI R14 Frame(CFA, -4)
          CFI CFA R13+8
        MOVS     R0,#+2
          CFI FunCall _ZN4PortI5GPIOBE3SetEj
        BL       _ZN4PortI5GPIOBE3SetEj
        POP      {R0,PC}          ;; return
          CFI EndBlock cfiBlock208

        SECTION `.text`:CODE:REORDER:NOROOT(1)
        SECTION_GROUP _ZN3PinI4PortI5GPIOCELh3EE3SetEv
          CFI Block cfiBlock209 Using cfiCommon0
          CFI Function _ZN3PinI4PortI5GPIOCELh3EE3SetEv
        THUMB
// __interwork __vfp void Pin<PortC, (uint8_t)'\003'>::Set()
_ZN3PinI4PortI5GPIOCELh3EE3SetEv:
        PUSH     {R7,LR}
          CFI R14 Frame(CFA, -4)
          CFI CFA R13+8
        MOVS     R0,#+8
          CFI FunCall _ZN4PortI5GPIOCE3SetEj
        BL       _ZN4PortI5GPIOCE3SetEj
        POP      {R0,PC}          ;; return
          CFI EndBlock cfiBlock209

        SECTION `.text`:CODE:REORDER:NOROOT(1)
        SECTION_GROUP _ZN3PinI4PortI5GPIOBELh10EE5ResetEv
          CFI Block cfiBlock210 Using cfiCommon0
          CFI Function _ZN3PinI4PortI5GPIOBELh10EE5ResetEv
        THUMB
// __interwork __vfp void Pin<PortB, (uint8_t)'\n'>::Reset()
_ZN3PinI4PortI5GPIOBELh10EE5ResetEv:
        PUSH     {R7,LR}
          CFI R14 Frame(CFA, -4)
          CFI CFA R13+8
        MOV      R0,#+1024
          CFI FunCall _ZN4PortI5GPIOBE5ResetEj
        BL       _ZN4PortI5GPIOBE5ResetEj
        POP      {R0,PC}          ;; return
          CFI EndBlock cfiBlock210

        SECTION `.text`:CODE:REORDER:NOROOT(1)
        SECTION_GROUP _ZN3PinI4PortI5GPIOBELh2EE5ResetEv
          CFI Block cfiBlock211 Using cfiCommon0
          CFI Function _ZN3PinI4PortI5GPIOBELh2EE5ResetEv
        THUMB
// __interwork __vfp void Pin<PortB, (uint8_t)'\002'>::Reset()
_ZN3PinI4PortI5GPIOBELh2EE5ResetEv:
        PUSH     {R7,LR}
          CFI R14 Frame(CFA, -4)
          CFI CFA R13+8
        MOVS     R0,#+4
          CFI FunCall _ZN4PortI5GPIOBE5ResetEj
        BL       _ZN4PortI5GPIOBE5ResetEj
        POP      {R0,PC}          ;; return
          CFI EndBlock cfiBlock211

        SECTION `.text`:CODE:REORDER:NOROOT(1)
        SECTION_GROUP _ZN3PinI4PortI5GPIOBELh1EE5ResetEv
          CFI Block cfiBlock212 Using cfiCommon0
          CFI Function _ZN3PinI4PortI5GPIOBELh1EE5ResetEv
        THUMB
// __interwork __vfp void Pin<PortB, (uint8_t)'\001'>::Reset()
_ZN3PinI4PortI5GPIOBELh1EE5ResetEv:
        PUSH     {R7,LR}
          CFI R14 Frame(CFA, -4)
          CFI CFA R13+8
        MOVS     R0,#+2
          CFI FunCall _ZN4PortI5GPIOBE5ResetEj
        BL       _ZN4PortI5GPIOBE5ResetEj
        POP      {R0,PC}          ;; return
          CFI EndBlock cfiBlock212

        SECTION `.text`:CODE:REORDER:NOROOT(1)
        SECTION_GROUP _ZN3PinI4PortI5GPIOCELh3EE5ResetEv
          CFI Block cfiBlock213 Using cfiCommon0
          CFI Function _ZN3PinI4PortI5GPIOCELh3EE5ResetEv
        THUMB
// __interwork __vfp void Pin<PortC, (uint8_t)'\003'>::Reset()
_ZN3PinI4PortI5GPIOCELh3EE5ResetEv:
        PUSH     {R7,LR}
          CFI R14 Frame(CFA, -4)
          CFI CFA R13+8
        MOVS     R0,#+8
          CFI FunCall _ZN4PortI5GPIOCE5ResetEj
        BL       _ZN4PortI5GPIOCE5ResetEj
        POP      {R0,PC}          ;; return
          CFI EndBlock cfiBlock213

        SECTION `.text`:CODE:REORDER:NOROOT(1)
        SECTION_GROUP _ZN3PinI4PortI5GPIOCELh13EE5IsSetEv
          CFI Block cfiBlock214 Using cfiCommon0
          CFI Function _ZN3PinI4PortI5GPIOCELh13EE5IsSetEv
        THUMB
// __interwork __vfp bool Pin<PortC, (uint8_t)'\r'>::IsSet()
_ZN3PinI4PortI5GPIOCELh13EE5IsSetEv:
        PUSH     {R7,LR}
          CFI R14 Frame(CFA, -4)
          CFI CFA R13+8
        MOVS     R0,#+13
          CFI FunCall _ZN4PortI5GPIOCE5IsSetEh
        BL       _ZN4PortI5GPIOCE5IsSetEh
        POP      {R1,PC}          ;; return
          CFI EndBlock cfiBlock214

        SECTION `.text`:CODE:REORDER:NOROOT(1)
        SECTION_GROUP _ZN3PinI4PortI5GPIOCELh2EE5IsSetEv
          CFI Block cfiBlock215 Using cfiCommon0
          CFI Function _ZN3PinI4PortI5GPIOCELh2EE5IsSetEv
        THUMB
// __interwork __vfp bool Pin<PortC, (uint8_t)'\002'>::IsSet()
_ZN3PinI4PortI5GPIOCELh2EE5IsSetEv:
        PUSH     {R7,LR}
          CFI R14 Frame(CFA, -4)
          CFI CFA R13+8
        MOVS     R0,#+2
          CFI FunCall _ZN4PortI5GPIOCE5IsSetEh
        BL       _ZN4PortI5GPIOCE5IsSetEh
        POP      {R1,PC}          ;; return
          CFI EndBlock cfiBlock215

        SECTION `.text`:CODE:REORDER:NOROOT(1)
        SECTION_GROUP _ZN3PinI4PortI5GPIOCELh2EE3GetEv
          CFI Block cfiBlock216 Using cfiCommon0
          CFI Function _ZN3PinI4PortI5GPIOCELh2EE3GetEv
        THUMB
// __interwork __vfp uint8_t Pin<PortC, (uint8_t)'\002'>::Get()
_ZN3PinI4PortI5GPIOCELh2EE3GetEv:
        PUSH     {R7,LR}
          CFI R14 Frame(CFA, -4)
          CFI CFA R13+8
          CFI FunCall _ZN3PinI4PortI5GPIOCELh2EE5IsSetEv
        BL       _ZN3PinI4PortI5GPIOCELh2EE5IsSetEv
        CMP      R0,#+0
        BEQ.N    ??Get_4
        MOVS     R0,#+1
        B.N      ??Get_5
??Get_4:
        MOVS     R0,#+0
??Get_5:
        UXTB     R0,R0            ;; ZeroExt  R0,R0,#+24,#+24
        POP      {R1,PC}          ;; return
          CFI EndBlock cfiBlock216

        SECTION `.text`:CODE:REORDER:NOROOT(1)
        SECTION_GROUP _ZN3PinI4PortI5GPIOCELh13EE6EnableEv
          CFI Block cfiBlock217 Using cfiCommon0
          CFI Function _ZN3PinI4PortI5GPIOCELh13EE6EnableEv
        THUMB
// __interwork __vfp void Pin<PortC, (uint8_t)'\r'>::Enable()
_ZN3PinI4PortI5GPIOCELh13EE6EnableEv:
        PUSH     {R7,LR}
          CFI R14 Frame(CFA, -4)
          CFI CFA R13+8
          CFI FunCall _ZN4PortI5GPIOCE8IsEnableEv
        BL       _ZN4PortI5GPIOCE8IsEnableEv
        CMP      R0,#+0
        BNE.N    ??Enable_0
          CFI FunCall _ZN4PortI5GPIOCE6EnableEv
        BL       _ZN4PortI5GPIOCE6EnableEv
??Enable_0:
        POP      {R0,PC}          ;; return
          CFI EndBlock cfiBlock217

        SECTION `.text`:CODE:REORDER:NOROOT(1)
        SECTION_GROUP _ZN3PinI4PortI5GPIOCELh13EE15SelectInputModeEv
          CFI Block cfiBlock218 Using cfiCommon0
          CFI Function _ZN3PinI4PortI5GPIOCELh13EE15SelectInputModeEv
        THUMB
// __interwork __vfp void Pin<PortC, (uint8_t)'\r'>::SelectInputMode()
_ZN3PinI4PortI5GPIOCELh13EE15SelectInputModeEv:
        PUSH     {R7,LR}
          CFI R14 Frame(CFA, -4)
          CFI CFA R13+8
        MOVS     R1,#+0
        MOVS     R0,#+13
          CFI FunCall _ZN4PortI5GPIOCE7ModeSetEh5Moder
        BL       _ZN4PortI5GPIOCE7ModeSetEh5Moder
        POP      {R0,PC}          ;; return
          CFI EndBlock cfiBlock218

        SECTION `.text`:CODE:REORDER:NOROOT(1)
        SECTION_GROUP _ZN6ButtonI3PinI4PortI5GPIOCELh13EEE10WasPressedEv
          CFI Block cfiBlock219 Using cfiCommon0
          CFI Function _ZN6ButtonI3PinI4PortI5GPIOCELh13EEE10WasPressedEv
        THUMB
// __interwork __vfp bool Button<PinButton>::WasPressed()
_ZN6ButtonI3PinI4PortI5GPIOCELh13EEE10WasPressedEv:
        PUSH     {R7,LR}
          CFI R14 Frame(CFA, -4)
          CFI CFA R13+8
          CFI FunCall _ZN3PinI4PortI5GPIOCELh13EE5IsSetEv
        BL       _ZN3PinI4PortI5GPIOCELh13EE5IsSetEv
        CMP      R0,#+0
        BNE.N    ??WasPressed_0
??WasPressed_1:
          CFI FunCall _ZN3PinI4PortI5GPIOCELh13EE5IsSetEv
        BL       _ZN3PinI4PortI5GPIOCELh13EE5IsSetEv
        CMP      R0,#+0
        BEQ.N    ??WasPressed_1
        MOVS     R0,#+1
        B.N      ??WasPressed_2
??WasPressed_0:
        MOVS     R0,#+0
??WasPressed_2:
        POP      {R1,PC}          ;; return
          CFI EndBlock cfiBlock219

        SECTION `.text`:CODE:REORDER:NOROOT(1)
        SECTION_GROUP _ZN6ButtonI3PinI4PortI5GPIOCELh13EEE6EnableEv
          CFI Block cfiBlock220 Using cfiCommon0
          CFI Function _ZN6ButtonI3PinI4PortI5GPIOCELh13EEE6EnableEv
        THUMB
// __interwork __vfp void Button<PinButton>::Enable()
_ZN6ButtonI3PinI4PortI5GPIOCELh13EEE6EnableEv:
        PUSH     {R7,LR}
          CFI R14 Frame(CFA, -4)
          CFI CFA R13+8
          CFI FunCall _ZN3PinI4PortI5GPIOCELh13EE6EnableEv
        BL       _ZN3PinI4PortI5GPIOCELh13EE6EnableEv
          CFI FunCall _ZN3PinI4PortI5GPIOCELh13EE15SelectInputModeEv
        BL       _ZN3PinI4PortI5GPIOCELh13EE15SelectInputModeEv
        POP      {R0,PC}          ;; return
          CFI EndBlock cfiBlock220

        SECTION `.text`:CODE:REORDER:NOROOT(1)
        SECTION_GROUP _ZN5USARTI6USART2L_Z20bluetoothTransceiverEE6EnableEv
          CFI Block cfiBlock221 Using cfiCommon0
          CFI Function _ZN5USARTI6USART2L_Z20bluetoothTransceiverEE6EnableEv
        THUMB
// __interwork __vfp void USART<USART2, bluetoothTransceiver>::Enable()
_ZN5USARTI6USART2L_Z20bluetoothTransceiverEE6EnableEv:
        PUSH     {R7,LR}
          CFI R14 Frame(CFA, -4)
          CFI CFA R13+8
          CFI FunCall _ZN14FieldValueBaseI20USART2_CR1_UE_ValuesIN6USART23CR1ELj13ELj1E13ReadWriteModeNS1_13USART2CR1BaseEES4_Lj1EE3SetIS3_vEEvv
        BL       _ZN14FieldValueBaseI20USART2_CR1_UE_ValuesIN6USART23CR1ELj13ELj1E13ReadWriteModeNS1_13USART2CR1BaseEES4_Lj1EE3SetIS3_vEEvv
        POP      {R0,PC}          ;; return
          CFI EndBlock cfiBlock221

        SECTION `.text`:CODE:REORDER:NOROOT(1)
        SECTION_GROUP _ZN5USARTI6USART2L_Z20bluetoothTransceiverEE15TransmiteEnableEv
          CFI Block cfiBlock222 Using cfiCommon0
          CFI Function _ZN5USARTI6USART2L_Z20bluetoothTransceiverEE15TransmiteEnableEv
        THUMB
// __interwork __vfp void USART<USART2, bluetoothTransceiver>::TransmiteEnable()
_ZN5USARTI6USART2L_Z20bluetoothTransceiverEE15TransmiteEnableEv:
        PUSH     {R7,LR}
          CFI R14 Frame(CFA, -4)
          CFI CFA R13+8
          CFI FunCall _ZN14FieldValueBaseI20USART2_CR1_TE_ValuesIN6USART23CR1ELj3ELj1E13ReadWriteModeNS1_13USART2CR1BaseEES4_Lj1EE3SetIS3_vEEvv
        BL       _ZN14FieldValueBaseI20USART2_CR1_TE_ValuesIN6USART23CR1ELj3ELj1E13ReadWriteModeNS1_13USART2CR1BaseEES4_Lj1EE3SetIS3_vEEvv
        POP      {R0,PC}          ;; return
          CFI EndBlock cfiBlock222

        SECTION `.text`:CODE:REORDER:NOROOT(1)
        SECTION_GROUP _ZN5USARTI6USART2L_Z20bluetoothTransceiverEE32TransmiteBufEmptyInterruptEnableEv
          CFI Block cfiBlock223 Using cfiCommon0
          CFI Function _ZN5USARTI6USART2L_Z20bluetoothTransceiverEE32TransmiteBufEmptyInterruptEnableEv
        THUMB
// __interwork __vfp void USART<USART2, bluetoothTransceiver>::TransmiteBufEmptyInterruptEnable()
_ZN5USARTI6USART2L_Z20bluetoothTransceiverEE32TransmiteBufEmptyInterruptEnableEv:
        PUSH     {R7,LR}
          CFI R14 Frame(CFA, -4)
          CFI CFA R13+8
          CFI FunCall _ZN14FieldValueBaseI23USART2_CR1_TXEIE_ValuesIN6USART23CR1ELj7ELj1E13ReadWriteModeNS1_13USART2CR1BaseEES4_Lj1EE3SetIS3_vEEvv
        BL       _ZN14FieldValueBaseI23USART2_CR1_TXEIE_ValuesIN6USART23CR1ELj7ELj1E13ReadWriteModeNS1_13USART2CR1BaseEES4_Lj1EE3SetIS3_vEEvv
        POP      {R0,PC}          ;; return
          CFI EndBlock cfiBlock223

        SECTION `.text`:CODE:REORDER:NOROOT(1)
        SECTION_GROUP _ZN11usartDriverI6Usart2EC1Ev
          CFI Block cfiBlock224 Using cfiCommon0
          CFI Function _ZN11usartDriverI6Usart2EC1Ev
          CFI NoCalls
        THUMB
// __code __interwork __vfp usartDriver<Usart2>::usartDriver()
_ZN11usartDriverI6Usart2EC1Ev:
        MOVS     R1,#+0
        STR      R1,[R0, #+2048]
        MOVS     R1,#+0
        STR      R1,[R0, #+2052]
        MOVS     R1,#+0
        STRB     R1,[R0, #+2056]
        MOVS     R1,#+0
        STRB     R1,[R0, #+2057]
        MOVS     R1,#+0
        STR      R1,[R0, #+2060]
        MOVS     R1,#+0
        STR      R1,[R0, #+2064]
        BX       LR               ;; return
          CFI EndBlock cfiBlock224

        SECTION `.text`:CODE:REORDER:NOROOT(1)
        SECTION_GROUP _ZN11usartDriverI6Usart2E6EnableEv
          CFI Block cfiBlock225 Using cfiCommon0
          CFI Function _ZN11usartDriverI6Usart2E6EnableEv
        THUMB
// __interwork __vfp void usartDriver<Usart2>::Enable()
_ZN11usartDriverI6Usart2E6EnableEv:
        PUSH     {R4,LR}
          CFI R14 Frame(CFA, -4)
          CFI R4 Frame(CFA, -8)
          CFI CFA R13+8
        MOVS     R4,R0
          CFI FunCall _ZN5USARTI6USART2L_Z20bluetoothTransceiverEE6EnableEv
        BL       _ZN5USARTI6USART2L_Z20bluetoothTransceiverEE6EnableEv
        POP      {R4,PC}          ;; return
          CFI EndBlock cfiBlock225

        SECTION `.text`:CODE:REORDER:NOROOT(1)
        SECTION_GROUP _ZN11usartDriverI6Usart2E11SendMessageEPcj
          CFI Block cfiBlock226 Using cfiCommon0
          CFI Function _ZN11usartDriverI6Usart2E11SendMessageEPcj
        THUMB
// __interwork __vfp void usartDriver<Usart2>::SendMessage(char *, uint32_t)
_ZN11usartDriverI6Usart2E11SendMessageEPcj:
        PUSH     {R4-R10,LR}
          CFI R14 Frame(CFA, -4)
          CFI R10 Frame(CFA, -8)
          CFI R9 Frame(CFA, -12)
          CFI R8 Frame(CFA, -16)
          CFI R7 Frame(CFA, -20)
          CFI R6 Frame(CFA, -24)
          CFI R5 Frame(CFA, -28)
          CFI R4 Frame(CFA, -32)
          CFI CFA R13+32
        MOVS     R4,R0
        MOVS     R5,R1
        MOVS     R6,R2
        MOVS     R7,R6
        MOVS     R0,R4
          CFI FunCall _ZNKSt5arrayIcLj1024EE4sizeEv
        BL       _ZNKSt5arrayIcLj1024EE4sizeEv
        CMP      R0,R7
        BCS.N    ??SendMessage_0
        MOVS     R0,R4
          CFI FunCall _ZNKSt5arrayIcLj1024EE4sizeEv
        BL       _ZNKSt5arrayIcLj1024EE4sizeEv
        MOVS     R7,R0
??SendMessage_0:
        STR      R7,[R4, #+2048]
        MOVS     R0,R4
          CFI FunCall _ZNSt5arrayIcLj1024EE4dataEv
        BL       _ZNSt5arrayIcLj1024EE4dataEv
        MOV      R10,R0
        MOV      R8,R7
        MOV      R9,R5
        MOV      R2,R8
        MOV      R1,R9
        MOV      R0,R10
          CFI FunCall __aeabi_memcpy
        BL       __aeabi_memcpy
          CFI FunCall _ZN5USARTI6USART2L_Z20bluetoothTransceiverEE15TransmiteEnableEv
        BL       _ZN5USARTI6USART2L_Z20bluetoothTransceiverEE15TransmiteEnableEv
          CFI FunCall _ZN5USARTI6USART2L_Z20bluetoothTransceiverEE32TransmiteBufEmptyInterruptEnableEv
        BL       _ZN5USARTI6USART2L_Z20bluetoothTransceiverEE32TransmiteBufEmptyInterruptEnableEv
        MOVS     R0,#+0
        STRB     R0,[R4, #+2057]
        MOVS     R0,#+0
        STRB     R0,[R4, #+2056]
        POP      {R4-R10,PC}      ;; return
          CFI EndBlock cfiBlock226

        SECTION `.text`:CODE:REORDER:NOROOT(1)
        SECTION_GROUP _ZN3SPII4SPI1L_Z15spi1TransceiverEE6EnableEv
          CFI Block cfiBlock227 Using cfiCommon0
          CFI Function _ZN3SPII4SPI1L_Z15spi1TransceiverEE6EnableEv
        THUMB
// __interwork __vfp void SPI<SPI1, spi1Transceiver>::Enable()
_ZN3SPII4SPI1L_Z15spi1TransceiverEE6EnableEv:
        PUSH     {R7,LR}
          CFI R14 Frame(CFA, -4)
          CFI CFA R13+8
          CFI FunCall _ZN14FieldValueBaseI19SPI1_CR1_SPE_ValuesIN4SPI13CR1ELj6ELj1E13ReadWriteModeNS1_11SPI1CR1BaseEES4_Lj1EE3SetIS3_vEEvv
        BL       _ZN14FieldValueBaseI19SPI1_CR1_SPE_ValuesIN4SPI13CR1ELj6ELj1E13ReadWriteModeNS1_11SPI1CR1BaseEES4_Lj1EE3SetIS3_vEEvv
        POP      {R0,PC}          ;; return
          CFI EndBlock cfiBlock227

        SECTION `.text`:CODE:REORDER:NOROOT(1)
        SECTION_GROUP _ZN3SPII4SPI2L_Z15spi2TransceiverEE6EnableEv
          CFI Block cfiBlock228 Using cfiCommon0
          CFI Function _ZN3SPII4SPI2L_Z15spi2TransceiverEE6EnableEv
        THUMB
// __interwork __vfp void SPI<SPI2, spi2Transceiver>::Enable()
_ZN3SPII4SPI2L_Z15spi2TransceiverEE6EnableEv:
        PUSH     {R7,LR}
          CFI R14 Frame(CFA, -4)
          CFI CFA R13+8
          CFI FunCall _ZN14FieldValueBaseI19SPI2_CR1_SPE_ValuesIN4SPI23CR1ELj6ELj1E13ReadWriteModeNS1_11SPI2CR1BaseEES4_Lj1EE3SetIS3_vEEvv
        BL       _ZN14FieldValueBaseI19SPI2_CR1_SPE_ValuesIN4SPI23CR1ELj6ELj1E13ReadWriteModeNS1_11SPI2CR1BaseEES4_Lj1EE3SetIS3_vEEvv
        POP      {R0,PC}          ;; return
          CFI EndBlock cfiBlock228

        SECTION `.text`:CODE:REORDER:NOROOT(1)
        SECTION_GROUP _ZN3SPII4SPI1L_Z15spi1TransceiverEE8ReadByteEv
          CFI Block cfiBlock229 Using cfiCommon0
          CFI Function _ZN3SPII4SPI1L_Z15spi1TransceiverEE8ReadByteEv
        THUMB
// __interwork __vfp char SPI<SPI1, spi1Transceiver>::ReadByte()
_ZN3SPII4SPI1L_Z15spi1TransceiverEE8ReadByteEv:
        PUSH     {R7,LR}
          CFI R14 Frame(CFA, -4)
          CFI CFA R13+8
          CFI FunCall _ZN12RegisterBaseILj1073819660ELj32E13ReadWriteModeE3GetIS0_vEEjv
        BL       _ZN12RegisterBaseILj1073819660ELj32E13ReadWriteModeE3GetIS0_vEEjv
        UXTB     R0,R0            ;; ZeroExt  R0,R0,#+24,#+24
        POP      {R1,PC}          ;; return
          CFI EndBlock cfiBlock229

        SECTION `.text`:CODE:REORDER:NOROOT(1)
        SECTION_GROUP _ZN3SPII4SPI1L_Z15spi1TransceiverEE32TransmiteBufEmptyInterruptEnableEv
          CFI Block cfiBlock230 Using cfiCommon0
          CFI Function _ZN3SPII4SPI1L_Z15spi1TransceiverEE32TransmiteBufEmptyInterruptEnableEv
        THUMB
// __interwork __vfp void SPI<SPI1, spi1Transceiver>::TransmiteBufEmptyInterruptEnable()
_ZN3SPII4SPI1L_Z15spi1TransceiverEE32TransmiteBufEmptyInterruptEnableEv:
        PUSH     {R7,LR}
          CFI R14 Frame(CFA, -4)
          CFI CFA R13+8
          CFI FunCall _ZN14FieldValueBaseI21SPI1_CR2_TXEIE_ValuesIN4SPI13CR2ELj7ELj1E13ReadWriteModeNS1_11SPI1CR2BaseEES4_Lj1EE3SetIS3_vEEvv
        BL       _ZN14FieldValueBaseI21SPI1_CR2_TXEIE_ValuesIN4SPI13CR2ELj7ELj1E13ReadWriteModeNS1_11SPI1CR2BaseEES4_Lj1EE3SetIS3_vEEvv
        POP      {R0,PC}          ;; return
          CFI EndBlock cfiBlock230

        SECTION `.text`:CODE:REORDER:NOROOT(1)
        SECTION_GROUP _ZN3SPII4SPI2L_Z15spi2TransceiverEE32TransmiteBufEmptyInterruptEnableEv
          CFI Block cfiBlock231 Using cfiCommon0
          CFI Function _ZN3SPII4SPI2L_Z15spi2TransceiverEE32TransmiteBufEmptyInterruptEnableEv
        THUMB
// __interwork __vfp void SPI<SPI2, spi2Transceiver>::TransmiteBufEmptyInterruptEnable()
_ZN3SPII4SPI2L_Z15spi2TransceiverEE32TransmiteBufEmptyInterruptEnableEv:
        PUSH     {R7,LR}
          CFI R14 Frame(CFA, -4)
          CFI CFA R13+8
          CFI FunCall _ZN14FieldValueBaseI21SPI2_CR2_TXEIE_ValuesIN4SPI23CR2ELj7ELj1E13ReadWriteModeNS1_11SPI2CR2BaseEES4_Lj1EE3SetIS3_vEEvv
        BL       _ZN14FieldValueBaseI21SPI2_CR2_TXEIE_ValuesIN4SPI23CR2ELj7ELj1E13ReadWriteModeNS1_11SPI2CR2BaseEES4_Lj1EE3SetIS3_vEEvv
        POP      {R0,PC}          ;; return
          CFI EndBlock cfiBlock231

        SECTION `.text`:CODE:REORDER:NOROOT(1)
        SECTION_GROUP _ZN3SPII4SPI1L_Z15spi1TransceiverEE33ReceiveBufNotEmptyInterruptEnableEv
          CFI Block cfiBlock232 Using cfiCommon0
          CFI Function _ZN3SPII4SPI1L_Z15spi1TransceiverEE33ReceiveBufNotEmptyInterruptEnableEv
        THUMB
// __interwork __vfp void SPI<SPI1, spi1Transceiver>::ReceiveBufNotEmptyInterruptEnable()
_ZN3SPII4SPI1L_Z15spi1TransceiverEE33ReceiveBufNotEmptyInterruptEnableEv:
        PUSH     {R7,LR}
          CFI R14 Frame(CFA, -4)
          CFI CFA R13+8
          CFI FunCall _ZN14FieldValueBaseI22SPI1_CR2_RXNEIE_ValuesIN4SPI13CR2ELj6ELj1E13ReadWriteModeNS1_11SPI1CR2BaseEES4_Lj1EE3SetIS3_vEEvv
        BL       _ZN14FieldValueBaseI22SPI1_CR2_RXNEIE_ValuesIN4SPI13CR2ELj6ELj1E13ReadWriteModeNS1_11SPI1CR2BaseEES4_Lj1EE3SetIS3_vEEvv
        POP      {R0,PC}          ;; return
          CFI EndBlock cfiBlock232

        SECTION `.text`:CODE:REORDER:NOROOT(1)
        SECTION_GROUP _ZN9SpiDriverI4Spi1E6EnableEv
          CFI Block cfiBlock233 Using cfiCommon0
          CFI Function _ZN9SpiDriverI4Spi1E6EnableEv
        THUMB
// __interwork __vfp void SpiDriver<Spi1>::Enable()
_ZN9SpiDriverI4Spi1E6EnableEv:
        PUSH     {R4,LR}
          CFI R14 Frame(CFA, -4)
          CFI R4 Frame(CFA, -8)
          CFI CFA R13+8
        MOVS     R4,R0
          CFI FunCall _ZN3SPII4SPI1L_Z15spi1TransceiverEE6EnableEv
        BL       _ZN3SPII4SPI1L_Z15spi1TransceiverEE6EnableEv
        POP      {R4,PC}          ;; return
          CFI EndBlock cfiBlock233

        SECTION `.text`:CODE:REORDER:NOROOT(1)
        SECTION_GROUP _ZN9SpiDriverI4Spi1E11SendMessageEPcj
          CFI Block cfiBlock234 Using cfiCommon0
          CFI Function _ZN9SpiDriverI4Spi1E11SendMessageEPcj
        THUMB
// __interwork __vfp void SpiDriver<Spi1>::SendMessage(char *, size_t)
_ZN9SpiDriverI4Spi1E11SendMessageEPcj:
        PUSH     {R4-R10,LR}
          CFI R14 Frame(CFA, -4)
          CFI R10 Frame(CFA, -8)
          CFI R9 Frame(CFA, -12)
          CFI R8 Frame(CFA, -16)
          CFI R7 Frame(CFA, -20)
          CFI R6 Frame(CFA, -24)
          CFI R5 Frame(CFA, -28)
          CFI R4 Frame(CFA, -32)
          CFI CFA R13+32
        MOVS     R4,R0
        MOVS     R5,R1
        MOVS     R6,R2
        MOVS     R0,#+0
        STRB     R0,[R4, #+409]
        MOVS     R7,R6
        MOVS     R0,R4
          CFI FunCall _ZNKSt5arrayIcLj200EE4sizeEv
        BL       _ZNKSt5arrayIcLj200EE4sizeEv
        CMP      R0,R7
        BCS.N    ??SendMessage_1
        MOVS     R0,R4
          CFI FunCall _ZNKSt5arrayIcLj200EE4sizeEv
        BL       _ZNKSt5arrayIcLj200EE4sizeEv
        MOVS     R7,R0
??SendMessage_1:
        STR      R7,[R4, #+400]
        MOVS     R0,R4
          CFI FunCall _ZNSt5arrayIcLj200EE4dataEv
        BL       _ZNSt5arrayIcLj200EE4dataEv
        MOV      R8,R0
        LDR      R9,[R4, #+400]
        MOV      R10,R5
        MOV      R2,R9
        MOV      R1,R10
        MOV      R0,R8
          CFI FunCall __aeabi_memcpy
        BL       __aeabi_memcpy
        LDR      R0,[R4, #+404]
        CMP      R0,#+0
        BNE.N    ??SendMessage_2
        MOVS     R0,#+1
        B.N      ??SendMessage_3
??SendMessage_2:
        MOVS     R0,#+0
??SendMessage_3:
        STRB     R0,[R4, #+408]
        LDR      R0,[R4, #+404]
        CMP      R0,#+0
        BEQ.N    ??SendMessage_4
          CFI FunCall _ZN3SPII4SPI1L_Z15spi1TransceiverEE8ReadByteEv
        BL       _ZN3SPII4SPI1L_Z15spi1TransceiverEE8ReadByteEv
          CFI FunCall _ZN3SPII4SPI1L_Z15spi1TransceiverEE33ReceiveBufNotEmptyInterruptEnableEv
        BL       _ZN3SPII4SPI1L_Z15spi1TransceiverEE33ReceiveBufNotEmptyInterruptEnableEv
??SendMessage_4:
          CFI FunCall _ZN3SPII4SPI1L_Z15spi1TransceiverEE32TransmiteBufEmptyInterruptEnableEv
        BL       _ZN3SPII4SPI1L_Z15spi1TransceiverEE32TransmiteBufEmptyInterruptEnableEv
        POP      {R4-R10,PC}      ;; return
          CFI EndBlock cfiBlock234

        SECTION `.text`:CODE:REORDER:NOROOT(1)
        SECTION_GROUP _ZN9SpiDriverI4Spi1E8SendByteEc
          CFI Block cfiBlock235 Using cfiCommon0
          CFI Function _ZN9SpiDriverI4Spi1E8SendByteEc
        THUMB
// __interwork __vfp void SpiDriver<Spi1>::SendByte(char)
_ZN9SpiDriverI4Spi1E8SendByteEc:
        PUSH     {R3-R5,LR}
          CFI R14 Frame(CFA, -4)
          CFI R5 Frame(CFA, -8)
          CFI R4 Frame(CFA, -12)
          CFI CFA R13+16
        MOVS     R4,R0
        MOVS     R5,R1
        MOVS     R0,#+0
        STRB     R0,[R4, #+409]
        MOVS     R0,#+1
        STR      R0,[R4, #+400]
        MOVS     R1,#+0
        MOVS     R0,R4
          CFI FunCall _ZNSt5arrayIcLj200EEixEj
        BL       _ZNSt5arrayIcLj200EEixEj
        STRB     R5,[R0, #+0]
        LDR      R0,[R4, #+404]
        CMP      R0,#+0
        BNE.N    ??SendByte_0
        MOVS     R0,#+1
        B.N      ??SendByte_1
??SendByte_0:
        MOVS     R0,#+0
??SendByte_1:
        STRB     R0,[R4, #+408]
          CFI FunCall _ZN3SPII4SPI1L_Z15spi1TransceiverEE8ReadByteEv
        BL       _ZN3SPII4SPI1L_Z15spi1TransceiverEE8ReadByteEv
        LDR      R0,[R4, #+404]
        CMP      R0,#+0
        BEQ.N    ??SendByte_2
          CFI FunCall _ZN3SPII4SPI1L_Z15spi1TransceiverEE8ReadByteEv
        BL       _ZN3SPII4SPI1L_Z15spi1TransceiverEE8ReadByteEv
          CFI FunCall _ZN3SPII4SPI1L_Z15spi1TransceiverEE33ReceiveBufNotEmptyInterruptEnableEv
        BL       _ZN3SPII4SPI1L_Z15spi1TransceiverEE33ReceiveBufNotEmptyInterruptEnableEv
??SendByte_2:
          CFI FunCall _ZN3SPII4SPI1L_Z15spi1TransceiverEE32TransmiteBufEmptyInterruptEnableEv
        BL       _ZN3SPII4SPI1L_Z15spi1TransceiverEE32TransmiteBufEmptyInterruptEnableEv
        POP      {R0,R4,R5,PC}    ;; return
          CFI EndBlock cfiBlock235

        SECTION `.text`:CODE:REORDER:NOROOT(1)
        SECTION_GROUP _ZN9SpiDriverI4Spi1E17IsMessageReceivedEv
          CFI Block cfiBlock236 Using cfiCommon0
          CFI Function _ZN9SpiDriverI4Spi1E17IsMessageReceivedEv
          CFI NoCalls
        THUMB
// __interwork __vfp bool SpiDriver<Spi1>::IsMessageReceived()
_ZN9SpiDriverI4Spi1E17IsMessageReceivedEv:
        LDRB     R0,[R0, #+408]
        BX       LR               ;; return
          CFI EndBlock cfiBlock236

        SECTION `.text`:CODE:REORDER:NOROOT(1)
        SECTION_GROUP _ZN9SpiDriverI4Spi1E10GetMessageEPc
          CFI Block cfiBlock237 Using cfiCommon0
          CFI Function _ZN9SpiDriverI4Spi1E10GetMessageEPc
        THUMB
// __interwork __vfp void SpiDriver<Spi1>::GetMessage(char *)
_ZN9SpiDriverI4Spi1E10GetMessageEPc:
        PUSH     {R4-R8,LR}
          CFI R14 Frame(CFA, -4)
          CFI R8 Frame(CFA, -8)
          CFI R7 Frame(CFA, -12)
          CFI R6 Frame(CFA, -16)
          CFI R5 Frame(CFA, -20)
          CFI R4 Frame(CFA, -24)
          CFI CFA R13+24
        MOVS     R4,R0
        MOVS     R5,R1
        ADDS     R0,R4,#+200
          CFI FunCall _ZNSt5arrayIcLj200EE4dataEv
        BL       _ZNSt5arrayIcLj200EE4dataEv
        MOVS     R6,R0
        LDR      R7,[R4, #+404]
        MOV      R8,R5
        MOVS     R2,R7
        MOVS     R1,R6
        MOV      R0,R8
          CFI FunCall __aeabi_memcpy
        BL       __aeabi_memcpy
        MOVS     R0,#+0
        STRB     R0,[R4, #+408]
        POP      {R4-R8,PC}       ;; return
          CFI EndBlock cfiBlock237

        SECTION `.text`:CODE:REORDER:NOROOT(1)
        SECTION_GROUP _ZN9SpiDriverI4Spi1E7GetByteEv
          CFI Block cfiBlock238 Using cfiCommon0
          CFI Function _ZN9SpiDriverI4Spi1E7GetByteEv
        THUMB
// __interwork __vfp char SpiDriver<Spi1>::GetByte()
_ZN9SpiDriverI4Spi1E7GetByteEv:
        PUSH     {R3-R5,LR}
          CFI R14 Frame(CFA, -4)
          CFI R5 Frame(CFA, -8)
          CFI R4 Frame(CFA, -12)
          CFI CFA R13+16
        MOVS     R4,R0
        MOVS     R0,#+0
        STRB     R0,[R4, #+408]
        MOVS     R1,#+0
        ADDS     R0,R4,#+200
          CFI FunCall _ZNSt5arrayIcLj200EEixEj
        BL       _ZNSt5arrayIcLj200EEixEj
        LDRB     R5,[R0, #+0]
        MOVS     R1,#+0
        ADDS     R0,R4,#+200
          CFI FunCall _ZNSt5arrayIcLj200EEixEj
        BL       _ZNSt5arrayIcLj200EEixEj
        MOVS     R1,#+0
        STRB     R1,[R0, #+0]
        MOVS     R0,R5
        UXTB     R0,R0            ;; ZeroExt  R0,R0,#+24,#+24
        POP      {R1,R4,R5,PC}    ;; return
          CFI EndBlock cfiBlock238

        SECTION `.text`:CODE:REORDER:NOROOT(1)
        SECTION_GROUP _ZN9SpiDriverI4Spi1E20SetReceivedMesLengthEj
          CFI Block cfiBlock239 Using cfiCommon0
          CFI Function _ZN9SpiDriverI4Spi1E20SetReceivedMesLengthEj
          CFI NoCalls
        THUMB
// __interwork __vfp void SpiDriver<Spi1>::SetReceivedMesLength(size_t)
_ZN9SpiDriverI4Spi1E20SetReceivedMesLengthEj:
        STR      R1,[R0, #+404]
        BX       LR               ;; return
          CFI EndBlock cfiBlock239

        SECTION `.text`:CODE:REORDER:NOROOT(1)
        SECTION_GROUP _ZN21SpiDriverOnlyTransmitI4Spi2E6EnableEv
          CFI Block cfiBlock240 Using cfiCommon0
          CFI Function _ZN21SpiDriverOnlyTransmitI4Spi2E6EnableEv
        THUMB
// __interwork __vfp void SpiDriverOnlyTransmit<Spi2>::Enable()
_ZN21SpiDriverOnlyTransmitI4Spi2E6EnableEv:
        PUSH     {R4,LR}
          CFI R14 Frame(CFA, -4)
          CFI R4 Frame(CFA, -8)
          CFI CFA R13+8
        MOVS     R4,R0
          CFI FunCall _ZN3SPII4SPI2L_Z15spi2TransceiverEE6EnableEv
        BL       _ZN3SPII4SPI2L_Z15spi2TransceiverEE6EnableEv
        POP      {R4,PC}          ;; return
          CFI EndBlock cfiBlock240

        SECTION `.text`:CODE:REORDER:NOROOT(1)
        SECTION_GROUP _ZN21SpiDriverOnlyTransmitI4Spi2E11SendMessageEPKcj
          CFI Block cfiBlock241 Using cfiCommon0
          CFI Function _ZN21SpiDriverOnlyTransmitI4Spi2E11SendMessageEPKcj
        THUMB
// __interwork __vfp void SpiDriverOnlyTransmit<Spi2>::SendMessage(char const *, size_t)
_ZN21SpiDriverOnlyTransmitI4Spi2E11SendMessageEPKcj:
        PUSH     {R3-R11,LR}
          CFI R14 Frame(CFA, -4)
          CFI R11 Frame(CFA, -8)
          CFI R10 Frame(CFA, -12)
          CFI R9 Frame(CFA, -16)
          CFI R8 Frame(CFA, -20)
          CFI R7 Frame(CFA, -24)
          CFI R6 Frame(CFA, -28)
          CFI R5 Frame(CFA, -32)
          CFI R4 Frame(CFA, -36)
          CFI CFA R13+40
        MOVS     R4,R0
        MOVS     R5,R1
        MOVS     R6,R2
        MOVW     R7,#+20004
        MOVS     R0,#+0
        STRB     R0,[R4, R7]
        MOV      R8,R6
        MOVS     R0,R4
          CFI FunCall _ZNKSt5arrayIcLj20000EE4sizeEv
        BL       _ZNKSt5arrayIcLj20000EE4sizeEv
        CMP      R0,R8
        BCS.N    ??SendMessage_5
        MOVS     R0,R4
          CFI FunCall _ZNKSt5arrayIcLj20000EE4sizeEv
        BL       _ZNKSt5arrayIcLj20000EE4sizeEv
        MOV      R8,R0
??SendMessage_5:
        MOVW     R10,#+20000
        STR      R8,[R4, R10]
        MOVS     R0,R4
          CFI FunCall _ZNSt5arrayIcLj20000EE4dataEv
        BL       _ZNSt5arrayIcLj20000EE4dataEv
        MOV      R9,R0
        LDR      R10,[R4, R10]
        MOV      R11,R5
        MOV      R2,R10
        MOV      R1,R11
        MOV      R0,R9
          CFI FunCall __aeabi_memcpy
        BL       __aeabi_memcpy
          CFI FunCall _ZN3SPII4SPI2L_Z15spi2TransceiverEE32TransmiteBufEmptyInterruptEnableEv
        BL       _ZN3SPII4SPI2L_Z15spi2TransceiverEE32TransmiteBufEmptyInterruptEnableEv
??SendMessage_6:
        LDRB     R0,[R4, R7]
        CMP      R0,#+0
        BEQ.N    ??SendMessage_6
        POP      {R0,R4-R11,PC}   ;; return
          CFI EndBlock cfiBlock241

        SECTION `.text`:CODE:REORDER:NOROOT(1)
        SECTION_GROUP _ZN21SpiDriverOnlyTransmitI4Spi2E8SendByteEc
          CFI Block cfiBlock242 Using cfiCommon0
          CFI Function _ZN21SpiDriverOnlyTransmitI4Spi2E8SendByteEc
        THUMB
// __interwork __vfp void SpiDriverOnlyTransmit<Spi2>::SendByte(char)
_ZN21SpiDriverOnlyTransmitI4Spi2E8SendByteEc:
        PUSH     {R4-R6,LR}
          CFI R14 Frame(CFA, -4)
          CFI R6 Frame(CFA, -8)
          CFI R5 Frame(CFA, -12)
          CFI R4 Frame(CFA, -16)
          CFI CFA R13+16
        MOVS     R4,R0
        MOVS     R5,R1
        MOVW     R6,#+20004
        MOVS     R0,#+0
        STRB     R0,[R4, R6]
        MOVS     R0,#+1
        MOVW     R1,#+20000
        STR      R0,[R4, R1]
        MOVS     R1,#+0
        MOVS     R0,R4
          CFI FunCall _ZNSt5arrayIcLj20000EEixEj
        BL       _ZNSt5arrayIcLj20000EEixEj
        STRB     R5,[R0, #+0]
          CFI FunCall _ZN3SPII4SPI2L_Z15spi2TransceiverEE32TransmiteBufEmptyInterruptEnableEv
        BL       _ZN3SPII4SPI2L_Z15spi2TransceiverEE32TransmiteBufEmptyInterruptEnableEv
??SendByte_3:
        LDRB     R0,[R4, R6]
        CMP      R0,#+0
        BEQ.N    ??SendByte_3
        POP      {R4-R6,PC}       ;; return
          CFI EndBlock cfiBlock242

        SECTION `.text`:CODE:REORDER:NOROOT(2)
        SECTION_GROUP _ZN12BME280DriverIL_Z15spi1TransceiverE3PinI4PortI5GPIOBELh10EEEC1Ev
          CFI Block cfiBlock243 Using cfiCommon0
          CFI Function _ZN12BME280DriverIL_Z15spi1TransceiverE3PinI4PortI5GPIOBELh10EEEC1Ev
        THUMB
// __code __interwork __vfp BME280Driver<spi1Transceiver, PinCSforBME280>::BME280Driver()
_ZN12BME280DriverIL_Z15spi1TransceiverE3PinI4PortI5GPIOBELh10EEEC1Ev:
        PUSH     {R4,LR}
          CFI R14 Frame(CFA, -4)
          CFI R4 Frame(CFA, -8)
          CFI CFA R13+8
        MOVS     R4,R0
        LDR.N    R0,??BME280Driver_0  ;; 0x21c6b
        STR      R0,[R4, #+72]
          CFI FunCall _ZN3PinI4PortI5GPIOBELh10EE3SetEv
        BL       _ZN3PinI4PortI5GPIOBELh10EE3SetEv
        LDR.N    R0,??BME280Driver_0+0x4
          CFI FunCall _ZN9SpiDriverI4Spi1E6EnableEv
        BL       _ZN9SpiDriverI4Spi1E6EnableEv
        MOVS     R0,R4
        POP      {R4,PC}          ;; return
        Nop      
        DATA
??BME280Driver_0:
        DATA32
        DC32     0x21c6b
        DC32     spi1Transceiver
          CFI EndBlock cfiBlock243

        SECTION `.text`:CODE:REORDER:NOROOT(1)
        SECTION_GROUP _ZN12BME280DriverIL_Z15spi1TransceiverE3PinI4PortI5GPIOBELh10EEE14GetTemperatureEv
          CFI Block cfiBlock244 Using cfiCommon0
          CFI Function _ZN12BME280DriverIL_Z15spi1TransceiverE3PinI4PortI5GPIOBELh10EEE14GetTemperatureEv
          CFI NoCalls
        THUMB
// __interwork __vfp double BME280Driver<spi1Transceiver, PinCSforBME280>::GetTemperature()
_ZN12BME280DriverIL_Z15spi1TransceiverE3PinI4PortI5GPIOBELh10EEE14GetTemperatureEv:
        VLDR     D0,[R0, #+40]
        BX       LR               ;; return
          CFI EndBlock cfiBlock244

        SECTION `.text`:CODE:REORDER:NOROOT(1)
        SECTION_GROUP _ZN12BME280DriverIL_Z15spi1TransceiverE3PinI4PortI5GPIOBELh10EEE11GetPressureEv
          CFI Block cfiBlock245 Using cfiCommon0
          CFI Function _ZN12BME280DriverIL_Z15spi1TransceiverE3PinI4PortI5GPIOBELh10EEE11GetPressureEv
          CFI NoCalls
        THUMB
// __interwork __vfp double BME280Driver<spi1Transceiver, PinCSforBME280>::GetPressure()
_ZN12BME280DriverIL_Z15spi1TransceiverE3PinI4PortI5GPIOBELh10EEE11GetPressureEv:
        VLDR     D0,[R0, #+48]
        BX       LR               ;; return
          CFI EndBlock cfiBlock245

        SECTION `.text`:CODE:REORDER:NOROOT(1)
        SECTION_GROUP _ZN12BME280DriverIL_Z15spi1TransceiverE3PinI4PortI5GPIOBELh10EEE11GetHumidityEv
          CFI Block cfiBlock246 Using cfiCommon0
          CFI Function _ZN12BME280DriverIL_Z15spi1TransceiverE3PinI4PortI5GPIOBELh10EEE11GetHumidityEv
          CFI NoCalls
        THUMB
// __interwork __vfp double BME280Driver<spi1Transceiver, PinCSforBME280>::GetHumidity()
_ZN12BME280DriverIL_Z15spi1TransceiverE3PinI4PortI5GPIOBELh10EEE11GetHumidityEv:
        VLDR     D0,[R0, #+56]
        BX       LR               ;; return
          CFI EndBlock cfiBlock246

        SECTION `.text`:CODE:REORDER:NOROOT(1)
        SECTION_GROUP _ZN12BME280DriverIL_Z15spi1TransceiverE3PinI4PortI5GPIOBELh10EEE11GetDewPointEv
          CFI Block cfiBlock247 Using cfiCommon0
          CFI Function _ZN12BME280DriverIL_Z15spi1TransceiverE3PinI4PortI5GPIOBELh10EEE11GetDewPointEv
          CFI NoCalls
        THUMB
// __interwork __vfp double BME280Driver<spi1Transceiver, PinCSforBME280>::GetDewPoint()
_ZN12BME280DriverIL_Z15spi1TransceiverE3PinI4PortI5GPIOBELh10EEE11GetDewPointEv:
        VLDR     D0,[R0, #+64]
        BX       LR               ;; return
          CFI EndBlock cfiBlock247

        SECTION `.text`:CODE:REORDER:NOROOT(2)
        SECTION_GROUP _ZN12BME280DriverIL_Z15spi1TransceiverE3PinI4PortI5GPIOBELh10EEE12ReadRegisterEc
          CFI Block cfiBlock248 Using cfiCommon0
          CFI Function _ZN12BME280DriverIL_Z15spi1TransceiverE3PinI4PortI5GPIOBELh10EEE12ReadRegisterEc
        THUMB
// __interwork __vfp char BME280Driver<spi1Transceiver, PinCSforBME280>::ReadRegister(char)
_ZN12BME280DriverIL_Z15spi1TransceiverE3PinI4PortI5GPIOBELh10EEE12ReadRegisterEc:
        PUSH     {R4-R6,LR}
          CFI R14 Frame(CFA, -4)
          CFI R6 Frame(CFA, -8)
          CFI R5 Frame(CFA, -12)
          CFI R4 Frame(CFA, -16)
          CFI CFA R13+16
        MOVS     R4,R0
        MOVS     R5,R1
          CFI FunCall _ZN3PinI4PortI5GPIOBELh10EE5ResetEv
        BL       _ZN3PinI4PortI5GPIOBELh10EE5ResetEv
        LDR.N    R6,??ReadRegister_0
        MOVS     R1,#+1
        MOVS     R0,R6
          CFI FunCall _ZN9SpiDriverI4Spi1E20SetReceivedMesLengthEj
        BL       _ZN9SpiDriverI4Spi1E20SetReceivedMesLengthEj
        ORRS     R1,R5,#0x80
        UXTB     R1,R1            ;; ZeroExt  R1,R1,#+24,#+24
        MOVS     R0,R6
          CFI FunCall _ZN9SpiDriverI4Spi1E8SendByteEc
        BL       _ZN9SpiDriverI4Spi1E8SendByteEc
??ReadRegister_1:
        MOVS     R0,R6
          CFI FunCall _ZN9SpiDriverI4Spi1E17IsMessageReceivedEv
        BL       _ZN9SpiDriverI4Spi1E17IsMessageReceivedEv
        CMP      R0,#+0
        BEQ.N    ??ReadRegister_1
          CFI FunCall _ZN3PinI4PortI5GPIOBELh10EE3SetEv
        BL       _ZN3PinI4PortI5GPIOBELh10EE3SetEv
        MOVS     R0,R6
          CFI FunCall _ZN9SpiDriverI4Spi1E7GetByteEv
        BL       _ZN9SpiDriverI4Spi1E7GetByteEv
        POP      {R4-R6,PC}       ;; return
        Nop      
        DATA
??ReadRegister_0:
        DATA32
        DC32     spi1Transceiver
          CFI EndBlock cfiBlock248

        SECTION `.text`:CODE:REORDER:NOROOT(2)
        SECTION_GROUP _ZN12BME280DriverIL_Z15spi1TransceiverE3PinI4PortI5GPIOBELh10EEE13WriteRegisterEcc
          CFI Block cfiBlock249 Using cfiCommon0
          CFI Function _ZN12BME280DriverIL_Z15spi1TransceiverE3PinI4PortI5GPIOBELh10EEE13WriteRegisterEcc
        THUMB
// __interwork __vfp void BME280Driver<spi1Transceiver, PinCSforBME280>::WriteRegister(char, char)
_ZN12BME280DriverIL_Z15spi1TransceiverE3PinI4PortI5GPIOBELh10EEE13WriteRegisterEcc:
        PUSH     {R3-R7,LR}
          CFI R14 Frame(CFA, -4)
          CFI R7 Frame(CFA, -8)
          CFI R6 Frame(CFA, -12)
          CFI R5 Frame(CFA, -16)
          CFI R4 Frame(CFA, -20)
          CFI CFA R13+24
        MOVS     R4,R0
        MOVS     R5,R1
        MOVS     R6,R2
        LDR.N    R7,??WriteRegister_0
        MOVS     R1,#+0
        MOVS     R0,R7
          CFI FunCall _ZN9SpiDriverI4Spi1E20SetReceivedMesLengthEj
        BL       _ZN9SpiDriverI4Spi1E20SetReceivedMesLengthEj
        ANDS     R0,R5,#0x7F
        STRB     R0,[SP, #+0]
        STRB     R6,[SP, #+1]
          CFI FunCall _ZN3PinI4PortI5GPIOBELh10EE5ResetEv
        BL       _ZN3PinI4PortI5GPIOBELh10EE5ResetEv
        MOVS     R2,#+2
        MOV      R1,SP
        MOVS     R0,R7
          CFI FunCall _ZN9SpiDriverI4Spi1E11SendMessageEPcj
        BL       _ZN9SpiDriverI4Spi1E11SendMessageEPcj
          CFI FunCall _ZN3PinI4PortI5GPIOBELh10EE3SetEv
        BL       _ZN3PinI4PortI5GPIOBELh10EE3SetEv
        POP      {R0,R4-R7,PC}    ;; return
        Nop      
        DATA
??WriteRegister_0:
        DATA32
        DC32     spi1Transceiver
          CFI EndBlock cfiBlock249

        SECTION `.text`:CODE:REORDER:NOROOT(2)
        SECTION_GROUP _ZN12BME280DriverIL_Z15spi1TransceiverE3PinI4PortI5GPIOBELh10EEE19ReadSpanOfRegistersEcPcj
          CFI Block cfiBlock250 Using cfiCommon0
          CFI Function _ZN12BME280DriverIL_Z15spi1TransceiverE3PinI4PortI5GPIOBELh10EEE19ReadSpanOfRegistersEcPcj
        THUMB
// __interwork __vfp void BME280Driver<spi1Transceiver, PinCSforBME280>::ReadSpanOfRegisters(char, char *, size_t)
_ZN12BME280DriverIL_Z15spi1TransceiverE3PinI4PortI5GPIOBELh10EEE19ReadSpanOfRegistersEcPcj:
        PUSH     {R4-R8,LR}
          CFI R14 Frame(CFA, -4)
          CFI R8 Frame(CFA, -8)
          CFI R7 Frame(CFA, -12)
          CFI R6 Frame(CFA, -16)
          CFI R5 Frame(CFA, -20)
          CFI R4 Frame(CFA, -24)
          CFI CFA R13+24
        MOVS     R4,R0
        MOVS     R5,R1
        MOVS     R6,R2
        MOVS     R7,R3
        LDR.W    R8,??ReadSpanOfRegisters_0
        MOVS     R1,R7
        MOV      R0,R8
          CFI FunCall _ZN9SpiDriverI4Spi1E20SetReceivedMesLengthEj
        BL       _ZN9SpiDriverI4Spi1E20SetReceivedMesLengthEj
          CFI FunCall _ZN3PinI4PortI5GPIOBELh10EE5ResetEv
        BL       _ZN3PinI4PortI5GPIOBELh10EE5ResetEv
        ORRS     R1,R5,#0x80
        UXTB     R1,R1            ;; ZeroExt  R1,R1,#+24,#+24
        MOV      R0,R8
          CFI FunCall _ZN9SpiDriverI4Spi1E8SendByteEc
        BL       _ZN9SpiDriverI4Spi1E8SendByteEc
??ReadSpanOfRegisters_1:
        MOV      R0,R8
          CFI FunCall _ZN9SpiDriverI4Spi1E17IsMessageReceivedEv
        BL       _ZN9SpiDriverI4Spi1E17IsMessageReceivedEv
        CMP      R0,#+0
        BEQ.N    ??ReadSpanOfRegisters_1
          CFI FunCall _ZN3PinI4PortI5GPIOBELh10EE3SetEv
        BL       _ZN3PinI4PortI5GPIOBELh10EE3SetEv
        MOVS     R1,R6
        MOV      R0,R8
          CFI FunCall _ZN9SpiDriverI4Spi1E10GetMessageEPc
        BL       _ZN9SpiDriverI4Spi1E10GetMessageEPc
        POP      {R4-R8,PC}       ;; return
        Nop      
        DATA
??ReadSpanOfRegisters_0:
        DATA32
        DC32     spi1Transceiver
          CFI EndBlock cfiBlock250

        SECTION `.text`:CODE:REORDER:NOROOT(1)
        SECTION_GROUP _ZN12BME280DriverIL_Z15spi1TransceiverE3PinI4PortI5GPIOBELh10EEE23InitializeCalibrateDataEv
          CFI Block cfiBlock251 Using cfiCommon0
          CFI Function _ZN12BME280DriverIL_Z15spi1TransceiverE3PinI4PortI5GPIOBELh10EEE23InitializeCalibrateDataEv
        THUMB
// __interwork __vfp void BME280Driver<spi1Transceiver, PinCSforBME280>::InitializeCalibrateData()
_ZN12BME280DriverIL_Z15spi1TransceiverE3PinI4PortI5GPIOBELh10EEE23InitializeCalibrateDataEv:
        PUSH     {R3-R7,LR}
          CFI R14 Frame(CFA, -4)
          CFI R7 Frame(CFA, -8)
          CFI R6 Frame(CFA, -12)
          CFI R5 Frame(CFA, -16)
          CFI R4 Frame(CFA, -20)
          CFI CFA R13+24
        MOVS     R4,R0
        MOVS     R3,#+24
        MOVS     R2,R4
        MOVS     R1,#+136
        MOVS     R0,R4
          CFI FunCall _ZN12BME280DriverIL_Z15spi1TransceiverE3PinI4PortI5GPIOBELh10EEE19ReadSpanOfRegistersEcPcj
        BL       _ZN12BME280DriverIL_Z15spi1TransceiverE3PinI4PortI5GPIOBELh10EEE19ReadSpanOfRegistersEcPcj
        MOVS     R1,#+161
        MOVS     R0,R4
          CFI FunCall _ZN12BME280DriverIL_Z15spi1TransceiverE3PinI4PortI5GPIOBELh10EEE12ReadRegisterEc
        BL       _ZN12BME280DriverIL_Z15spi1TransceiverE3PinI4PortI5GPIOBELh10EEE12ReadRegisterEc
        STRB     R0,[R4, #+24]
        MOVS     R3,#+3
        ADDS     R2,R4,#+25
        MOVS     R1,#+225
        MOVS     R0,R4
          CFI FunCall _ZN12BME280DriverIL_Z15spi1TransceiverE3PinI4PortI5GPIOBELh10EEE19ReadSpanOfRegistersEcPcj
        BL       _ZN12BME280DriverIL_Z15spi1TransceiverE3PinI4PortI5GPIOBELh10EEE19ReadSpanOfRegistersEcPcj
        MOVS     R1,#+228
        MOVS     R0,R4
          CFI FunCall _ZN12BME280DriverIL_Z15spi1TransceiverE3PinI4PortI5GPIOBELh10EEE12ReadRegisterEc
        BL       _ZN12BME280DriverIL_Z15spi1TransceiverE3PinI4PortI5GPIOBELh10EEE12ReadRegisterEc
        MOVS     R5,R0
        MOVS     R1,#+229
        MOVS     R0,R4
          CFI FunCall _ZN12BME280DriverIL_Z15spi1TransceiverE3PinI4PortI5GPIOBELh10EEE12ReadRegisterEc
        BL       _ZN12BME280DriverIL_Z15spi1TransceiverE3PinI4PortI5GPIOBELh10EEE12ReadRegisterEc
        MOVS     R6,R0
        MOVS     R1,#+230
        MOVS     R0,R4
          CFI FunCall _ZN12BME280DriverIL_Z15spi1TransceiverE3PinI4PortI5GPIOBELh10EEE12ReadRegisterEc
        BL       _ZN12BME280DriverIL_Z15spi1TransceiverE3PinI4PortI5GPIOBELh10EEE12ReadRegisterEc
        MOVS     R7,R0
        ANDS     R0,R6,#0xF
        ORRS     R0,R0,R5, LSL #+4
        STRH     R0,[R4, #+28]
        UBFX     R0,R6,#+4,#+4
        ORRS     R0,R0,R7, LSL #+4
        STRH     R0,[R4, #+30]
        MOVS     R1,#+231
        MOVS     R0,R4
          CFI FunCall _ZN12BME280DriverIL_Z15spi1TransceiverE3PinI4PortI5GPIOBELh10EEE12ReadRegisterEc
        BL       _ZN12BME280DriverIL_Z15spi1TransceiverE3PinI4PortI5GPIOBELh10EEE12ReadRegisterEc
        STRB     R0,[R4, #+32]
        POP      {R0,R4-R7,PC}    ;; return
          CFI EndBlock cfiBlock251

        SECTION `.text`:CODE:REORDER:NOROOT(1)
        SECTION_GROUP _ZN12BME280DriverIL_Z15spi1TransceiverE3PinI4PortI5GPIOBELh10EEE17StartMeasurementsEv
          CFI Block cfiBlock252 Using cfiCommon0
          CFI Function _ZN12BME280DriverIL_Z15spi1TransceiverE3PinI4PortI5GPIOBELh10EEE17StartMeasurementsEv
        THUMB
// __interwork __vfp void BME280Driver<spi1Transceiver, PinCSforBME280>::StartMeasurements()
_ZN12BME280DriverIL_Z15spi1TransceiverE3PinI4PortI5GPIOBELh10EEE17StartMeasurementsEv:
        PUSH     {R4,LR}
          CFI R14 Frame(CFA, -4)
          CFI R4 Frame(CFA, -8)
          CFI CFA R13+8
        MOVS     R4,R0
        MOVS     R2,#+1
        MOVS     R1,#+242
        MOVS     R0,R4
          CFI FunCall _ZN12BME280DriverIL_Z15spi1TransceiverE3PinI4PortI5GPIOBELh10EEE13WriteRegisterEcc
        BL       _ZN12BME280DriverIL_Z15spi1TransceiverE3PinI4PortI5GPIOBELh10EEE13WriteRegisterEcc
        MOVS     R2,#+39
        MOVS     R1,#+244
        MOVS     R0,R4
          CFI FunCall _ZN12BME280DriverIL_Z15spi1TransceiverE3PinI4PortI5GPIOBELh10EEE13WriteRegisterEcc
        BL       _ZN12BME280DriverIL_Z15spi1TransceiverE3PinI4PortI5GPIOBELh10EEE13WriteRegisterEcc
        POP      {R4,PC}          ;; return
          CFI EndBlock cfiBlock252

        SECTION `.text`:CODE:REORDER:NOROOT(1)
        SECTION_GROUP _ZN12BME280DriverIL_Z15spi1TransceiverE3PinI4PortI5GPIOBELh10EEE7MeasureEv
          CFI Block cfiBlock253 Using cfiCommon0
          CFI Function _ZN12BME280DriverIL_Z15spi1TransceiverE3PinI4PortI5GPIOBELh10EEE7MeasureEv
        THUMB
// __interwork __vfp void BME280Driver<spi1Transceiver, PinCSforBME280>::Measure()
_ZN12BME280DriverIL_Z15spi1TransceiverE3PinI4PortI5GPIOBELh10EEE7MeasureEv:
        PUSH     {R4,LR}
          CFI R14 Frame(CFA, -4)
          CFI R4 Frame(CFA, -8)
          CFI CFA R13+8
        MOVS     R4,R0
        MOVS     R0,R4
          CFI FunCall _ZN12BME280DriverIL_Z15spi1TransceiverE3PinI4PortI5GPIOBELh10EEE15ReadTemperatureEv
        BL       _ZN12BME280DriverIL_Z15spi1TransceiverE3PinI4PortI5GPIOBELh10EEE15ReadTemperatureEv
        VMOV     R0,S0
          CFI FunCall __aeabi_f2d
        BL       __aeabi_f2d
        STRD     R0,R1,[R4, #+40]
        MOVS     R0,R4
          CFI FunCall _ZN12BME280DriverIL_Z15spi1TransceiverE3PinI4PortI5GPIOBELh10EEE12ReadPressureEv
        BL       _ZN12BME280DriverIL_Z15spi1TransceiverE3PinI4PortI5GPIOBELh10EEE12ReadPressureEv
        VMOV     R0,S0
          CFI FunCall __aeabi_f2d
        BL       __aeabi_f2d
        STRD     R0,R1,[R4, #+48]
        MOVS     R0,R4
          CFI FunCall _ZN12BME280DriverIL_Z15spi1TransceiverE3PinI4PortI5GPIOBELh10EEE12ReadHumidityEv
        BL       _ZN12BME280DriverIL_Z15spi1TransceiverE3PinI4PortI5GPIOBELh10EEE12ReadHumidityEv
        VMOV     R0,S0
          CFI FunCall __aeabi_f2d
        BL       __aeabi_f2d
        STRD     R0,R1,[R4, #+56]
        MOVS     R0,R4
          CFI FunCall _ZN12BME280DriverIL_Z15spi1TransceiverE3PinI4PortI5GPIOBELh10EEE12CalcDewPointEv
        BL       _ZN12BME280DriverIL_Z15spi1TransceiverE3PinI4PortI5GPIOBELh10EEE12CalcDewPointEv
        VMOV     R0,S0
          CFI FunCall __aeabi_f2d
        BL       __aeabi_f2d
        STRD     R0,R1,[R4, #+64]
        POP      {R4,PC}          ;; return
          CFI EndBlock cfiBlock253

        SECTION `.text`:CODE:REORDER:NOROOT(2)
        SECTION_GROUP _ZN12BME280DriverIL_Z15spi1TransceiverE3PinI4PortI5GPIOBELh10EEE15ReadTemperatureEv
          CFI Block cfiBlock254 Using cfiCommon0
          CFI Function _ZN12BME280DriverIL_Z15spi1TransceiverE3PinI4PortI5GPIOBELh10EEE15ReadTemperatureEv
        THUMB
// __interwork __vfp float BME280Driver<spi1Transceiver, PinCSforBME280>::ReadTemperature()
_ZN12BME280DriverIL_Z15spi1TransceiverE3PinI4PortI5GPIOBELh10EEE15ReadTemperatureEv:
        PUSH     {R3-R5,LR}
          CFI R14 Frame(CFA, -4)
          CFI R5 Frame(CFA, -8)
          CFI R4 Frame(CFA, -12)
          CFI CFA R13+16
        MOVS     R4,R0
        MOVS     R1,#+3
        MOVS     R2,#+0
        MOV      R5,SP
        MOVS     R0,R5
          CFI FunCall __aeabi_memset
        BL       __aeabi_memset
        MOVS     R3,#+3
        MOV      R2,SP
        MOVS     R1,#+250
        MOVS     R0,R4
          CFI FunCall _ZN12BME280DriverIL_Z15spi1TransceiverE3PinI4PortI5GPIOBELh10EEE19ReadSpanOfRegistersEcPcj
        BL       _ZN12BME280DriverIL_Z15spi1TransceiverE3PinI4PortI5GPIOBELh10EEE19ReadSpanOfRegistersEcPcj
        MOV      R0,SP
        LDRB     R1,[SP, #+0]
        LDRB     R2,[R0, #+1]
        LSLS     R2,R2,#+8
        ADDS     R2,R2,R1, LSL #+16
        LDRB     R0,[R0, #+2]
        ADDS     R1,R2,R0
        LSRS     R1,R1,#+4
        MOVS     R2,R1
        LSRS     R2,R2,#+3
        LDRH     R0,[R4, #+0]
        SUBS     R2,R2,R0, LSL #+1
        LDRSH    R0,[R4, #+2]
        MULS     R2,R0,R2
        LSRS     R2,R2,#+11
        LDRH     R3,[R4, #+0]
        RSBS     R3,R3,R1, LSR #+4
        LDRH     R0,[R4, #+0]
        RSBS     R0,R0,R1, LSR #+4
        MULS     R3,R0,R3
        LSRS     R3,R3,#+12
        LDRSH    R0,[R4, #+4]
        MULS     R3,R0,R3
        LSRS     R3,R3,#+14
        ADDS     R0,R3,R2
        MOVS     R5,#+5
        MUL      R5,R5,R0
        ADDS     R5,R5,#+128
        LSRS     R5,R5,#+8
        VMOV     S0,R5
        VCVT.F32.U32 S0,S0
        VLDR.W   S1,??ReadTemperature_0  ;; 0x42c80000
        VDIV.F32 S0,S0,S1
        POP      {R0,R4,R5,PC}    ;; return
        DATA
??ReadTemperature_0:
        DATA32
        DC32     0x42c80000
          CFI EndBlock cfiBlock254

        SECTION `.text`:CODE:REORDER:NOROOT(2)
        SECTION_GROUP _ZN12BME280DriverIL_Z15spi1TransceiverE3PinI4PortI5GPIOBELh10EEE12ReadPressureEv
          CFI Block cfiBlock255 Using cfiCommon0
          CFI Function _ZN12BME280DriverIL_Z15spi1TransceiverE3PinI4PortI5GPIOBELh10EEE12ReadPressureEv
        THUMB
// __interwork __vfp float BME280Driver<spi1Transceiver, PinCSforBME280>::ReadPressure()
_ZN12BME280DriverIL_Z15spi1TransceiverE3PinI4PortI5GPIOBELh10EEE12ReadPressureEv:
        PUSH     {R3-R11,LR}
          CFI R14 Frame(CFA, -4)
          CFI R11 Frame(CFA, -8)
          CFI R10 Frame(CFA, -12)
          CFI R9 Frame(CFA, -16)
          CFI R8 Frame(CFA, -20)
          CFI R7 Frame(CFA, -24)
          CFI R6 Frame(CFA, -28)
          CFI R5 Frame(CFA, -32)
          CFI R4 Frame(CFA, -36)
          CFI CFA R13+40
        SUB      SP,SP,#+16
          CFI CFA R13+56
        MOV      R10,R0
        MOVS     R1,#+3
        MOVS     R2,#+0
        MOV      R4,SP
        MOVS     R0,R4
          CFI FunCall __aeabi_memset
        BL       __aeabi_memset
        MOVS     R3,#+3
        MOV      R2,SP
        MOVS     R1,#+247
        MOV      R0,R10
          CFI FunCall _ZN12BME280DriverIL_Z15spi1TransceiverE3PinI4PortI5GPIOBELh10EEE19ReadSpanOfRegistersEcPcj
        BL       _ZN12BME280DriverIL_Z15spi1TransceiverE3PinI4PortI5GPIOBELh10EEE19ReadSpanOfRegistersEcPcj
        LDRB     R0,[SP, #+0]
        LDRB     R1,[SP, #+1]
        LSLS     R1,R1,#+8
        ADDS     R1,R1,R0, LSL #+16
        LDRB     R0,[SP, #+2]
        UXTAB    R11,R1,R0
        LSRS     R11,R11,#+4
        LDR      R0,[R10, #+72]
        MOVS     R1,#+0
        SUBS     R0,R0,#+128000
        SBCS     R1,R1,#+0
        UMULL    R2,R3,R0,R0
        MLA      R3,R0,R1,R3
        MLA      R3,R1,R0,R3
        LDRSH    R6,[R10, #+16]
        ASRS     R7,R6,#+31
        UMULL    R4,R5,R6,R2
        MLA      R5,R6,R3,R5
        MLA      R5,R7,R2,R5
        LDRSH    R2,[R10, #+14]
        ASRS     R3,R2,#+31
        UMULL    R6,R7,R2,R0
        MLA      R7,R2,R1,R7
        MLA      R7,R3,R0,R7
        LSLS     R7,R7,#+17
        ORR      R7,R7,R6, LSR #+15
        LSLS     R6,R6,#+17
        ADDS     R4,R4,R6
        ADCS     R5,R5,R7
        LDRSH    R2,[R10, #+12]
        ASRS     R3,R2,#+31
        LSLS     R3,R2,#+3
        MOVS     R2,#+0
        ADDS     R2,R4,R2
        ADCS     R3,R5,R3
        STRD     R2,R3,[SP, #+8]
        UMULL    R4,R5,R0,R0
        MLA      R5,R0,R1,R5
        MLA      R5,R1,R0,R5
        LDRSH    R6,[R10, #+10]
        ASRS     R7,R6,#+31
        UMULL    R2,R3,R6,R4
        MLA      R3,R6,R5,R3
        MLA      R3,R7,R4,R3
        LSRS     R2,R2,#+8
        ORR      R2,R2,R3, LSL #+24
        ASRS     R3,R3,#+8
        LDRSH    R4,[R10, #+8]
        ASRS     R5,R4,#+31
        UMULL    R6,R7,R4,R0
        MLA      R7,R4,R1,R7
        MLA      R7,R5,R0,R7
        LSLS     R7,R7,#+12
        ORR      R7,R7,R6, LSR #+20
        LSLS     R6,R6,#+12
        ADDS     R0,R2,R6
        ADCS     R1,R3,R7
        ADDS     R2,R0,#+0
        ADCS     R3,R1,#+32768
        LDRH     R0,[R10, #+6]
        MOVS     R1,#+0
        UMULL    R4,R5,R0,R2
        MLA      R5,R0,R3,R5
        MLA      R5,R1,R2,R5
        ASRS     R4,R5,#+1
        ASRS     R5,R5,#+31
        CMP      R5,#+0
        BNE.N    ??ReadPressure_1
        CMP      R4,#+0
        BNE.N    ??ReadPressure_1
        VLDR.W   S0,??ReadPressure_0  ;; 0x0
        B.N      ??ReadPressure_2
??ReadPressure_1:
        RSBS     R0,R11,#+1048576
        MOVS     R1,#+0
        LSLS     R1,R1,#+31
        ORR      R1,R1,R0, LSR #+1
        LSLS     R0,R0,#+31
        LDRD     R2,R3,[SP, #+8]
        SUBS     R2,R0,R2
        SBCS     R3,R1,R3
        MOVW     R6,#+3125
        MOVS     R7,#+0
        UMULL    R0,R1,R6,R2
        MLA      R1,R6,R3,R1
        MLA      R1,R7,R2,R1
        MOVS     R2,R4
        MOVS     R3,R5
          CFI FunCall __aeabi_ldivmod
        BL       __aeabi_ldivmod
        MOVS     R2,R0
        MOVS     R3,R1
        LDRSH    R6,[R10, #+22]
        ASRS     R7,R6,#+31
        MOVS     R0,R2
        MOVS     R1,R3
        LSRS     R0,R0,#+13
        ORR      R0,R0,R1, LSL #+19
        ASRS     R1,R1,#+13
        UMULL    R8,R9,R0,R6
        MLA      R9,R0,R7,R9
        MLA      R9,R1,R6,R9
        MOVS     R0,R2
        MOVS     R1,R3
        LSRS     R0,R0,#+13
        ORR      R0,R0,R1, LSL #+19
        ASRS     R1,R1,#+13
        UMULL    R6,R7,R0,R8
        MLA      R7,R0,R9,R7
        MLA      R7,R1,R8,R7
        LSRS     R6,R6,#+25
        ORR      R6,R6,R7, LSL #+7
        ASRS     R7,R7,#+25
        LDRSH    R0,[R10, #+20]
        ASRS     R1,R0,#+31
        UMULL    R8,R9,R2,R0
        MLA      R9,R2,R1,R9
        MLA      R9,R3,R0,R9
        LSRS     R8,R8,#+19
        ORR      R8,R8,R9, LSL #+13
        ASRS     R9,R9,#+19
        STRD     R8,R9,[SP, #+8]
        ADDS     R0,R2,R6
        ADCS     R1,R3,R7
        LDRD     R2,R3,[SP, #+8]
        ADDS     R0,R0,R2
        ADCS     R1,R1,R3
        LSRS     R0,R0,#+8
        ORR      R0,R0,R1, LSL #+24
        ASRS     R1,R1,#+8
        LDRSH    R2,[R10, #+18]
        ASRS     R3,R2,#+31
        LSLS     R3,R3,#+4
        ORR      R3,R3,R2, LSR #+28
        LSLS     R2,R2,#+4
        ADDS     R8,R0,R2
        ADCS     R9,R1,R3
        STR      R8,[R10, #+76]
        MOV      R0,R8
        MOV      R1,R9
          CFI FunCall __aeabi_l2f
        BL       __aeabi_l2f
        VMOV     S0,R0
        VLDR.W   S1,??ReadPressure_0+0x4  ;; 0x46c80000
        VDIV.F32 S0,S0,S1
??ReadPressure_2:
        ADD      SP,SP,#+20
          CFI CFA R13+36
        POP      {R4-R11,PC}      ;; return
        Nop      
        DATA
??ReadPressure_0:
        DATA32
        DC32     0x0
        DC32     0x46c80000
          CFI EndBlock cfiBlock255

        SECTION `.text`:CODE:REORDER:NOROOT(2)
        SECTION_GROUP _ZN12BME280DriverIL_Z15spi1TransceiverE3PinI4PortI5GPIOBELh10EEE12ReadHumidityEv
          CFI Block cfiBlock256 Using cfiCommon0
          CFI Function _ZN12BME280DriverIL_Z15spi1TransceiverE3PinI4PortI5GPIOBELh10EEE12ReadHumidityEv
        THUMB
// __interwork __vfp float BME280Driver<spi1Transceiver, PinCSforBME280>::ReadHumidity()
_ZN12BME280DriverIL_Z15spi1TransceiverE3PinI4PortI5GPIOBELh10EEE12ReadHumidityEv:
        PUSH     {R2-R6,LR}
          CFI R14 Frame(CFA, -4)
          CFI R6 Frame(CFA, -8)
          CFI R5 Frame(CFA, -12)
          CFI R4 Frame(CFA, -16)
          CFI CFA R13+24
        MOVS     R4,R0
        MOVS     R1,#+2
        MOVS     R2,#+0
        MOV      R5,SP
        MOVS     R0,R5
          CFI FunCall __aeabi_memset
        BL       __aeabi_memset
        MOVS     R3,#+2
        MOV      R2,SP
        MOVS     R1,#+253
        MOVS     R0,R4
          CFI FunCall _ZN12BME280DriverIL_Z15spi1TransceiverE3PinI4PortI5GPIOBELh10EEE19ReadSpanOfRegistersEcPcj
        BL       _ZN12BME280DriverIL_Z15spi1TransceiverE3PinI4PortI5GPIOBELh10EEE19ReadSpanOfRegistersEcPcj
        LDRB     R0,[SP, #+0]
        LSLS     R0,R0,#+8
        LDRB     R1,[SP, #+1]
        UXTAB    R1,R0,R1
        MOVS     R2,R1
        UXTH     R2,R2            ;; ZeroExt  R2,R2,#+16,#+16
        LDR      R3,[R4, #+72]
        SUBS     R3,R3,#+76800
        LSLS     R5,R2,#+14
        LDRSH    R0,[R4, #+28]
        SUBS     R5,R5,R0, LSL #+20
        LDRSH    R0,[R4, #+30]
        MLS      R5,R3,R0,R5
        ADDS     R5,R5,#+16384
        ASRS     R5,R5,#+15
        LDRSB    R6,[R4, #+32]
        MUL      R6,R6,R3
        ASRS     R6,R6,#+10
        LDRB     R0,[R4, #+27]
        MULS     R3,R0,R3
        ASRS     R3,R3,#+11
        ADDS     R3,R3,#+32768
        MUL      R3,R3,R6
        ASRS     R3,R3,#+10
        ADDS     R3,R3,#+2097152
        LDRSH    R0,[R4, #+25]
        MULS     R3,R0,R3
        ADDS     R3,R3,#+8192
        ASRS     R3,R3,#+14
        MUL      R3,R3,R5
        MOVS     R5,R3
        ASRS     R5,R5,#+15
        MOVS     R0,R3
        ASRS     R0,R0,#+15
        MULS     R5,R0,R5
        ASRS     R5,R5,#+7
        LDRB     R0,[R4, #+24]
        MULS     R5,R0,R5
        SUBS     R3,R3,R5, ASR #+4
        CMP      R3,#+0
        BPL.N    ??ReadHumidity_1
        MOVS     R3,#+0
        B.N      ??ReadHumidity_2
??ReadHumidity_1:
??ReadHumidity_2:
        LDR.N    R0,??ReadHumidity_0+0x4  ;; 0x19000001
        CMP      R3,R0
        BLT.N    ??ReadHumidity_3
        MOVS     R3,#+419430400
        B.N      ??ReadHumidity_4
??ReadHumidity_3:
??ReadHumidity_4:
        MOVS     R0,R3
        ASRS     R0,R0,#+12
        VMOV     S0,R0
        VCVT.F32.S32 S0,S0
        VLDR.W   S1,??ReadHumidity_0  ;; 0x44800000
        VDIV.F32 S0,S0,S1
        POP      {R0,R1,R4-R6,PC}  ;; return
        DATA
??ReadHumidity_0:
        DATA32
        DC32     0x44800000
        DC32     0x19000001
          CFI EndBlock cfiBlock256

        SECTION `.text`:CODE:REORDER:NOROOT(2)
        SECTION_GROUP _ZN12BME280DriverIL_Z15spi1TransceiverE3PinI4PortI5GPIOBELh10EEE12CalcDewPointEv
          CFI Block cfiBlock257 Using cfiCommon0
          CFI Function _ZN12BME280DriverIL_Z15spi1TransceiverE3PinI4PortI5GPIOBELh10EEE12CalcDewPointEv
        THUMB
// __interwork __vfp float BME280Driver<spi1Transceiver, PinCSforBME280>::CalcDewPoint()
_ZN12BME280DriverIL_Z15spi1TransceiverE3PinI4PortI5GPIOBELh10EEE12CalcDewPointEv:
        PUSH     {R4,LR}
          CFI R14 Frame(CFA, -4)
          CFI R4 Frame(CFA, -8)
          CFI CFA R13+8
        VPUSH    {D8-D10}
          CFI D10 Frame(CFA, -16)
          CFI D9 Frame(CFA, -24)
          CFI D8 Frame(CFA, -32)
          CFI CFA R13+32
        MOVS     R4,R0
        VLDR.W   S16,??CalcDewPoint_0  ;; 0x418a28f6
        VLDR.W   S17,??CalcDewPoint_0+0x4  ;; 0x436db333
        LDRD     R0,R1,[R4, #+40]
          CFI FunCall __aeabi_d2f
        BL       __aeabi_d2f
        VMOV     S18,R0
        LDRD     R0,R1,[R4, #+56]
        MOVS     R2,#+0
        LDR.N    R3,??CalcDewPoint_0+0x8  ;; 0x40590000
          CFI FunCall __aeabi_ddiv
        BL       __aeabi_ddiv
          CFI FunCall __aeabi_d2f
        BL       __aeabi_d2f
        VMOV     S19,R0
        VMOV.F32 S20,S19
        VMOV.F32 S0,S20
          CFI FunCall logf
        BL       logf
        VMUL.F32 S1,S16,S18
        VADD.F32 S2,S17,S18
        VDIV.F32 S1,S1,S2
        VADD.F32 S1,S1,S0
        VMUL.F32 S0,S17,S1
        VSUB.F32 S2,S16,S1
        VDIV.F32 S0,S0,S2
        VPOP     {D8-D10}
          CFI D8 SameValue
          CFI D9 SameValue
          CFI D10 SameValue
          CFI CFA R13+8
        POP      {R4,PC}          ;; return
        Nop      
        DATA
??CalcDewPoint_0:
        DATA32
        DC32     0x418a28f6
        DC32     0x436db333
        DC32     0x40590000
          CFI EndBlock cfiBlock257

        SECTION `.text`:CODE:REORDER:NOROOT(1)
        SECTION_GROUP _ZN11MeasurementD2Ev
          CFI Block cfiBlock258 Using cfiCommon0
          CFI Function _ZN11MeasurementD2Ev
        THUMB
// __code __interwork __vfp Measurement::subobject ~Measurement()
_ZN11MeasurementD2Ev:
        PUSH     {R4,LR}
          CFI R14 Frame(CFA, -4)
          CFI R4 Frame(CFA, -8)
          CFI CFA R13+8
        MOVS     R4,R0
        MOVS     R0,R4
          CFI FunCall _ZN11MeasurementD1Ev
        BL       _ZN11MeasurementD1Ev
        POP      {R4,PC}          ;; return
          CFI EndBlock cfiBlock258

        SECTION `.text`:CODE:REORDER:NOROOT(2)
        SECTION_GROUP _ZN11MeasurementD1Ev
          CFI Block cfiBlock259 Using cfiCommon0
          CFI Function _ZN11MeasurementD1Ev
        THUMB
// __code __interwork __vfp Measurement::~Measurement()
_ZN11MeasurementD1Ev:
        PUSH     {R4,LR}
          CFI R14 Frame(CFA, -4)
          CFI R4 Frame(CFA, -8)
          CFI CFA R13+8
        MOVS     R4,R0
        LDR.N    R0,`?~Measurement_0`
        STR      R0,[R4, #+0]
        ADDS     R0,R4,#+20
          CFI FunCall _ZNSsD1Ev
        BL       _ZNSsD1Ev
        MOVS     R0,R4
        POP      {R4,PC}          ;; return
        DATA
`?~Measurement_0`:
        DATA32
        DC32     _ZTV11Measurement+0x8
          CFI EndBlock cfiBlock259

        SECTION `.text`:CODE:REORDER:NOROOT(1)
        SECTION_GROUP _ZN11MeasurementC2ESsP4UnitjS0_PFdvE
          CFI Block cfiBlock260 Using cfiCommon0
          CFI Function _ZN11MeasurementC2ESsP4UnitjS0_PFdvE
        THUMB
// __code __interwork __vfp Measurement::subobject Measurement(std::string *, Unit *, size_t, Unit, double (*)())
_ZN11MeasurementC2ESsP4UnitjS0_PFdvE:
        PUSH     {R2-R4,LR}
          CFI R14 Frame(CFA, -4)
          CFI R4 Frame(CFA, -8)
          CFI CFA R13+16
        MOVS     R4,R0
        LDR      R0,[SP, #+20]
        STR      R0,[SP, #+4]
        LDR      R0,[SP, #+16]
        STR      R0,[SP, #+0]
        MOVS     R0,R4
          CFI FunCall _ZN11MeasurementC1ESsP4UnitjS0_PFdvE
        BL       _ZN11MeasurementC1ESsP4UnitjS0_PFdvE
        POP      {R1,R2,R4,PC}    ;; return
          CFI EndBlock cfiBlock260

        SECTION `.text`:CODE:REORDER:NOROOT(2)
        SECTION_GROUP _ZN11MeasurementC1ESsP4UnitjS0_PFdvE
          CFI Block cfiBlock261 Using cfiCommon0
          CFI Function _ZN11MeasurementC1ESsP4UnitjS0_PFdvE
        THUMB
// __code __interwork __vfp Measurement::Measurement(std::string, Unit *, size_t, Unit, double (*)())
_ZN11MeasurementC1ESsP4UnitjS0_PFdvE:
        PUSH     {R3-R9,LR}
          CFI R14 Frame(CFA, -4)
          CFI R9 Frame(CFA, -8)
          CFI R8 Frame(CFA, -12)
          CFI R7 Frame(CFA, -16)
          CFI R6 Frame(CFA, -20)
          CFI R5 Frame(CFA, -24)
          CFI R4 Frame(CFA, -28)
          CFI CFA R13+32
        MOVS     R4,R0
        MOVS     R5,R1
        MOVS     R6,R2
        MOVS     R7,R3
        LDR      R8,[SP, #+32]
        LDR      R9,[SP, #+36]
        LDR.N    R0,??Measurement_0
        STR      R0,[R4, #+0]
        STR      R9,[R4, #+4]
        STR      R6,[R4, #+8]
        STR      R7,[R4, #+12]
        STR      R8,[R4, #+16]
        MOVS     R1,R5
        ADDS     R0,R4,#+20
          CFI FunCall _ZNSsC1ERKSs
        BL       _ZNSsC1ERKSs
        MOV      R1,R8
        MOVS     R0,R4
          CFI FunCall _ZN11Measurement9CheckUnitE4Unit
        BL       _ZN11Measurement9CheckUnitE4Unit
        CMP      R0,#+0
        BNE.N    ??Measurement_2
        MOVS     R2,#+27
        LDR.N    R1,??Measurement_0+0x4
        LDR.N    R0,??Measurement_0+0x8
          CFI FunCall __aeabi_assert
        BL       __aeabi_assert
          CFI FunCall __iar_EmptyStepPoint
        BL       __iar_EmptyStepPoint
??Measurement_2:
        MOVS     R0,R4
        POP      {R1,R4-R9,PC}    ;; return
        Nop      
        DATA
??Measurement_0:
        DATA32
        DC32     _ZTV11Measurement+0x8
        DC32     _ZZN11MeasurementC1ESsP4UnitjS0_PFdvEEs_1
        DC32     _ZZN11MeasurementC1ESsP4UnitjS0_PFdvEEs_0
          CFI EndBlock cfiBlock261

        SECTION `.text`:CODE:REORDER:NOROOT(2)
        SECTION_GROUP _ZN11MeasurementC1ESs4UnitPFdvE
          CFI Block cfiBlock262 Using cfiCommon0
          CFI Function _ZN11MeasurementC1ESs4UnitPFdvE
        THUMB
// __code __interwork __vfp Measurement::Measurement(std::string, Unit, double (*)())
_ZN11MeasurementC1ESs4UnitPFdvE:
        PUSH     {R3-R7,LR}
          CFI R14 Frame(CFA, -4)
          CFI R7 Frame(CFA, -8)
          CFI R6 Frame(CFA, -12)
          CFI R5 Frame(CFA, -16)
          CFI R4 Frame(CFA, -20)
          CFI CFA R13+24
        MOVS     R4,R0
        MOVS     R5,R1
        MOVS     R6,R2
        MOVS     R7,R3
        LDR.N    R0,??Measurement_1
        STR      R0,[R4, #+0]
        STR      R7,[R4, #+4]
        ADDS     R0,R4,#+16
        STR      R0,[R4, #+8]
        MOVS     R0,#+1
        STR      R0,[R4, #+12]
        STR      R6,[R4, #+16]
        MOVS     R1,R5
        ADDS     R0,R4,#+20
          CFI FunCall _ZNSsC1ERKSs
        BL       _ZNSsC1ERKSs
        MOVS     R0,R4
        POP      {R1,R4-R7,PC}    ;; return
        Nop      
        DATA
??Measurement_1:
        DATA32
        DC32     _ZTV11Measurement+0x8
          CFI EndBlock cfiBlock262

        SECTION `.text`:CODE:REORDER:NOROOT(1)
        SECTION_GROUP _ZN11Measurement8GetValueEv
          CFI Block cfiBlock263 Using cfiCommon0
          CFI Function _ZN11Measurement8GetValueEv
        THUMB
// __interwork __vfp double Measurement::GetValue()
_ZN11Measurement8GetValueEv:
        PUSH     {R4,LR}
          CFI R14 Frame(CFA, -4)
          CFI R4 Frame(CFA, -8)
          CFI CFA R13+8
        MOVS     R4,R0
        LDR      R0,[R4, #+4]
          CFI FunCall
        BLX      R0
        POP      {R4,PC}          ;; return
          CFI EndBlock cfiBlock263

        SECTION `.text`:CODE:REORDER:NOROOT(2)
        SECTION_GROUP _ZN11Measurement8GetValueE4Unit
          CFI Block cfiBlock264 Using cfiCommon0
          CFI Function _ZN11Measurement8GetValueE4Unit
        THUMB
// __interwork __vfp double Measurement::GetValue(Unit)
_ZN11Measurement8GetValueE4Unit:
        PUSH     {R3-R5,LR}
          CFI R14 Frame(CFA, -4)
          CFI R5 Frame(CFA, -8)
          CFI R4 Frame(CFA, -12)
          CFI CFA R13+16
        MOVS     R4,R0
        MOVS     R5,R1
        MOVS     R1,R5
        MOVS     R0,R4
          CFI FunCall _ZN11Measurement9CheckUnitE4Unit
        BL       _ZN11Measurement9CheckUnitE4Unit
        CMP      R0,#+0
        BNE.N    ??GetValue_2
        MOVS     R2,#+40
        LDR.N    R1,??GetValue_0
        LDR.N    R0,??GetValue_0+0x4
          CFI FunCall __aeabi_assert
        BL       __aeabi_assert
          CFI FunCall __iar_EmptyStepPoint
        BL       __iar_EmptyStepPoint
??GetValue_2:
        LDR      R0,[R4, #+4]
          CFI FunCall
        BLX      R0
        POP      {R0,R4,R5,PC}    ;; return
        Nop      
        DATA
??GetValue_0:
        DATA32
        DC32     _ZZN11Measurement8GetValueE4UnitEs_1
        DC32     _ZZN11Measurement8GetValueE4UnitEs_0
          CFI EndBlock cfiBlock264

        SECTION `.text`:CODE:REORDER:NOROOT(1)
        SECTION_GROUP _ZN11Measurement9CheckUnitE4Unit
          CFI Block cfiBlock265 Using cfiCommon0
          CFI Function _ZN11Measurement9CheckUnitE4Unit
          CFI NoCalls
        THUMB
// __interwork __vfp bool Measurement::CheckUnit(Unit)
_ZN11Measurement9CheckUnitE4Unit:
        PUSH     {R4}
          CFI R4 Frame(CFA, -4)
          CFI CFA R13+4
        MOVS     R2,R0
        MOVS     R0,#+0
        MOVS     R3,#+0
??CheckUnit_0:
        LDR      R4,[R2, #+12]
        CMP      R3,R4
        BCS.N    ??CheckUnit_1
        LDR      R4,[R2, #+8]
        LDR      R4,[R4, R3, LSL #+2]
        CMP      R1,R4
        BNE.N    ??CheckUnit_2
        MOVS     R4,#+1
        MOVS     R0,R4
??CheckUnit_2:
        ADDS     R3,R3,#+1
        B.N      ??CheckUnit_0
??CheckUnit_1:
        UXTB     R0,R0            ;; ZeroExt  R0,R0,#+24,#+24
        POP      {R4}
          CFI R4 SameValue
          CFI CFA R13+0
        BX       LR               ;; return
          CFI EndBlock cfiBlock265

        SECTION `.text`:CODE:REORDER:NOROOT(2)
        SECTION_GROUP _ZN11Measurement12ShowUnitNameE4Unit
          CFI Block cfiBlock266 Using cfiCommon0
          CFI Function _ZN11Measurement12ShowUnitNameE4Unit
        THUMB
// __interwork __vfp void Measurement::ShowUnitName(Unit)
_ZN11Measurement12ShowUnitNameE4Unit:
        PUSH     {R3-R5,LR}
          CFI R14 Frame(CFA, -4)
          CFI R5 Frame(CFA, -8)
          CFI R4 Frame(CFA, -12)
          CFI CFA R13+16
        MOVS     R4,R0
        MOVS     R5,R1
        MOVS     R0,R4
          CFI FunCall _ZNSsC1Ev
        BL       _ZNSsC1Ev
        CMP      R5,#+0
        BEQ.N    ??ShowUnitName_1
        CMP      R5,#+2
        BEQ.N    ??ShowUnitName_2
        BCC.N    ??ShowUnitName_3
        CMP      R5,#+4
        BEQ.N    ??ShowUnitName_4
        BCC.N    ??ShowUnitName_5
        B.N      ??ShowUnitName_6
??ShowUnitName_1:
        LDR.N    R1,??ShowUnitName_0
        MOVS     R0,R4
          CFI FunCall _ZNSsaSEPKc
        BL       _ZNSsaSEPKc
        B.N      ??ShowUnitName_7
??ShowUnitName_3:
        LDR.N    R1,??ShowUnitName_0+0x4
        MOVS     R0,R4
          CFI FunCall _ZNSsaSEPKc
        BL       _ZNSsaSEPKc
        B.N      ??ShowUnitName_7
??ShowUnitName_2:
        LDR.N    R1,??ShowUnitName_0+0x8
        MOVS     R0,R4
          CFI FunCall _ZNSsaSEPKc
        BL       _ZNSsaSEPKc
        B.N      ??ShowUnitName_7
??ShowUnitName_5:
        LDR.N    R1,??ShowUnitName_0+0xC
        MOVS     R0,R4
          CFI FunCall _ZNSsaSEPKc
        BL       _ZNSsaSEPKc
        B.N      ??ShowUnitName_7
??ShowUnitName_4:
        LDR.N    R1,??ShowUnitName_0+0x10
        MOVS     R0,R4
          CFI FunCall _ZNSsaSEPKc
        BL       _ZNSsaSEPKc
        B.N      ??ShowUnitName_7
??ShowUnitName_6:
        MOVS     R2,#+77
        LDR.N    R1,??ShowUnitName_0+0x14
        LDR.N    R0,??ShowUnitName_0+0x18
          CFI FunCall __aeabi_assert
        BL       __aeabi_assert
          CFI FunCall __iar_EmptyStepPoint
        BL       __iar_EmptyStepPoint
??ShowUnitName_7:
        POP      {R0,R4,R5,PC}    ;; return
        DATA
??ShowUnitName_0:
        DATA32
        DC32     _ZZN11Measurement12ShowUnitNameE4UnitEs
        DC32     _ZZN11Measurement12ShowUnitNameE4UnitEs_0
        DC32     _ZZN11Measurement12ShowUnitNameE4UnitEs_1
        DC32     _ZZN11Measurement12ShowUnitNameE4UnitEs_2
        DC32     _ZZN11Measurement12ShowUnitNameE4UnitEs_3
        DC32     _ZZN11Measurement12ShowUnitNameE4UnitEs_6
        DC32     _ZZN11Measurement12ShowUnitNameE4UnitEs_5
          CFI EndBlock cfiBlock266

        SECTION `.text`:CODE:REORDER:NOROOT(1)
        SECTION_GROUP _ZN11TemperatureD1Ev
          CFI Block cfiBlock267 Using cfiCommon0
          CFI Function _ZN11TemperatureD1Ev
        THUMB
// __code __interwork __vfp Temperature::~Temperature()
_ZN11TemperatureD1Ev:
        PUSH     {R4,LR}
          CFI R14 Frame(CFA, -4)
          CFI R4 Frame(CFA, -8)
          CFI CFA R13+8
        MOVS     R4,R0
        MOVS     R0,R4
          CFI FunCall _ZN11MeasurementD2Ev
        BL       _ZN11MeasurementD2Ev
        MOVS     R0,R4
        POP      {R4,PC}          ;; return
          CFI EndBlock cfiBlock267

        SECTION `.text`:CODE:REORDER:NOROOT(2)
        SECTION_GROUP _ZN11TemperatureC1ESsPFdvE
          CFI Block cfiBlock268 Using cfiCommon0
          CFI Function _ZN11TemperatureC1ESsPFdvE
        THUMB
// __code __interwork __vfp Temperature::Temperature(std::string, double (*)())
_ZN11TemperatureC1ESsPFdvE:
        PUSH     {R4-R6,LR}
          CFI R14 Frame(CFA, -4)
          CFI R6 Frame(CFA, -8)
          CFI R5 Frame(CFA, -12)
          CFI R4 Frame(CFA, -16)
          CFI CFA R13+16
        SUB      SP,SP,#+32
          CFI CFA R13+48
        MOVS     R4,R0
        MOVS     R5,R1
        MOVS     R6,R2
        MOVS     R1,R5
        ADD      R0,SP,#+8
          CFI FunCall _ZNSsC1ERKSs
        BL       _ZNSsC1ERKSs
        STR      R6,[SP, #+4]
        MOVS     R1,#+2
        STR      R1,[SP, #+0]
        MOVS     R3,#+3
        LDR.N    R2,??Temperature_0
        MOVS     R1,R0
        MOVS     R0,R4
          CFI FunCall _ZN11MeasurementC2ESsP4UnitjS0_PFdvE
        BL       _ZN11MeasurementC2ESsP4UnitjS0_PFdvE
        ADD      R0,SP,#+8
          CFI FunCall _ZNSsD1Ev
        BL       _ZNSsD1Ev
        LDR.N    R0,??Temperature_0+0x4
        STR      R0,[R4, #+0]
        MOVS     R0,R4
        ADD      SP,SP,#+32
          CFI CFA R13+16
        POP      {R4-R6,PC}       ;; return
        DATA
??Temperature_0:
        DATA32
        DC32     temperatureUnits
        DC32     _ZTV11Temperature+0x8
          CFI EndBlock cfiBlock268

        SECTION `.text`:CODE:REORDER:NOROOT(1)
        SECTION_GROUP _ZN11Temperature8GetValueEv
          CFI Block cfiBlock269 Using cfiCommon0
          CFI Function _ZN11Temperature8GetValueEv
        THUMB
// __interwork __vfp double Temperature::GetValue()
_ZN11Temperature8GetValueEv:
        PUSH     {R4,LR}
          CFI R14 Frame(CFA, -4)
          CFI R4 Frame(CFA, -8)
          CFI CFA R13+8
        MOVS     R4,R0
        LDR      R0,[R4, #+4]
          CFI FunCall
        BLX      R0
        POP      {R4,PC}          ;; return
          CFI EndBlock cfiBlock269

        SECTION `.text`:CODE:REORDER:NOROOT(2)
        SECTION_GROUP _ZN11Temperature8GetValueE4Unit
          CFI Block cfiBlock270 Using cfiCommon0
          CFI Function _ZN11Temperature8GetValueE4Unit
        THUMB
// __interwork __vfp double Temperature::GetValue(Unit)
_ZN11Temperature8GetValueE4Unit:
        PUSH     {R3-R5,LR}
          CFI R14 Frame(CFA, -4)
          CFI R5 Frame(CFA, -8)
          CFI R4 Frame(CFA, -12)
          CFI CFA R13+16
        VPUSH    {D8}
          CFI D8 Frame(CFA, -24)
          CFI CFA R13+24
        MOVS     R4,R0
        MOVS     R5,R1
        CMP      R5,#+0
        BEQ.N    ??GetValue_3
        CMP      R5,#+2
        BEQ.N    ??GetValue_4
        BCC.N    ??GetValue_5
        B.N      ??GetValue_6
??GetValue_4:
        MOVS     R0,R4
          CFI FunCall _ZN11Measurement8GetValueEv
        BL       _ZN11Measurement8GetValueEv
        VMOV.F32 S16,S0
        VMOV.F32 S17,S1
        B.N      ??GetValue_7
??GetValue_3:
        MOVS     R0,R4
        LDR      R1,[R4, #+0]
        LDR      R1,[R1, #+0]
          CFI FunCall
        BLX      R1
        VMOV     R2,R3,D0
        MOVS     R0,#+1717986918
        LDR.N    R1,??GetValue_1  ;; 0x40711266
          CFI FunCall __aeabi_dadd
        BL       __aeabi_dadd
        VMOV     D8,R0,R1
        B.N      ??GetValue_7
??GetValue_5:
        MOVS     R0,R4
        LDR      R1,[R4, #+0]
        LDR      R1,[R1, #+0]
          CFI FunCall
        BLX      R1
        VMOV     R2,R3,D0
        LDR.N    R0,??GetValue_1+0x4  ;; 0xcccccccd
        LDR.N    R1,??GetValue_1+0x8  ;; 0x3ffccccc
          CFI FunCall __aeabi_dmul
        BL       __aeabi_dmul
        MOVS     R2,#+0
        LDR.N    R3,??GetValue_1+0xC  ;; 0x40400000
          CFI FunCall __aeabi_dadd
        BL       __aeabi_dadd
        VMOV     D8,R0,R1
        B.N      ??GetValue_7
??GetValue_6:
        MOVS     R2,#+32
        LDR.N    R1,??GetValue_1+0x10
        LDR.N    R0,??GetValue_1+0x14
          CFI FunCall __aeabi_assert
        BL       __aeabi_assert
          CFI FunCall __iar_EmptyStepPoint
        BL       __iar_EmptyStepPoint
??GetValue_7:
        VMOV.F32 S0,S16
        VMOV.F32 S1,S17
        VPOP     {D8}
          CFI D8 SameValue
          CFI CFA R13+16
        POP      {R0,R4,R5,PC}    ;; return
        DATA
??GetValue_1:
        DATA32
        DC32     0x40711266
        DC32     0xcccccccd
        DC32     0x3ffccccc
        DC32     0x40400000
        DC32     _ZZN11Temperature8GetValueE4UnitEs_1
        DC32     _ZZN11Temperature8GetValueE4UnitEs_0
          CFI EndBlock cfiBlock270

        SECTION `.text`:CODE:REORDER:NOROOT(1)
        SECTION_GROUP _ZN3LedI3PinI4PortI5GPIOAELh5EEE6ToggleEv
          CFI Block cfiBlock271 Using cfiCommon0
          CFI Function _ZN3LedI3PinI4PortI5GPIOAELh5EEE6ToggleEv
        THUMB
// __interwork __vfp void Led<PinLed1>::Toggle()
_ZN3LedI3PinI4PortI5GPIOAELh5EEE6ToggleEv:
        PUSH     {R7,LR}
          CFI R14 Frame(CFA, -4)
          CFI CFA R13+8
          CFI FunCall _ZN3PinI4PortI5GPIOAELh5EE6ToggleEv
        BL       _ZN3PinI4PortI5GPIOAELh5EE6ToggleEv
        POP      {R0,PC}          ;; return
          CFI EndBlock cfiBlock271

        SECTION `.text`:CODE:REORDER:NOROOT(1)
        SECTION_GROUP _ZN3LedI3PinI4PortI5GPIOCELh9EEE6ToggleEv
          CFI Block cfiBlock272 Using cfiCommon0
          CFI Function _ZN3LedI3PinI4PortI5GPIOCELh9EEE6ToggleEv
        THUMB
// __interwork __vfp void Led<PinLed2>::Toggle()
_ZN3LedI3PinI4PortI5GPIOCELh9EEE6ToggleEv:
        PUSH     {R7,LR}
          CFI R14 Frame(CFA, -4)
          CFI CFA R13+8
          CFI FunCall _ZN3PinI4PortI5GPIOCELh9EE6ToggleEv
        BL       _ZN3PinI4PortI5GPIOCELh9EE6ToggleEv
        POP      {R0,PC}          ;; return
          CFI EndBlock cfiBlock272

        SECTION `.text`:CODE:REORDER:NOROOT(1)
        SECTION_GROUP _ZN3LedI3PinI4PortI5GPIOCELh8EEE6ToggleEv
          CFI Block cfiBlock273 Using cfiCommon0
          CFI Function _ZN3LedI3PinI4PortI5GPIOCELh8EEE6ToggleEv
        THUMB
// __interwork __vfp void Led<PinLed3>::Toggle()
_ZN3LedI3PinI4PortI5GPIOCELh8EEE6ToggleEv:
        PUSH     {R7,LR}
          CFI R14 Frame(CFA, -4)
          CFI CFA R13+8
          CFI FunCall _ZN3PinI4PortI5GPIOCELh8EE6ToggleEv
        BL       _ZN3PinI4PortI5GPIOCELh8EE6ToggleEv
        POP      {R0,PC}          ;; return
          CFI EndBlock cfiBlock273

        SECTION `.text`:CODE:REORDER:NOROOT(2)
        SECTION_GROUP _ZN13BluetoothTaskC1Ev
          CFI Block cfiBlock274 Using cfiCommon0
          CFI Function _ZN13BluetoothTaskC1Ev
        THUMB
// __code __interwork __vfp BluetoothTask::BluetoothTask()
_ZN13BluetoothTaskC1Ev:
        PUSH     {R4,LR}
          CFI R14 Frame(CFA, -4)
          CFI R4 Frame(CFA, -8)
          CFI CFA R13+8
        MOVS     R4,R0
        MOVS     R0,R4
          CFI FunCall _ZN9OsWrapper6ThreadILj400EEC2Ev
        BL       _ZN9OsWrapper6ThreadILj400EEC2Ev
        LDR.N    R0,??BluetoothTask_0
        STR      R0,[R4, #+0]
        LDR.N    R0,??BluetoothTask_0+0x4
        LDRD     R2,R3,[R0, #+0]
        ADDS     R0,R4,#+1696
        STRD     R2,R3,[R0, #+0]
        LDR.N    R0,??BluetoothTask_0+0x8
          CFI FunCall _ZN11usartDriverI6Usart2E6EnableEv
        BL       _ZN11usartDriverI6Usart2E6EnableEv
        MOVS     R0,R4
        POP      {R4,PC}          ;; return
        Nop      
        DATA
??BluetoothTask_0:
        DATA32
        DC32     _ZTV13BluetoothTask+0x8
        DC32     ?_15
        DC32     bluetoothTransceiver
          CFI EndBlock cfiBlock274

        SECTION `.text`:CODE:REORDER:NOROOT(2)
        SECTION_GROUP _ZN13BluetoothTask7ExecuteEv
          CFI Block cfiBlock275 Using cfiCommon0
          CFI Function _ZN13BluetoothTask7ExecuteEv
        THUMB
// __interwork __vfp void BluetoothTask::Execute()
_ZN13BluetoothTask7ExecuteEv:
        PUSH     {R4-R8,LR}
          CFI R14 Frame(CFA, -4)
          CFI R8 Frame(CFA, -8)
          CFI R7 Frame(CFA, -12)
          CFI R6 Frame(CFA, -16)
          CFI R5 Frame(CFA, -20)
          CFI R4 Frame(CFA, -24)
          CFI CFA R13+24
        VPUSH    {D8}
          CFI D8 Frame(CFA, -32)
          CFI CFA R13+32
        SUB      SP,SP,#+288
          CFI CFA R13+320
        MOVS     R4,R0
??Execute_4:
        MOVS     R1,#+150
        MOVS     R2,#+0
        ADD      R5,SP,#+136
        MOVS     R0,R5
          CFI FunCall __aeabi_memset
        BL       __aeabi_memset
        MOVS     R5,#+0
??Execute_5:
        CMP      R5,#+4
        BGE.N    ??Execute_6
        MOVS     R1,#+100
        MOVS     R2,#+0
        ADD      R6,SP,#+36
        MOVS     R0,R6
          CFI FunCall __aeabi_memset
        BL       __aeabi_memset
        LDR.N    R7,??Execute_0
        LDR      R1,[R7, R5, LSL #+2]
        ADD      R0,SP,#+12
          CFI FunCall _ZN11Measurement12ShowUnitNameE4Unit
        BL       _ZN11Measurement12ShowUnitNameE4Unit
        ADD      R0,SP,#+12
          CFI FunCall _ZNKSs5c_strEv
        BL       _ZNKSs5c_strEv
        MOVS     R6,R0
        LDR.W    R8,??Execute_0+0x4
        LDR      R1,[R7, R5, LSL #+2]
        LDR      R0,[R8, R5, LSL #+2]
        LDR      R2,[R8, R5, LSL #+2]
        LDR      R2,[R2, #+0]
        LDR      R2,[R2, #+4]
          CFI FunCall
        BLX      R2
        VMOV.F32 S16,S0
        VMOV.F32 S17,S1
        LDR      R0,[R8, R5, LSL #+2]
        ADDS     R0,R0,#+20
          CFI FunCall _ZNKSs5c_strEv
        BL       _ZNKSs5c_strEv
        MOVS     R2,R0
        STR      R6,[SP, #+8]
        VSTR     D8,[SP, #+0]
        LDR.N    R1,??Execute_0+0x8
        ADD      R0,SP,#+36
          CFI FunCall sprintf
        BL       sprintf
        ADD      R0,SP,#+12
          CFI FunCall _ZNSsD1Ev
        BL       _ZNSsD1Ev
        MOVS     R2,#+100
        ADD      R1,SP,#+36
        ADD      R0,SP,#+136
          CFI FunCall strncat
        BL       strncat
        ADDS     R5,R5,#+1
        B.N      ??Execute_5
??Execute_6:
        ADD      R0,SP,#+136
          CFI FunCall strlen
        BL       strlen
        MOVS     R5,R0
        MOVS     R2,R5
        ADD      R1,SP,#+136
        LDR.N    R0,??Execute_0+0xC
          CFI FunCall _ZN11usartDriverI6Usart2E11SendMessageEPcj
        BL       _ZN11usartDriverI6Usart2E11SendMessageEPcj
          CFI FunCall _ZN3LedI3PinI4PortI5GPIOAELh5EEE6ToggleEv
        BL       _ZN3LedI3PinI4PortI5GPIOAELh5EEE6ToggleEv
        ADDS     R2,R4,#+1696
        LDRD     R0,R1,[R2, #+0]
          CFI FunCall _ZN9OsWrapper7IThread5SleepENSt6chrono8durationIxSt5ratioILx1ELx1000EEEE
        BL       _ZN9OsWrapper7IThread5SleepENSt6chrono8durationIxSt5ratioILx1ELx1000EEEE
        B.N      ??Execute_4
        Nop      
        DATA
??Execute_0:
        DATA32
        DC32     userUnits
        DC32     measurements
        DC32     _ZZN13BluetoothTask7ExecuteEvEs
        DC32     bluetoothTransceiver
          CFI EndBlock cfiBlock275

        SECTION `.text`:CODE:REORDER:NOROOT(2)
        SECTION_GROUP _ZN15ButtonEventTaskI6ButtonI3PinI4PortI5GPIOCELh13EEEL_Z5eventEEC1Ev
          CFI Block cfiBlock276 Using cfiCommon0
          CFI Function _ZN15ButtonEventTaskI6ButtonI3PinI4PortI5GPIOCELh13EEEL_Z5eventEEC1Ev
        THUMB
// __code __interwork __vfp ButtonEventTask<UserButton, event>::ButtonEventTask()
_ZN15ButtonEventTaskI6ButtonI3PinI4PortI5GPIOCELh13EEEL_Z5eventEEC1Ev:
        PUSH     {R4,LR}
          CFI R14 Frame(CFA, -4)
          CFI R4 Frame(CFA, -8)
          CFI CFA R13+8
        MOVS     R4,R0
        MOVS     R0,R4
          CFI FunCall _ZN9OsWrapper6ThreadILj128EEC2Ev
        BL       _ZN9OsWrapper6ThreadILj128EEC2Ev
        LDR.N    R0,??ButtonEventTask_0
        STR      R0,[R4, #+0]
          CFI FunCall _ZN6ButtonI3PinI4PortI5GPIOCELh13EEE6EnableEv
        BL       _ZN6ButtonI3PinI4PortI5GPIOCELh13EEE6EnableEv
        MOVS     R0,R4
        POP      {R4,PC}          ;; return
        Nop      
        DATA
??ButtonEventTask_0:
        DATA32
        DC32     _ZTV15ButtonEventTaskI6ButtonI3PinI4PortI5GPIOCELh13EEEL_Z5eventEE+0x8
          CFI EndBlock cfiBlock276

        SECTION `.text`:CODE:REORDER:NOROOT(2)
        SECTION_GROUP _ZN15ButtonEventTaskI6ButtonI3PinI4PortI5GPIOCELh13EEEL_Z5eventEE7ExecuteEv
          CFI Block cfiBlock277 Using cfiCommon0
          CFI Function _ZN15ButtonEventTaskI6ButtonI3PinI4PortI5GPIOCELh13EEEL_Z5eventEE7ExecuteEv
        THUMB
// __interwork __vfp void ButtonEventTask<UserButton, event>::Execute()
_ZN15ButtonEventTaskI6ButtonI3PinI4PortI5GPIOCELh13EEEL_Z5eventEE7ExecuteEv:
        PUSH     {R4,LR}
          CFI R14 Frame(CFA, -4)
          CFI R4 Frame(CFA, -8)
          CFI CFA R13+8
        MOVS     R4,R0
??Execute_7:
          CFI FunCall _ZN6ButtonI3PinI4PortI5GPIOCELh13EEE10WasPressedEv
        BL       _ZN6ButtonI3PinI4PortI5GPIOCELh13EEE10WasPressedEv
        CMP      R0,#+0
        BEQ.N    ??Execute_8
        LDR.N    R0,??Execute_1
          CFI FunCall _ZN9OsWrapper5Event6SignalEv
        BL       _ZN9OsWrapper5Event6SignalEv
??Execute_8:
        LDR.N    R2,??Execute_1+0x4
        LDRD     R0,R1,[R2, #+0]
          CFI FunCall _ZN9OsWrapper7IThread5SleepENSt6chrono8durationIxSt5ratioILx1ELx1000EEEE
        BL       _ZN9OsWrapper7IThread5SleepENSt6chrono8durationIxSt5ratioILx1ELx1000EEEE
        B.N      ??Execute_7
        Nop      
        DATA
??Execute_1:
        DATA32
        DC32     event
        DC32     ?_9
          CFI EndBlock cfiBlock277

        SECTION `.text`:CODE:REORDER:NOROOT(2)
        SECTION_GROUP _ZN15MeasurementTaskIL_Z5eventEEC1Ev
          CFI Block cfiBlock278 Using cfiCommon0
          CFI Function _ZN15MeasurementTaskIL_Z5eventEEC1Ev
        THUMB
// __code __interwork __vfp MeasurementTask<event>::MeasurementTask()
_ZN15MeasurementTaskIL_Z5eventEEC1Ev:
        PUSH     {R4,LR}
          CFI R14 Frame(CFA, -4)
          CFI R4 Frame(CFA, -8)
          CFI CFA R13+8
        MOVS     R4,R0
        MOVS     R0,R4
          CFI FunCall _ZN9OsWrapper6ThreadILj128EEC2Ev
        BL       _ZN9OsWrapper6ThreadILj128EEC2Ev
        LDR.N    R0,??MeasurementTask_0
        STR      R0,[R4, #+0]
        LDR.N    R0,??MeasurementTask_0+0x4
        LDRD     R2,R3,[R0, #+0]
        ADDS     R0,R4,#+608
        STRD     R2,R3,[R0, #+0]
        MOVS     R0,R4
        POP      {R4,PC}          ;; return
        DATA
??MeasurementTask_0:
        DATA32
        DC32     _ZTV15MeasurementTaskIL_Z5eventEE+0x8
        DC32     ?_16
          CFI EndBlock cfiBlock278

        SECTION `.text`:CODE:REORDER:NOROOT(2)
        SECTION_GROUP _ZN15MeasurementTaskIL_Z5eventEE7ExecuteEv
          CFI Block cfiBlock279 Using cfiCommon0
          CFI Function _ZN15MeasurementTaskIL_Z5eventEE7ExecuteEv
        THUMB
// __interwork __vfp void MeasurementTask<event>::Execute()
_ZN15MeasurementTaskIL_Z5eventEE7ExecuteEv:
        PUSH     {R4,LR}
          CFI R14 Frame(CFA, -4)
          CFI R4 Frame(CFA, -8)
          CFI CFA R13+8
        MOVS     R4,R0
??Execute_9:
        LDR.N    R0,??Execute_2
          CFI FunCall _ZN12BME280DriverIL_Z15spi1TransceiverE3PinI4PortI5GPIOBELh10EEE7MeasureEv
        BL       _ZN12BME280DriverIL_Z15spi1TransceiverE3PinI4PortI5GPIOBELh10EEE7MeasureEv
          CFI FunCall _ZN3LedI3PinI4PortI5GPIOCELh9EEE6ToggleEv
        BL       _ZN3LedI3PinI4PortI5GPIOCELh9EEE6ToggleEv
        ADDS     R2,R4,#+608
        LDRD     R0,R1,[R2, #+0]
          CFI FunCall _ZN9OsWrapper7IThread5SleepENSt6chrono8durationIxSt5ratioILx1ELx1000EEEE
        BL       _ZN9OsWrapper7IThread5SleepENSt6chrono8durationIxSt5ratioILx1ELx1000EEEE
        MOVS     R2,#+255
        MOVS     R1,#+0
        LDR.N    R0,??Execute_2+0x4
          CFI FunCall _ZNK9OsWrapper5Event4WaitENS_9EventModeEj
        BL       _ZNK9OsWrapper5Event4WaitENS_9EventModeEj
        CMP      R0,#+0
        BEQ.N    ??Execute_9
        MOVS     R0,R4
          CFI FunCall _ZN15MeasurementTaskIL_Z5eventEE11UnitsUpdateEv
        BL       _ZN15MeasurementTaskIL_Z5eventEE11UnitsUpdateEv
        B.N      ??Execute_9
        DATA
??Execute_2:
        DATA32
        DC32     bme280
        DC32     event
          CFI EndBlock cfiBlock279

        SECTION `.text`:CODE:REORDER:NOROOT(2)
        SECTION_GROUP _ZN15MeasurementTaskIL_Z5eventEE11UnitsUpdateEv
          CFI Block cfiBlock280 Using cfiCommon0
          CFI Function _ZN15MeasurementTaskIL_Z5eventEE11UnitsUpdateEv
          CFI NoCalls
        THUMB
// __interwork __vfp void MeasurementTask<event>::UnitsUpdate()
_ZN15MeasurementTaskIL_Z5eventEE11UnitsUpdateEv:
        LDR.N    R1,??UnitsUpdate_0
        LDR      R2,[R1, #+0]
        CMP      R2,#+2
        BGE.N    ??UnitsUpdate_1
        LDR      R2,[R1, #+0]
        ADDS     R2,R2,#+1
        STR      R2,[R1, #+0]
        B.N      ??UnitsUpdate_2
??UnitsUpdate_1:
        MOVS     R2,#+0
        STR      R2,[R1, #+0]
??UnitsUpdate_2:
        LDR      R1,[R1, #+0]
        CMP      R1,#+0
        BEQ.N    ??UnitsUpdate_3
        CMP      R1,#+2
        BEQ.N    ??UnitsUpdate_4
        BCC.N    ??UnitsUpdate_5
        B.N      ??UnitsUpdate_6
??UnitsUpdate_3:
        LDR.N    R1,??UnitsUpdate_0+0x4
        MOVS     R2,#+1
        STR      R2,[R1, #+0]
        MOVS     R2,#+1
        STR      R2,[R1, #+12]
        B.N      ??UnitsUpdate_6
??UnitsUpdate_5:
        LDR.N    R1,??UnitsUpdate_0+0x4
        MOVS     R2,#+0
        STR      R2,[R1, #+0]
        MOVS     R2,#+0
        STR      R2,[R1, #+12]
        B.N      ??UnitsUpdate_6
??UnitsUpdate_4:
        LDR.N    R1,??UnitsUpdate_0+0x4
        MOVS     R2,#+2
        STR      R2,[R1, #+0]
        MOVS     R2,#+2
        STR      R2,[R1, #+12]
??UnitsUpdate_6:
        BX       LR               ;; return
        Nop      
        DATA
??UnitsUpdate_0:
        DATA32
        DC32     _ZZN15MeasurementTaskIL_Z5eventEE11UnitsUpdateEvE7counter
        DC32     userUnits
          CFI EndBlock cfiBlock280

        SECTION `.text`:CODE:REORDER:NOROOT(2)
        SECTION_GROUP _ZN9EPDDriverIL_Z15spi2TransceiverE3PinI4PortI5GPIOBELh1EES0_IS3_Lh2EES0_IS1_I5GPIOCELh3EES0_IS7_Lh2EEEC1Ev
          CFI Block cfiBlock281 Using cfiCommon0
          CFI Function _ZN9EPDDriverIL_Z15spi2TransceiverE3PinI4PortI5GPIOBELh1EES0_IS3_Lh2EES0_IS1_I5GPIOCELh3EES0_IS7_Lh2EEEC1Ev
        THUMB
// __code __interwork __vfp EPDDriver<spi2Transceiver, PinCSforEPD, PinDCforEPD, PinRSTforEPD, PinBSYforEPD>::EPDDriver()
_ZN9EPDDriverIL_Z15spi2TransceiverE3PinI4PortI5GPIOBELh1EES0_IS3_Lh2EES0_IS1_I5GPIOCELh3EES0_IS7_Lh2EEEC1Ev:
        PUSH     {R4,LR}
          CFI R14 Frame(CFA, -4)
          CFI R4 Frame(CFA, -8)
          CFI CFA R13+8
        MOVS     R4,R0
        LDR.N    R0,??EPDDriver_0
          CFI FunCall _ZN21SpiDriverOnlyTransmitI4Spi2E6EnableEv
        BL       _ZN21SpiDriverOnlyTransmitI4Spi2E6EnableEv
        MOVS     R0,R4
        POP      {R4,PC}          ;; return
        Nop      
        DATA
??EPDDriver_0:
        DATA32
        DC32     spi2Transceiver
          CFI EndBlock cfiBlock281

        SECTION `.text`:CODE:REORDER:NOROOT(2)
        SECTION_GROUP _ZN9EPDDriverIL_Z15spi2TransceiverE3PinI4PortI5GPIOBELh1EES0_IS3_Lh2EES0_IS1_I5GPIOCELh3EES0_IS7_Lh2EEE11SendCommandEh
          CFI Block cfiBlock282 Using cfiCommon0
          CFI Function _ZN9EPDDriverIL_Z15spi2TransceiverE3PinI4PortI5GPIOBELh1EES0_IS3_Lh2EES0_IS1_I5GPIOCELh3EES0_IS7_Lh2EEE11SendCommandEh
        THUMB
// __interwork __vfp void EPDDriver<spi2Transceiver, PinCSforEPD, PinDCforEPD, PinRSTforEPD, PinBSYforEPD>::SendCommand(uint8_t)
_ZN9EPDDriverIL_Z15spi2TransceiverE3PinI4PortI5GPIOBELh1EES0_IS3_Lh2EES0_IS1_I5GPIOCELh3EES0_IS7_Lh2EEE11SendCommandEh:
        PUSH     {R3-R5,LR}
          CFI R14 Frame(CFA, -4)
          CFI R5 Frame(CFA, -8)
          CFI R4 Frame(CFA, -12)
          CFI CFA R13+16
        MOVS     R4,R0
        MOVS     R5,R1
          CFI FunCall _ZN3PinI4PortI5GPIOBELh2EE5ResetEv
        BL       _ZN3PinI4PortI5GPIOBELh2EE5ResetEv
          CFI FunCall _ZN3PinI4PortI5GPIOBELh1EE5ResetEv
        BL       _ZN3PinI4PortI5GPIOBELh1EE5ResetEv
        MOVS     R1,R5
        UXTB     R1,R1            ;; ZeroExt  R1,R1,#+24,#+24
        LDR.N    R0,??SendCommand_0
          CFI FunCall _ZN21SpiDriverOnlyTransmitI4Spi2E8SendByteEc
        BL       _ZN21SpiDriverOnlyTransmitI4Spi2E8SendByteEc
          CFI FunCall _ZN3PinI4PortI5GPIOBELh1EE3SetEv
        BL       _ZN3PinI4PortI5GPIOBELh1EE3SetEv
          CFI FunCall _ZN3PinI4PortI5GPIOBELh1EE3SetEv
        BL       _ZN3PinI4PortI5GPIOBELh1EE3SetEv
        POP      {R0,R4,R5,PC}    ;; return
        Nop      
        DATA
??SendCommand_0:
        DATA32
        DC32     spi2Transceiver
          CFI EndBlock cfiBlock282

        SECTION `.text`:CODE:REORDER:NOROOT(2)
        SECTION_GROUP _ZN9EPDDriverIL_Z15spi2TransceiverE3PinI4PortI5GPIOBELh1EES0_IS3_Lh2EES0_IS1_I5GPIOCELh3EES0_IS7_Lh2EEE8SendDataEh
          CFI Block cfiBlock283 Using cfiCommon0
          CFI Function _ZN9EPDDriverIL_Z15spi2TransceiverE3PinI4PortI5GPIOBELh1EES0_IS3_Lh2EES0_IS1_I5GPIOCELh3EES0_IS7_Lh2EEE8SendDataEh
        THUMB
// __interwork __vfp void EPDDriver<spi2Transceiver, PinCSforEPD, PinDCforEPD, PinRSTforEPD, PinBSYforEPD>::SendData(uint8_t)
_ZN9EPDDriverIL_Z15spi2TransceiverE3PinI4PortI5GPIOBELh1EES0_IS3_Lh2EES0_IS1_I5GPIOCELh3EES0_IS7_Lh2EEE8SendDataEh:
        PUSH     {R3-R5,LR}
          CFI R14 Frame(CFA, -4)
          CFI R5 Frame(CFA, -8)
          CFI R4 Frame(CFA, -12)
          CFI CFA R13+16
        MOVS     R4,R0
        MOVS     R5,R1
          CFI FunCall _ZN3PinI4PortI5GPIOBELh2EE3SetEv
        BL       _ZN3PinI4PortI5GPIOBELh2EE3SetEv
          CFI FunCall _ZN3PinI4PortI5GPIOBELh1EE5ResetEv
        BL       _ZN3PinI4PortI5GPIOBELh1EE5ResetEv
        MOVS     R1,R5
        UXTB     R1,R1            ;; ZeroExt  R1,R1,#+24,#+24
        LDR.N    R0,??SendData_0
          CFI FunCall _ZN21SpiDriverOnlyTransmitI4Spi2E8SendByteEc
        BL       _ZN21SpiDriverOnlyTransmitI4Spi2E8SendByteEc
          CFI FunCall _ZN3PinI4PortI5GPIOBELh1EE3SetEv
        BL       _ZN3PinI4PortI5GPIOBELh1EE3SetEv
        POP      {R0,R4,R5,PC}    ;; return
        Nop      
        DATA
??SendData_0:
        DATA32
        DC32     spi2Transceiver
          CFI EndBlock cfiBlock283

        SECTION `.text`:CODE:REORDER:NOROOT(2)
        SECTION_GROUP _ZN9EPDDriverIL_Z15spi2TransceiverE3PinI4PortI5GPIOBELh1EES0_IS3_Lh2EES0_IS1_I5GPIOCELh3EES0_IS7_Lh2EEE8SendDataEPKhj
          CFI Block cfiBlock284 Using cfiCommon0
          CFI Function _ZN9EPDDriverIL_Z15spi2TransceiverE3PinI4PortI5GPIOBELh1EES0_IS3_Lh2EES0_IS1_I5GPIOCELh3EES0_IS7_Lh2EEE8SendDataEPKhj
        THUMB
// __interwork __vfp void EPDDriver<spi2Transceiver, PinCSforEPD, PinDCforEPD, PinRSTforEPD, PinBSYforEPD>::SendData(uint8_t const *, size_t)
_ZN9EPDDriverIL_Z15spi2TransceiverE3PinI4PortI5GPIOBELh1EES0_IS3_Lh2EES0_IS1_I5GPIOCELh3EES0_IS7_Lh2EEE8SendDataEPKhj:
        PUSH     {R4-R6,LR}
          CFI R14 Frame(CFA, -4)
          CFI R6 Frame(CFA, -8)
          CFI R5 Frame(CFA, -12)
          CFI R4 Frame(CFA, -16)
          CFI CFA R13+16
        MOVS     R4,R0
        MOVS     R5,R1
        MOVS     R6,R2
          CFI FunCall _ZN3PinI4PortI5GPIOBELh2EE3SetEv
        BL       _ZN3PinI4PortI5GPIOBELh2EE3SetEv
          CFI FunCall _ZN3PinI4PortI5GPIOBELh1EE5ResetEv
        BL       _ZN3PinI4PortI5GPIOBELh1EE5ResetEv
        MOVS     R2,R6
        MOVS     R1,R5
        LDR.N    R0,??SendData_1
          CFI FunCall _ZN21SpiDriverOnlyTransmitI4Spi2E11SendMessageEPKcj
        BL       _ZN21SpiDriverOnlyTransmitI4Spi2E11SendMessageEPKcj
          CFI FunCall _ZN3PinI4PortI5GPIOBELh1EE3SetEv
        BL       _ZN3PinI4PortI5GPIOBELh1EE3SetEv
        POP      {R4-R6,PC}       ;; return
        DATA
??SendData_1:
        DATA32
        DC32     spi2Transceiver
          CFI EndBlock cfiBlock284

        SECTION `.text`:CODE:REORDER:NOROOT(1)
        SECTION_GROUP _ZN9EPDDriverIL_Z15spi2TransceiverE3PinI4PortI5GPIOBELh1EES0_IS3_Lh2EES0_IS1_I5GPIOCELh3EES0_IS7_Lh2EEE7RefreshEv
          CFI Block cfiBlock285 Using cfiCommon0
          CFI Function _ZN9EPDDriverIL_Z15spi2TransceiverE3PinI4PortI5GPIOBELh1EES0_IS3_Lh2EES0_IS1_I5GPIOCELh3EES0_IS7_Lh2EEE7RefreshEv
        THUMB
// __interwork __vfp void EPDDriver<spi2Transceiver, PinCSforEPD, PinDCforEPD, PinRSTforEPD, PinBSYforEPD>::Refresh()
_ZN9EPDDriverIL_Z15spi2TransceiverE3PinI4PortI5GPIOBELh1EES0_IS3_Lh2EES0_IS1_I5GPIOCELh3EES0_IS7_Lh2EEE7RefreshEv:
        PUSH     {R4,LR}
          CFI R14 Frame(CFA, -4)
          CFI R4 Frame(CFA, -8)
          CFI CFA R13+8
        MOVS     R4,R0
        MOVS     R0,R4
          CFI FunCall _ZN9EPDDriverIL_Z15spi2TransceiverE3PinI4PortI5GPIOBELh1EES0_IS3_Lh2EES0_IS1_I5GPIOCELh3EES0_IS7_Lh2EEE6SetLutEv
        BL       _ZN9EPDDriverIL_Z15spi2TransceiverE3PinI4PortI5GPIOBELh1EES0_IS3_Lh2EES0_IS1_I5GPIOCELh3EES0_IS7_Lh2EEE6SetLutEv
        MOVS     R1,#+18
        MOVS     R0,R4
          CFI FunCall _ZN9EPDDriverIL_Z15spi2TransceiverE3PinI4PortI5GPIOBELh1EES0_IS3_Lh2EES0_IS1_I5GPIOCELh3EES0_IS7_Lh2EEE11SendCommandEh
        BL       _ZN9EPDDriverIL_Z15spi2TransceiverE3PinI4PortI5GPIOBELh1EES0_IS3_Lh2EES0_IS1_I5GPIOCELh3EES0_IS7_Lh2EEE11SendCommandEh
        MOVS     R0,#+100
        MOVS     R1,#+0
          CFI FunCall _Z8Delay_msy
        BL       _Z8Delay_msy
        MOVS     R0,R4
          CFI FunCall _ZN9EPDDriverIL_Z15spi2TransceiverE3PinI4PortI5GPIOBELh1EES0_IS3_Lh2EES0_IS1_I5GPIOCELh3EES0_IS7_Lh2EEE13WaitUntilBusyEv
        BL       _ZN9EPDDriverIL_Z15spi2TransceiverE3PinI4PortI5GPIOBELh1EES0_IS3_Lh2EES0_IS1_I5GPIOCELh3EES0_IS7_Lh2EEE13WaitUntilBusyEv
        POP      {R4,PC}          ;; return
          CFI EndBlock cfiBlock285

        SECTION `.text`:CODE:REORDER:NOROOT(1)
        SECTION_GROUP _ZN9EPDDriverIL_Z15spi2TransceiverE3PinI4PortI5GPIOBELh1EES0_IS3_Lh2EES0_IS1_I5GPIOCELh3EES0_IS7_Lh2EEE12RefreshQuickEv
          CFI Block cfiBlock286 Using cfiCommon0
          CFI Function _ZN9EPDDriverIL_Z15spi2TransceiverE3PinI4PortI5GPIOBELh1EES0_IS3_Lh2EES0_IS1_I5GPIOCELh3EES0_IS7_Lh2EEE12RefreshQuickEv
        THUMB
// __interwork __vfp void EPDDriver<spi2Transceiver, PinCSforEPD, PinDCforEPD, PinRSTforEPD, PinBSYforEPD>::RefreshQuick()
_ZN9EPDDriverIL_Z15spi2TransceiverE3PinI4PortI5GPIOBELh1EES0_IS3_Lh2EES0_IS1_I5GPIOCELh3EES0_IS7_Lh2EEE12RefreshQuickEv:
        PUSH     {R4,LR}
          CFI R14 Frame(CFA, -4)
          CFI R4 Frame(CFA, -8)
          CFI CFA R13+8
        MOVS     R4,R0
        MOVS     R0,R4
          CFI FunCall _ZN9EPDDriverIL_Z15spi2TransceiverE3PinI4PortI5GPIOBELh1EES0_IS3_Lh2EES0_IS1_I5GPIOCELh3EES0_IS7_Lh2EEE11SetLutQuickEv
        BL       _ZN9EPDDriverIL_Z15spi2TransceiverE3PinI4PortI5GPIOBELh1EES0_IS3_Lh2EES0_IS1_I5GPIOCELh3EES0_IS7_Lh2EEE11SetLutQuickEv
        MOVS     R1,#+18
        MOVS     R0,R4
          CFI FunCall _ZN9EPDDriverIL_Z15spi2TransceiverE3PinI4PortI5GPIOBELh1EES0_IS3_Lh2EES0_IS1_I5GPIOCELh3EES0_IS7_Lh2EEE11SendCommandEh
        BL       _ZN9EPDDriverIL_Z15spi2TransceiverE3PinI4PortI5GPIOBELh1EES0_IS3_Lh2EES0_IS1_I5GPIOCELh3EES0_IS7_Lh2EEE11SendCommandEh
        POP      {R4,PC}          ;; return
          CFI EndBlock cfiBlock286

        SECTION `.text`:CODE:REORDER:NOROOT(2)
        SECTION_GROUP _ZN9EPDDriverIL_Z15spi2TransceiverE3PinI4PortI5GPIOBELh1EES0_IS3_Lh2EES0_IS1_I5GPIOCELh3EES0_IS7_Lh2EEE6SetLutEv
          CFI Block cfiBlock287 Using cfiCommon0
          CFI Function _ZN9EPDDriverIL_Z15spi2TransceiverE3PinI4PortI5GPIOBELh1EES0_IS3_Lh2EES0_IS1_I5GPIOCELh3EES0_IS7_Lh2EEE6SetLutEv
        THUMB
// __interwork __vfp void EPDDriver<spi2Transceiver, PinCSforEPD, PinDCforEPD, PinRSTforEPD, PinBSYforEPD>::SetLut()
_ZN9EPDDriverIL_Z15spi2TransceiverE3PinI4PortI5GPIOBELh1EES0_IS3_Lh2EES0_IS1_I5GPIOCELh3EES0_IS7_Lh2EEE6SetLutEv:
        PUSH     {R3-R5,LR}
          CFI R14 Frame(CFA, -4)
          CFI R5 Frame(CFA, -8)
          CFI R4 Frame(CFA, -12)
          CFI CFA R13+16
        MOVS     R4,R0
        MOVS     R1,#+32
        MOVS     R0,R4
          CFI FunCall _ZN9EPDDriverIL_Z15spi2TransceiverE3PinI4PortI5GPIOBELh1EES0_IS3_Lh2EES0_IS1_I5GPIOCELh3EES0_IS7_Lh2EEE11SendCommandEh
        BL       _ZN9EPDDriverIL_Z15spi2TransceiverE3PinI4PortI5GPIOBELh1EES0_IS3_Lh2EES0_IS1_I5GPIOCELh3EES0_IS7_Lh2EEE11SendCommandEh
        MOVS     R5,#+0
??SetLut_1:
        MOVS     R0,R5
        UXTB     R0,R0            ;; ZeroExt  R0,R0,#+24,#+24
        CMP      R0,#+44
        BCS.N    ??SetLut_2
        LDR.N    R0,??SetLut_0
        MOVS     R1,R5
        UXTB     R1,R1            ;; ZeroExt  R1,R1,#+24,#+24
        LDRB     R1,[R0, R1]
        MOVS     R0,R4
          CFI FunCall _ZN9EPDDriverIL_Z15spi2TransceiverE3PinI4PortI5GPIOBELh1EES0_IS3_Lh2EES0_IS1_I5GPIOCELh3EES0_IS7_Lh2EEE8SendDataEh
        BL       _ZN9EPDDriverIL_Z15spi2TransceiverE3PinI4PortI5GPIOBELh1EES0_IS3_Lh2EES0_IS1_I5GPIOCELh3EES0_IS7_Lh2EEE8SendDataEh
        ADDS     R5,R5,#+1
        B.N      ??SetLut_1
??SetLut_2:
        MOVS     R1,#+33
        MOVS     R0,R4
          CFI FunCall _ZN9EPDDriverIL_Z15spi2TransceiverE3PinI4PortI5GPIOBELh1EES0_IS3_Lh2EES0_IS1_I5GPIOCELh3EES0_IS7_Lh2EEE11SendCommandEh
        BL       _ZN9EPDDriverIL_Z15spi2TransceiverE3PinI4PortI5GPIOBELh1EES0_IS3_Lh2EES0_IS1_I5GPIOCELh3EES0_IS7_Lh2EEE11SendCommandEh
        MOVS     R5,#+0
??SetLut_3:
        MOVS     R0,R5
        UXTB     R0,R0            ;; ZeroExt  R0,R0,#+24,#+24
        CMP      R0,#+42
        BGE.N    ??SetLut_4
        LDR.N    R0,??SetLut_0+0x4
        MOVS     R1,R5
        UXTB     R1,R1            ;; ZeroExt  R1,R1,#+24,#+24
        LDRB     R1,[R0, R1]
        MOVS     R0,R4
          CFI FunCall _ZN9EPDDriverIL_Z15spi2TransceiverE3PinI4PortI5GPIOBELh1EES0_IS3_Lh2EES0_IS1_I5GPIOCELh3EES0_IS7_Lh2EEE8SendDataEh
        BL       _ZN9EPDDriverIL_Z15spi2TransceiverE3PinI4PortI5GPIOBELh1EES0_IS3_Lh2EES0_IS1_I5GPIOCELh3EES0_IS7_Lh2EEE8SendDataEh
        ADDS     R5,R5,#+1
        B.N      ??SetLut_3
??SetLut_4:
        MOVS     R1,#+34
        MOVS     R0,R4
          CFI FunCall _ZN9EPDDriverIL_Z15spi2TransceiverE3PinI4PortI5GPIOBELh1EES0_IS3_Lh2EES0_IS1_I5GPIOCELh3EES0_IS7_Lh2EEE11SendCommandEh
        BL       _ZN9EPDDriverIL_Z15spi2TransceiverE3PinI4PortI5GPIOBELh1EES0_IS3_Lh2EES0_IS1_I5GPIOCELh3EES0_IS7_Lh2EEE11SendCommandEh
        MOVS     R5,#+0
??SetLut_5:
        MOVS     R0,R5
        UXTB     R0,R0            ;; ZeroExt  R0,R0,#+24,#+24
        CMP      R0,#+42
        BCS.N    ??SetLut_6
        LDR.N    R0,??SetLut_0+0x8
        MOVS     R1,R5
        UXTB     R1,R1            ;; ZeroExt  R1,R1,#+24,#+24
        LDRB     R1,[R0, R1]
        MOVS     R0,R4
          CFI FunCall _ZN9EPDDriverIL_Z15spi2TransceiverE3PinI4PortI5GPIOBELh1EES0_IS3_Lh2EES0_IS1_I5GPIOCELh3EES0_IS7_Lh2EEE8SendDataEh
        BL       _ZN9EPDDriverIL_Z15spi2TransceiverE3PinI4PortI5GPIOBELh1EES0_IS3_Lh2EES0_IS1_I5GPIOCELh3EES0_IS7_Lh2EEE8SendDataEh
        ADDS     R5,R5,#+1
        B.N      ??SetLut_5
??SetLut_6:
        MOVS     R1,#+35
        MOVS     R0,R4
          CFI FunCall _ZN9EPDDriverIL_Z15spi2TransceiverE3PinI4PortI5GPIOBELh1EES0_IS3_Lh2EES0_IS1_I5GPIOCELh3EES0_IS7_Lh2EEE11SendCommandEh
        BL       _ZN9EPDDriverIL_Z15spi2TransceiverE3PinI4PortI5GPIOBELh1EES0_IS3_Lh2EES0_IS1_I5GPIOCELh3EES0_IS7_Lh2EEE11SendCommandEh
        MOVS     R5,#+0
??SetLut_7:
        MOVS     R0,R5
        UXTB     R0,R0            ;; ZeroExt  R0,R0,#+24,#+24
        CMP      R0,#+42
        BCS.N    ??SetLut_8
        LDR.N    R0,??SetLut_0+0xC
        MOVS     R1,R5
        UXTB     R1,R1            ;; ZeroExt  R1,R1,#+24,#+24
        LDRB     R1,[R0, R1]
        MOVS     R0,R4
          CFI FunCall _ZN9EPDDriverIL_Z15spi2TransceiverE3PinI4PortI5GPIOBELh1EES0_IS3_Lh2EES0_IS1_I5GPIOCELh3EES0_IS7_Lh2EEE8SendDataEh
        BL       _ZN9EPDDriverIL_Z15spi2TransceiverE3PinI4PortI5GPIOBELh1EES0_IS3_Lh2EES0_IS1_I5GPIOCELh3EES0_IS7_Lh2EEE8SendDataEh
        ADDS     R5,R5,#+1
        B.N      ??SetLut_7
??SetLut_8:
        MOVS     R1,#+36
        MOVS     R0,R4
          CFI FunCall _ZN9EPDDriverIL_Z15spi2TransceiverE3PinI4PortI5GPIOBELh1EES0_IS3_Lh2EES0_IS1_I5GPIOCELh3EES0_IS7_Lh2EEE11SendCommandEh
        BL       _ZN9EPDDriverIL_Z15spi2TransceiverE3PinI4PortI5GPIOBELh1EES0_IS3_Lh2EES0_IS1_I5GPIOCELh3EES0_IS7_Lh2EEE11SendCommandEh
        MOVS     R5,#+0
??SetLut_9:
        MOVS     R0,R5
        UXTB     R0,R0            ;; ZeroExt  R0,R0,#+24,#+24
        CMP      R0,#+42
        BCS.N    ??SetLut_10
        LDR.N    R0,??SetLut_0+0x10
        MOVS     R1,R5
        UXTB     R1,R1            ;; ZeroExt  R1,R1,#+24,#+24
        LDRB     R1,[R0, R1]
        MOVS     R0,R4
          CFI FunCall _ZN9EPDDriverIL_Z15spi2TransceiverE3PinI4PortI5GPIOBELh1EES0_IS3_Lh2EES0_IS1_I5GPIOCELh3EES0_IS7_Lh2EEE8SendDataEh
        BL       _ZN9EPDDriverIL_Z15spi2TransceiverE3PinI4PortI5GPIOBELh1EES0_IS3_Lh2EES0_IS1_I5GPIOCELh3EES0_IS7_Lh2EEE8SendDataEh
        ADDS     R5,R5,#+1
        B.N      ??SetLut_9
??SetLut_10:
        POP      {R0,R4,R5,PC}    ;; return
        Nop      
        DATA
??SetLut_0:
        DATA32
        DC32     EPD_4IN2_lut_vcom0
        DC32     EPD_4IN2_lut_ww
        DC32     EPD_4IN2_lut_bw
        DC32     EPD_4IN2_lut_wb
        DC32     EPD_4IN2_lut_bb
          CFI EndBlock cfiBlock287

        SECTION `.text`:CODE:REORDER:NOROOT(2)
        SECTION_GROUP _ZN9EPDDriverIL_Z15spi2TransceiverE3PinI4PortI5GPIOBELh1EES0_IS3_Lh2EES0_IS1_I5GPIOCELh3EES0_IS7_Lh2EEE11SetLutQuickEv
          CFI Block cfiBlock288 Using cfiCommon0
          CFI Function _ZN9EPDDriverIL_Z15spi2TransceiverE3PinI4PortI5GPIOBELh1EES0_IS3_Lh2EES0_IS1_I5GPIOCELh3EES0_IS7_Lh2EEE11SetLutQuickEv
        THUMB
// __interwork __vfp void EPDDriver<spi2Transceiver, PinCSforEPD, PinDCforEPD, PinRSTforEPD, PinBSYforEPD>::SetLutQuick()
_ZN9EPDDriverIL_Z15spi2TransceiverE3PinI4PortI5GPIOBELh1EES0_IS3_Lh2EES0_IS1_I5GPIOCELh3EES0_IS7_Lh2EEE11SetLutQuickEv:
        PUSH     {R3-R5,LR}
          CFI R14 Frame(CFA, -4)
          CFI R5 Frame(CFA, -8)
          CFI R4 Frame(CFA, -12)
          CFI CFA R13+16
        MOVS     R4,R0
        MOVS     R1,#+32
        MOVS     R0,R4
          CFI FunCall _ZN9EPDDriverIL_Z15spi2TransceiverE3PinI4PortI5GPIOBELh1EES0_IS3_Lh2EES0_IS1_I5GPIOCELh3EES0_IS7_Lh2EEE11SendCommandEh
        BL       _ZN9EPDDriverIL_Z15spi2TransceiverE3PinI4PortI5GPIOBELh1EES0_IS3_Lh2EES0_IS1_I5GPIOCELh3EES0_IS7_Lh2EEE11SendCommandEh
        MOVS     R5,#+0
??SetLutQuick_1:
        MOVS     R0,R5
        UXTB     R0,R0            ;; ZeroExt  R0,R0,#+24,#+24
        CMP      R0,#+44
        BCS.N    ??SetLutQuick_2
        LDR.N    R0,??SetLutQuick_0
        MOVS     R1,R5
        UXTB     R1,R1            ;; ZeroExt  R1,R1,#+24,#+24
        LDRB     R1,[R0, R1]
        MOVS     R0,R4
          CFI FunCall _ZN9EPDDriverIL_Z15spi2TransceiverE3PinI4PortI5GPIOBELh1EES0_IS3_Lh2EES0_IS1_I5GPIOCELh3EES0_IS7_Lh2EEE8SendDataEh
        BL       _ZN9EPDDriverIL_Z15spi2TransceiverE3PinI4PortI5GPIOBELh1EES0_IS3_Lh2EES0_IS1_I5GPIOCELh3EES0_IS7_Lh2EEE8SendDataEh
        ADDS     R5,R5,#+1
        B.N      ??SetLutQuick_1
??SetLutQuick_2:
        MOVS     R1,#+33
        MOVS     R0,R4
          CFI FunCall _ZN9EPDDriverIL_Z15spi2TransceiverE3PinI4PortI5GPIOBELh1EES0_IS3_Lh2EES0_IS1_I5GPIOCELh3EES0_IS7_Lh2EEE11SendCommandEh
        BL       _ZN9EPDDriverIL_Z15spi2TransceiverE3PinI4PortI5GPIOBELh1EES0_IS3_Lh2EES0_IS1_I5GPIOCELh3EES0_IS7_Lh2EEE11SendCommandEh
        MOVS     R5,#+0
??SetLutQuick_3:
        MOVS     R0,R5
        UXTB     R0,R0            ;; ZeroExt  R0,R0,#+24,#+24
        CMP      R0,#+42
        BGE.N    ??SetLutQuick_4
        LDR.N    R0,??SetLutQuick_0+0x4
        MOVS     R1,R5
        UXTB     R1,R1            ;; ZeroExt  R1,R1,#+24,#+24
        LDRB     R1,[R0, R1]
        MOVS     R0,R4
          CFI FunCall _ZN9EPDDriverIL_Z15spi2TransceiverE3PinI4PortI5GPIOBELh1EES0_IS3_Lh2EES0_IS1_I5GPIOCELh3EES0_IS7_Lh2EEE8SendDataEh
        BL       _ZN9EPDDriverIL_Z15spi2TransceiverE3PinI4PortI5GPIOBELh1EES0_IS3_Lh2EES0_IS1_I5GPIOCELh3EES0_IS7_Lh2EEE8SendDataEh
        ADDS     R5,R5,#+1
        B.N      ??SetLutQuick_3
??SetLutQuick_4:
        MOVS     R1,#+34
        MOVS     R0,R4
          CFI FunCall _ZN9EPDDriverIL_Z15spi2TransceiverE3PinI4PortI5GPIOBELh1EES0_IS3_Lh2EES0_IS1_I5GPIOCELh3EES0_IS7_Lh2EEE11SendCommandEh
        BL       _ZN9EPDDriverIL_Z15spi2TransceiverE3PinI4PortI5GPIOBELh1EES0_IS3_Lh2EES0_IS1_I5GPIOCELh3EES0_IS7_Lh2EEE11SendCommandEh
        MOVS     R5,#+0
??SetLutQuick_5:
        MOVS     R0,R5
        UXTB     R0,R0            ;; ZeroExt  R0,R0,#+24,#+24
        CMP      R0,#+42
        BCS.N    ??SetLutQuick_6
        LDR.N    R0,??SetLutQuick_0+0x8
        MOVS     R1,R5
        UXTB     R1,R1            ;; ZeroExt  R1,R1,#+24,#+24
        LDRB     R1,[R0, R1]
        MOVS     R0,R4
          CFI FunCall _ZN9EPDDriverIL_Z15spi2TransceiverE3PinI4PortI5GPIOBELh1EES0_IS3_Lh2EES0_IS1_I5GPIOCELh3EES0_IS7_Lh2EEE8SendDataEh
        BL       _ZN9EPDDriverIL_Z15spi2TransceiverE3PinI4PortI5GPIOBELh1EES0_IS3_Lh2EES0_IS1_I5GPIOCELh3EES0_IS7_Lh2EEE8SendDataEh
        ADDS     R5,R5,#+1
        B.N      ??SetLutQuick_5
??SetLutQuick_6:
        MOVS     R1,#+35
        MOVS     R0,R4
          CFI FunCall _ZN9EPDDriverIL_Z15spi2TransceiverE3PinI4PortI5GPIOBELh1EES0_IS3_Lh2EES0_IS1_I5GPIOCELh3EES0_IS7_Lh2EEE11SendCommandEh
        BL       _ZN9EPDDriverIL_Z15spi2TransceiverE3PinI4PortI5GPIOBELh1EES0_IS3_Lh2EES0_IS1_I5GPIOCELh3EES0_IS7_Lh2EEE11SendCommandEh
        MOVS     R5,#+0
??SetLutQuick_7:
        MOVS     R0,R5
        UXTB     R0,R0            ;; ZeroExt  R0,R0,#+24,#+24
        CMP      R0,#+42
        BCS.N    ??SetLutQuick_8
        LDR.N    R0,??SetLutQuick_0+0xC
        MOVS     R1,R5
        UXTB     R1,R1            ;; ZeroExt  R1,R1,#+24,#+24
        LDRB     R1,[R0, R1]
        MOVS     R0,R4
          CFI FunCall _ZN9EPDDriverIL_Z15spi2TransceiverE3PinI4PortI5GPIOBELh1EES0_IS3_Lh2EES0_IS1_I5GPIOCELh3EES0_IS7_Lh2EEE8SendDataEh
        BL       _ZN9EPDDriverIL_Z15spi2TransceiverE3PinI4PortI5GPIOBELh1EES0_IS3_Lh2EES0_IS1_I5GPIOCELh3EES0_IS7_Lh2EEE8SendDataEh
        ADDS     R5,R5,#+1
        B.N      ??SetLutQuick_7
??SetLutQuick_8:
        MOVS     R1,#+36
        MOVS     R0,R4
          CFI FunCall _ZN9EPDDriverIL_Z15spi2TransceiverE3PinI4PortI5GPIOBELh1EES0_IS3_Lh2EES0_IS1_I5GPIOCELh3EES0_IS7_Lh2EEE11SendCommandEh
        BL       _ZN9EPDDriverIL_Z15spi2TransceiverE3PinI4PortI5GPIOBELh1EES0_IS3_Lh2EES0_IS1_I5GPIOCELh3EES0_IS7_Lh2EEE11SendCommandEh
        MOVS     R5,#+0
??SetLutQuick_9:
        MOVS     R0,R5
        UXTB     R0,R0            ;; ZeroExt  R0,R0,#+24,#+24
        CMP      R0,#+42
        BCS.N    ??SetLutQuick_10
        LDR.N    R0,??SetLutQuick_0+0x10
        MOVS     R1,R5
        UXTB     R1,R1            ;; ZeroExt  R1,R1,#+24,#+24
        LDRB     R1,[R0, R1]
        MOVS     R0,R4
          CFI FunCall _ZN9EPDDriverIL_Z15spi2TransceiverE3PinI4PortI5GPIOBELh1EES0_IS3_Lh2EES0_IS1_I5GPIOCELh3EES0_IS7_Lh2EEE8SendDataEh
        BL       _ZN9EPDDriverIL_Z15spi2TransceiverE3PinI4PortI5GPIOBELh1EES0_IS3_Lh2EES0_IS1_I5GPIOCELh3EES0_IS7_Lh2EEE8SendDataEh
        ADDS     R5,R5,#+1
        B.N      ??SetLutQuick_9
??SetLutQuick_10:
        POP      {R0,R4,R5,PC}    ;; return
        Nop      
        DATA
??SetLutQuick_0:
        DATA32
        DC32     EPD_4IN2_lut_vcom0_quick
        DC32     EPD_4IN2_lut_ww_quick
        DC32     EPD_4IN2_lut_bw_quick
        DC32     EPD_4IN2_lut_wb_quick
        DC32     EPD_4IN2_lut_bb_quick
          CFI EndBlock cfiBlock288

        SECTION `.text`:CODE:REORDER:NOROOT(1)
        SECTION_GROUP _ZN9EPDDriverIL_Z15spi2TransceiverE3PinI4PortI5GPIOBELh1EES0_IS3_Lh2EES0_IS1_I5GPIOCELh3EES0_IS7_Lh2EEE4InitEv
          CFI Block cfiBlock289 Using cfiCommon0
          CFI Function _ZN9EPDDriverIL_Z15spi2TransceiverE3PinI4PortI5GPIOBELh1EES0_IS3_Lh2EES0_IS1_I5GPIOCELh3EES0_IS7_Lh2EEE4InitEv
        THUMB
// __interwork __vfp void EPDDriver<spi2Transceiver, PinCSforEPD, PinDCforEPD, PinRSTforEPD, PinBSYforEPD>::Init()
_ZN9EPDDriverIL_Z15spi2TransceiverE3PinI4PortI5GPIOBELh1EES0_IS3_Lh2EES0_IS1_I5GPIOCELh3EES0_IS7_Lh2EEE4InitEv:
        PUSH     {R4,LR}
          CFI R14 Frame(CFA, -4)
          CFI R4 Frame(CFA, -8)
          CFI CFA R13+8
        MOVS     R4,R0
        MOVS     R0,R4
          CFI FunCall _ZN9EPDDriverIL_Z15spi2TransceiverE3PinI4PortI5GPIOBELh1EES0_IS3_Lh2EES0_IS1_I5GPIOCELh3EES0_IS7_Lh2EEE5ResetEv
        BL       _ZN9EPDDriverIL_Z15spi2TransceiverE3PinI4PortI5GPIOBELh1EES0_IS3_Lh2EES0_IS1_I5GPIOCELh3EES0_IS7_Lh2EEE5ResetEv
        MOVS     R1,#+6
        MOVS     R0,R4
          CFI FunCall _ZN9EPDDriverIL_Z15spi2TransceiverE3PinI4PortI5GPIOBELh1EES0_IS3_Lh2EES0_IS1_I5GPIOCELh3EES0_IS7_Lh2EEE11SendCommandEh
        BL       _ZN9EPDDriverIL_Z15spi2TransceiverE3PinI4PortI5GPIOBELh1EES0_IS3_Lh2EES0_IS1_I5GPIOCELh3EES0_IS7_Lh2EEE11SendCommandEh
        MOVS     R1,#+23
        MOVS     R0,R4
          CFI FunCall _ZN9EPDDriverIL_Z15spi2TransceiverE3PinI4PortI5GPIOBELh1EES0_IS3_Lh2EES0_IS1_I5GPIOCELh3EES0_IS7_Lh2EEE8SendDataEh
        BL       _ZN9EPDDriverIL_Z15spi2TransceiverE3PinI4PortI5GPIOBELh1EES0_IS3_Lh2EES0_IS1_I5GPIOCELh3EES0_IS7_Lh2EEE8SendDataEh
        MOVS     R1,#+23
        MOVS     R0,R4
          CFI FunCall _ZN9EPDDriverIL_Z15spi2TransceiverE3PinI4PortI5GPIOBELh1EES0_IS3_Lh2EES0_IS1_I5GPIOCELh3EES0_IS7_Lh2EEE8SendDataEh
        BL       _ZN9EPDDriverIL_Z15spi2TransceiverE3PinI4PortI5GPIOBELh1EES0_IS3_Lh2EES0_IS1_I5GPIOCELh3EES0_IS7_Lh2EEE8SendDataEh
        MOVS     R1,#+23
        MOVS     R0,R4
          CFI FunCall _ZN9EPDDriverIL_Z15spi2TransceiverE3PinI4PortI5GPIOBELh1EES0_IS3_Lh2EES0_IS1_I5GPIOCELh3EES0_IS7_Lh2EEE8SendDataEh
        BL       _ZN9EPDDriverIL_Z15spi2TransceiverE3PinI4PortI5GPIOBELh1EES0_IS3_Lh2EES0_IS1_I5GPIOCELh3EES0_IS7_Lh2EEE8SendDataEh
        MOVS     R1,#+2
        MOVS     R0,R4
          CFI FunCall _ZN9EPDDriverIL_Z15spi2TransceiverE3PinI4PortI5GPIOBELh1EES0_IS3_Lh2EES0_IS1_I5GPIOCELh3EES0_IS7_Lh2EEE11SendCommandEh
        BL       _ZN9EPDDriverIL_Z15spi2TransceiverE3PinI4PortI5GPIOBELh1EES0_IS3_Lh2EES0_IS1_I5GPIOCELh3EES0_IS7_Lh2EEE11SendCommandEh
        MOVS     R0,R4
          CFI FunCall _ZN9EPDDriverIL_Z15spi2TransceiverE3PinI4PortI5GPIOBELh1EES0_IS3_Lh2EES0_IS1_I5GPIOCELh3EES0_IS7_Lh2EEE13WaitUntilBusyEv
        BL       _ZN9EPDDriverIL_Z15spi2TransceiverE3PinI4PortI5GPIOBELh1EES0_IS3_Lh2EES0_IS1_I5GPIOCELh3EES0_IS7_Lh2EEE13WaitUntilBusyEv
        MOVS     R1,#+4
        MOVS     R0,R4
          CFI FunCall _ZN9EPDDriverIL_Z15spi2TransceiverE3PinI4PortI5GPIOBELh1EES0_IS3_Lh2EES0_IS1_I5GPIOCELh3EES0_IS7_Lh2EEE11SendCommandEh
        BL       _ZN9EPDDriverIL_Z15spi2TransceiverE3PinI4PortI5GPIOBELh1EES0_IS3_Lh2EES0_IS1_I5GPIOCELh3EES0_IS7_Lh2EEE11SendCommandEh
        MOVS     R0,R4
          CFI FunCall _ZN9EPDDriverIL_Z15spi2TransceiverE3PinI4PortI5GPIOBELh1EES0_IS3_Lh2EES0_IS1_I5GPIOCELh3EES0_IS7_Lh2EEE13WaitUntilBusyEv
        BL       _ZN9EPDDriverIL_Z15spi2TransceiverE3PinI4PortI5GPIOBELh1EES0_IS3_Lh2EES0_IS1_I5GPIOCELh3EES0_IS7_Lh2EEE13WaitUntilBusyEv
        MOVS     R1,#+0
        MOVS     R0,R4
          CFI FunCall _ZN9EPDDriverIL_Z15spi2TransceiverE3PinI4PortI5GPIOBELh1EES0_IS3_Lh2EES0_IS1_I5GPIOCELh3EES0_IS7_Lh2EEE11SendCommandEh
        BL       _ZN9EPDDriverIL_Z15spi2TransceiverE3PinI4PortI5GPIOBELh1EES0_IS3_Lh2EES0_IS1_I5GPIOCELh3EES0_IS7_Lh2EEE11SendCommandEh
        MOVS     R1,#+63
        MOVS     R0,R4
          CFI FunCall _ZN9EPDDriverIL_Z15spi2TransceiverE3PinI4PortI5GPIOBELh1EES0_IS3_Lh2EES0_IS1_I5GPIOCELh3EES0_IS7_Lh2EEE8SendDataEh
        BL       _ZN9EPDDriverIL_Z15spi2TransceiverE3PinI4PortI5GPIOBELh1EES0_IS3_Lh2EES0_IS1_I5GPIOCELh3EES0_IS7_Lh2EEE8SendDataEh
        MOVS     R1,#+48
        MOVS     R0,R4
          CFI FunCall _ZN9EPDDriverIL_Z15spi2TransceiverE3PinI4PortI5GPIOBELh1EES0_IS3_Lh2EES0_IS1_I5GPIOCELh3EES0_IS7_Lh2EEE11SendCommandEh
        BL       _ZN9EPDDriverIL_Z15spi2TransceiverE3PinI4PortI5GPIOBELh1EES0_IS3_Lh2EES0_IS1_I5GPIOCELh3EES0_IS7_Lh2EEE11SendCommandEh
        MOVS     R1,#+60
        MOVS     R0,R4
          CFI FunCall _ZN9EPDDriverIL_Z15spi2TransceiverE3PinI4PortI5GPIOBELh1EES0_IS3_Lh2EES0_IS1_I5GPIOCELh3EES0_IS7_Lh2EEE8SendDataEh
        BL       _ZN9EPDDriverIL_Z15spi2TransceiverE3PinI4PortI5GPIOBELh1EES0_IS3_Lh2EES0_IS1_I5GPIOCELh3EES0_IS7_Lh2EEE8SendDataEh
        MOVS     R1,#+130
        MOVS     R0,R4
          CFI FunCall _ZN9EPDDriverIL_Z15spi2TransceiverE3PinI4PortI5GPIOBELh1EES0_IS3_Lh2EES0_IS1_I5GPIOCELh3EES0_IS7_Lh2EEE11SendCommandEh
        BL       _ZN9EPDDriverIL_Z15spi2TransceiverE3PinI4PortI5GPIOBELh1EES0_IS3_Lh2EES0_IS1_I5GPIOCELh3EES0_IS7_Lh2EEE11SendCommandEh
        MOVS     R1,#+58
        MOVS     R0,R4
          CFI FunCall _ZN9EPDDriverIL_Z15spi2TransceiverE3PinI4PortI5GPIOBELh1EES0_IS3_Lh2EES0_IS1_I5GPIOCELh3EES0_IS7_Lh2EEE8SendDataEh
        BL       _ZN9EPDDriverIL_Z15spi2TransceiverE3PinI4PortI5GPIOBELh1EES0_IS3_Lh2EES0_IS1_I5GPIOCELh3EES0_IS7_Lh2EEE8SendDataEh
        MOVS     R1,#+80
        MOVS     R0,R4
          CFI FunCall _ZN9EPDDriverIL_Z15spi2TransceiverE3PinI4PortI5GPIOBELh1EES0_IS3_Lh2EES0_IS1_I5GPIOCELh3EES0_IS7_Lh2EEE11SendCommandEh
        BL       _ZN9EPDDriverIL_Z15spi2TransceiverE3PinI4PortI5GPIOBELh1EES0_IS3_Lh2EES0_IS1_I5GPIOCELh3EES0_IS7_Lh2EEE11SendCommandEh
        MOVS     R1,#+151
        MOVS     R0,R4
          CFI FunCall _ZN9EPDDriverIL_Z15spi2TransceiverE3PinI4PortI5GPIOBELh1EES0_IS3_Lh2EES0_IS1_I5GPIOCELh3EES0_IS7_Lh2EEE8SendDataEh
        BL       _ZN9EPDDriverIL_Z15spi2TransceiverE3PinI4PortI5GPIOBELh1EES0_IS3_Lh2EES0_IS1_I5GPIOCELh3EES0_IS7_Lh2EEE8SendDataEh
        MOVS     R0,R4
          CFI FunCall _ZN9EPDDriverIL_Z15spi2TransceiverE3PinI4PortI5GPIOBELh1EES0_IS3_Lh2EES0_IS1_I5GPIOCELh3EES0_IS7_Lh2EEE6SetLutEv
        BL       _ZN9EPDDriverIL_Z15spi2TransceiverE3PinI4PortI5GPIOBELh1EES0_IS3_Lh2EES0_IS1_I5GPIOCELh3EES0_IS7_Lh2EEE6SetLutEv
        POP      {R4,PC}          ;; return
          CFI EndBlock cfiBlock289

        SECTION `.text`:CODE:REORDER:NOROOT(1)
        SECTION_GROUP _ZN9EPDDriverIL_Z15spi2TransceiverE3PinI4PortI5GPIOBELh1EES0_IS3_Lh2EES0_IS1_I5GPIOCELh3EES0_IS7_Lh2EEE19UpdatePartialWindowEPKhtttt
          CFI Block cfiBlock290 Using cfiCommon0
          CFI Function _ZN9EPDDriverIL_Z15spi2TransceiverE3PinI4PortI5GPIOBELh1EES0_IS3_Lh2EES0_IS1_I5GPIOCELh3EES0_IS7_Lh2EEE19UpdatePartialWindowEPKhtttt
        THUMB
// __interwork __vfp void EPDDriver<spi2Transceiver, PinCSforEPD, PinDCforEPD, PinRSTforEPD, PinBSYforEPD>::UpdatePartialWindow(uint8_t const *, uint16_t, uint16_t, uint16_t, uint16_t)
_ZN9EPDDriverIL_Z15spi2TransceiverE3PinI4PortI5GPIOBELh1EES0_IS3_Lh2EES0_IS1_I5GPIOCELh3EES0_IS7_Lh2EEE19UpdatePartialWindowEPKhtttt:
        PUSH     {R4-R10,LR}
          CFI R14 Frame(CFA, -4)
          CFI R10 Frame(CFA, -8)
          CFI R9 Frame(CFA, -12)
          CFI R8 Frame(CFA, -16)
          CFI R7 Frame(CFA, -20)
          CFI R6 Frame(CFA, -24)
          CFI R5 Frame(CFA, -28)
          CFI R4 Frame(CFA, -32)
          CFI CFA R13+32
        MOVS     R6,R0
        MOVS     R7,R1
        MOV      R8,R2
        MOV      R9,R3
        LDR      R5,[SP, #+32]
        LDR      R4,[SP, #+36]
        MOVS     R0,R5
        UXTH     R0,R0            ;; ZeroExt  R0,R0,#+16,#+16
        MOVS     R1,#+8
        SDIV     R10,R0,R1
        MOVS     R0,R4
        UXTH     R0,R0            ;; ZeroExt  R0,R0,#+16,#+16
        MUL      R10,R0,R10
        MOVS     R0,R6
          CFI FunCall _ZN9EPDDriverIL_Z15spi2TransceiverE3PinI4PortI5GPIOBELh1EES0_IS3_Lh2EES0_IS1_I5GPIOCELh3EES0_IS7_Lh2EEE14SetPartialModeEv
        BL       _ZN9EPDDriverIL_Z15spi2TransceiverE3PinI4PortI5GPIOBELh1EES0_IS3_Lh2EES0_IS1_I5GPIOCELh3EES0_IS7_Lh2EEE14SetPartialModeEv
        MOVS     R1,#+144
        MOVS     R0,R6
          CFI FunCall _ZN9EPDDriverIL_Z15spi2TransceiverE3PinI4PortI5GPIOBELh1EES0_IS3_Lh2EES0_IS1_I5GPIOCELh3EES0_IS7_Lh2EEE11SendCommandEh
        BL       _ZN9EPDDriverIL_Z15spi2TransceiverE3PinI4PortI5GPIOBELh1EES0_IS3_Lh2EES0_IS1_I5GPIOCELh3EES0_IS7_Lh2EEE11SendCommandEh
        MOV      R1,R8
        UXTH     R1,R1            ;; ZeroExt  R1,R1,#+16,#+16
        LSRS     R1,R1,#+8
        UXTB     R1,R1            ;; ZeroExt  R1,R1,#+24,#+24
        MOVS     R0,R6
          CFI FunCall _ZN9EPDDriverIL_Z15spi2TransceiverE3PinI4PortI5GPIOBELh1EES0_IS3_Lh2EES0_IS1_I5GPIOCELh3EES0_IS7_Lh2EEE8SendDataEh
        BL       _ZN9EPDDriverIL_Z15spi2TransceiverE3PinI4PortI5GPIOBELh1EES0_IS3_Lh2EES0_IS1_I5GPIOCELh3EES0_IS7_Lh2EEE8SendDataEh
        ANDS     R1,R8,#0xF8
        MOVS     R0,R6
          CFI FunCall _ZN9EPDDriverIL_Z15spi2TransceiverE3PinI4PortI5GPIOBELh1EES0_IS3_Lh2EES0_IS1_I5GPIOCELh3EES0_IS7_Lh2EEE8SendDataEh
        BL       _ZN9EPDDriverIL_Z15spi2TransceiverE3PinI4PortI5GPIOBELh1EES0_IS3_Lh2EES0_IS1_I5GPIOCELh3EES0_IS7_Lh2EEE8SendDataEh
        MOV      R0,R8
        UXTH     R0,R0            ;; ZeroExt  R0,R0,#+16,#+16
        ANDS     R0,R0,#0xF8
        UXTAH    R1,R0,R5
        SUBS     R1,R1,#+1
        LSRS     R1,R1,#+8
        UXTB     R1,R1            ;; ZeroExt  R1,R1,#+24,#+24
        MOVS     R0,R6
          CFI FunCall _ZN9EPDDriverIL_Z15spi2TransceiverE3PinI4PortI5GPIOBELh1EES0_IS3_Lh2EES0_IS1_I5GPIOCELh3EES0_IS7_Lh2EEE8SendDataEh
        BL       _ZN9EPDDriverIL_Z15spi2TransceiverE3PinI4PortI5GPIOBELh1EES0_IS3_Lh2EES0_IS1_I5GPIOCELh3EES0_IS7_Lh2EEE8SendDataEh
        MOV      R0,R8
        UXTH     R0,R0            ;; ZeroExt  R0,R0,#+16,#+16
        ANDS     R0,R0,#0xF8
        UXTAH    R0,R0,R5
        SUBS     R1,R0,#+1
        ORRS     R1,R1,#0x7
        UXTB     R1,R1            ;; ZeroExt  R1,R1,#+24,#+24
        MOVS     R0,R6
          CFI FunCall _ZN9EPDDriverIL_Z15spi2TransceiverE3PinI4PortI5GPIOBELh1EES0_IS3_Lh2EES0_IS1_I5GPIOCELh3EES0_IS7_Lh2EEE8SendDataEh
        BL       _ZN9EPDDriverIL_Z15spi2TransceiverE3PinI4PortI5GPIOBELh1EES0_IS3_Lh2EES0_IS1_I5GPIOCELh3EES0_IS7_Lh2EEE8SendDataEh
        MOV      R1,R9
        UXTH     R1,R1            ;; ZeroExt  R1,R1,#+16,#+16
        LSRS     R1,R1,#+8
        UXTB     R1,R1            ;; ZeroExt  R1,R1,#+24,#+24
        MOVS     R0,R6
          CFI FunCall _ZN9EPDDriverIL_Z15spi2TransceiverE3PinI4PortI5GPIOBELh1EES0_IS3_Lh2EES0_IS1_I5GPIOCELh3EES0_IS7_Lh2EEE8SendDataEh
        BL       _ZN9EPDDriverIL_Z15spi2TransceiverE3PinI4PortI5GPIOBELh1EES0_IS3_Lh2EES0_IS1_I5GPIOCELh3EES0_IS7_Lh2EEE8SendDataEh
        MOV      R1,R9
        UXTB     R1,R1            ;; ZeroExt  R1,R1,#+24,#+24
        MOVS     R0,R6
          CFI FunCall _ZN9EPDDriverIL_Z15spi2TransceiverE3PinI4PortI5GPIOBELh1EES0_IS3_Lh2EES0_IS1_I5GPIOCELh3EES0_IS7_Lh2EEE8SendDataEh
        BL       _ZN9EPDDriverIL_Z15spi2TransceiverE3PinI4PortI5GPIOBELh1EES0_IS3_Lh2EES0_IS1_I5GPIOCELh3EES0_IS7_Lh2EEE8SendDataEh
        MOVS     R0,R4
        UXTH     R0,R0            ;; ZeroExt  R0,R0,#+16,#+16
        UXTAH    R1,R0,R9
        SUBS     R1,R1,#+1
        LSRS     R1,R1,#+8
        UXTB     R1,R1            ;; ZeroExt  R1,R1,#+24,#+24
        MOVS     R0,R6
          CFI FunCall _ZN9EPDDriverIL_Z15spi2TransceiverE3PinI4PortI5GPIOBELh1EES0_IS3_Lh2EES0_IS1_I5GPIOCELh3EES0_IS7_Lh2EEE8SendDataEh
        BL       _ZN9EPDDriverIL_Z15spi2TransceiverE3PinI4PortI5GPIOBELh1EES0_IS3_Lh2EES0_IS1_I5GPIOCELh3EES0_IS7_Lh2EEE8SendDataEh
        MOVS     R0,R4
        UXTH     R0,R0            ;; ZeroExt  R0,R0,#+16,#+16
        UXTAH    R0,R0,R9
        SUBS     R1,R0,#+1
        UXTB     R1,R1            ;; ZeroExt  R1,R1,#+24,#+24
        MOVS     R0,R6
          CFI FunCall _ZN9EPDDriverIL_Z15spi2TransceiverE3PinI4PortI5GPIOBELh1EES0_IS3_Lh2EES0_IS1_I5GPIOCELh3EES0_IS7_Lh2EEE8SendDataEh
        BL       _ZN9EPDDriverIL_Z15spi2TransceiverE3PinI4PortI5GPIOBELh1EES0_IS3_Lh2EES0_IS1_I5GPIOCELh3EES0_IS7_Lh2EEE8SendDataEh
        MOVS     R1,#+1
        MOVS     R0,R6
          CFI FunCall _ZN9EPDDriverIL_Z15spi2TransceiverE3PinI4PortI5GPIOBELh1EES0_IS3_Lh2EES0_IS1_I5GPIOCELh3EES0_IS7_Lh2EEE8SendDataEh
        BL       _ZN9EPDDriverIL_Z15spi2TransceiverE3PinI4PortI5GPIOBELh1EES0_IS3_Lh2EES0_IS1_I5GPIOCELh3EES0_IS7_Lh2EEE8SendDataEh
        MOVS     R1,#+19
        MOVS     R0,R6
          CFI FunCall _ZN9EPDDriverIL_Z15spi2TransceiverE3PinI4PortI5GPIOBELh1EES0_IS3_Lh2EES0_IS1_I5GPIOCELh3EES0_IS7_Lh2EEE11SendCommandEh
        BL       _ZN9EPDDriverIL_Z15spi2TransceiverE3PinI4PortI5GPIOBELh1EES0_IS3_Lh2EES0_IS1_I5GPIOCELh3EES0_IS7_Lh2EEE11SendCommandEh
        MOV      R2,R10
        MOVS     R1,R7
        MOVS     R0,R6
          CFI FunCall _ZN9EPDDriverIL_Z15spi2TransceiverE3PinI4PortI5GPIOBELh1EES0_IS3_Lh2EES0_IS1_I5GPIOCELh3EES0_IS7_Lh2EEE8SendDataEPKhj
        BL       _ZN9EPDDriverIL_Z15spi2TransceiverE3PinI4PortI5GPIOBELh1EES0_IS3_Lh2EES0_IS1_I5GPIOCELh3EES0_IS7_Lh2EEE8SendDataEPKhj
        MOVS     R1,#+144
        MOVS     R0,R6
          CFI FunCall _ZN9EPDDriverIL_Z15spi2TransceiverE3PinI4PortI5GPIOBELh1EES0_IS3_Lh2EES0_IS1_I5GPIOCELh3EES0_IS7_Lh2EEE11SendCommandEh
        BL       _ZN9EPDDriverIL_Z15spi2TransceiverE3PinI4PortI5GPIOBELh1EES0_IS3_Lh2EES0_IS1_I5GPIOCELh3EES0_IS7_Lh2EEE11SendCommandEh
        MOVS     R0,R6
          CFI FunCall _ZN9EPDDriverIL_Z15spi2TransceiverE3PinI4PortI5GPIOBELh1EES0_IS3_Lh2EES0_IS1_I5GPIOCELh3EES0_IS7_Lh2EEE12RefreshQuickEv
        BL       _ZN9EPDDriverIL_Z15spi2TransceiverE3PinI4PortI5GPIOBELh1EES0_IS3_Lh2EES0_IS1_I5GPIOCELh3EES0_IS7_Lh2EEE12RefreshQuickEv
        POP      {R4-R10,PC}      ;; return
          CFI EndBlock cfiBlock290

        SECTION `.text`:CODE:REORDER:NOROOT(1)
        SECTION_GROUP _ZN9EPDDriverIL_Z15spi2TransceiverE3PinI4PortI5GPIOBELh1EES0_IS3_Lh2EES0_IS1_I5GPIOCELh3EES0_IS7_Lh2EEE14SetPartialModeEv
          CFI Block cfiBlock291 Using cfiCommon0
          CFI Function _ZN9EPDDriverIL_Z15spi2TransceiverE3PinI4PortI5GPIOBELh1EES0_IS3_Lh2EES0_IS1_I5GPIOCELh3EES0_IS7_Lh2EEE14SetPartialModeEv
        THUMB
// __interwork __vfp void EPDDriver<spi2Transceiver, PinCSforEPD, PinDCforEPD, PinRSTforEPD, PinBSYforEPD>::SetPartialMode()
_ZN9EPDDriverIL_Z15spi2TransceiverE3PinI4PortI5GPIOBELh1EES0_IS3_Lh2EES0_IS1_I5GPIOCELh3EES0_IS7_Lh2EEE14SetPartialModeEv:
        PUSH     {R4,LR}
          CFI R14 Frame(CFA, -4)
          CFI R4 Frame(CFA, -8)
          CFI CFA R13+8
        MOVS     R4,R0
        MOVS     R1,#+145
        MOVS     R0,R4
          CFI FunCall _ZN9EPDDriverIL_Z15spi2TransceiverE3PinI4PortI5GPIOBELh1EES0_IS3_Lh2EES0_IS1_I5GPIOCELh3EES0_IS7_Lh2EEE11SendCommandEh
        BL       _ZN9EPDDriverIL_Z15spi2TransceiverE3PinI4PortI5GPIOBELh1EES0_IS3_Lh2EES0_IS1_I5GPIOCELh3EES0_IS7_Lh2EEE11SendCommandEh
        POP      {R4,PC}          ;; return
          CFI EndBlock cfiBlock291

        SECTION `.text`:CODE:REORDER:NOROOT(1)
        SECTION_GROUP _ZN9EPDDriverIL_Z15spi2TransceiverE3PinI4PortI5GPIOBELh1EES0_IS3_Lh2EES0_IS1_I5GPIOCELh3EES0_IS7_Lh2EEE5ClearEv
          CFI Block cfiBlock292 Using cfiCommon0
          CFI Function _ZN9EPDDriverIL_Z15spi2TransceiverE3PinI4PortI5GPIOBELh1EES0_IS3_Lh2EES0_IS1_I5GPIOCELh3EES0_IS7_Lh2EEE5ClearEv
        THUMB
// __interwork __vfp void EPDDriver<spi2Transceiver, PinCSforEPD, PinDCforEPD, PinRSTforEPD, PinBSYforEPD>::Clear()
_ZN9EPDDriverIL_Z15spi2TransceiverE3PinI4PortI5GPIOBELh1EES0_IS3_Lh2EES0_IS1_I5GPIOCELh3EES0_IS7_Lh2EEE5ClearEv:
        PUSH     {R4-R6,LR}
          CFI R14 Frame(CFA, -4)
          CFI R6 Frame(CFA, -8)
          CFI R5 Frame(CFA, -12)
          CFI R4 Frame(CFA, -16)
          CFI CFA R13+16
        MOVS     R4,R0
        MOVS     R1,#+16
        MOVS     R0,R4
          CFI FunCall _ZN9EPDDriverIL_Z15spi2TransceiverE3PinI4PortI5GPIOBELh1EES0_IS3_Lh2EES0_IS1_I5GPIOCELh3EES0_IS7_Lh2EEE11SendCommandEh
        BL       _ZN9EPDDriverIL_Z15spi2TransceiverE3PinI4PortI5GPIOBELh1EES0_IS3_Lh2EES0_IS1_I5GPIOCELh3EES0_IS7_Lh2EEE11SendCommandEh
        MOVS     R5,#+0
??Clear_0:
        MOVS     R0,R5
        UXTH     R0,R0            ;; ZeroExt  R0,R0,#+16,#+16
        CMP      R0,#+300
        BGE.N    ??Clear_1
        MOVS     R6,#+0
??Clear_2:
        MOVS     R0,R6
        UXTH     R0,R0            ;; ZeroExt  R0,R0,#+16,#+16
        CMP      R0,#+50
        BGE.N    ??Clear_3
        MOVS     R1,#+255
        MOVS     R0,R4
          CFI FunCall _ZN9EPDDriverIL_Z15spi2TransceiverE3PinI4PortI5GPIOBELh1EES0_IS3_Lh2EES0_IS1_I5GPIOCELh3EES0_IS7_Lh2EEE8SendDataEh
        BL       _ZN9EPDDriverIL_Z15spi2TransceiverE3PinI4PortI5GPIOBELh1EES0_IS3_Lh2EES0_IS1_I5GPIOCELh3EES0_IS7_Lh2EEE8SendDataEh
        ADDS     R6,R6,#+1
        B.N      ??Clear_2
??Clear_3:
        ADDS     R5,R5,#+1
        B.N      ??Clear_0
??Clear_1:
        MOVS     R1,#+19
        MOVS     R0,R4
          CFI FunCall _ZN9EPDDriverIL_Z15spi2TransceiverE3PinI4PortI5GPIOBELh1EES0_IS3_Lh2EES0_IS1_I5GPIOCELh3EES0_IS7_Lh2EEE11SendCommandEh
        BL       _ZN9EPDDriverIL_Z15spi2TransceiverE3PinI4PortI5GPIOBELh1EES0_IS3_Lh2EES0_IS1_I5GPIOCELh3EES0_IS7_Lh2EEE11SendCommandEh
        MOVS     R5,#+0
??Clear_4:
        MOVS     R0,R5
        UXTH     R0,R0            ;; ZeroExt  R0,R0,#+16,#+16
        CMP      R0,#+300
        BGE.N    ??Clear_5
        MOVS     R6,#+0
??Clear_6:
        MOVS     R0,R6
        UXTH     R0,R0            ;; ZeroExt  R0,R0,#+16,#+16
        CMP      R0,#+50
        BGE.N    ??Clear_7
        MOVS     R1,#+255
        MOVS     R0,R4
          CFI FunCall _ZN9EPDDriverIL_Z15spi2TransceiverE3PinI4PortI5GPIOBELh1EES0_IS3_Lh2EES0_IS1_I5GPIOCELh3EES0_IS7_Lh2EEE8SendDataEh
        BL       _ZN9EPDDriverIL_Z15spi2TransceiverE3PinI4PortI5GPIOBELh1EES0_IS3_Lh2EES0_IS1_I5GPIOCELh3EES0_IS7_Lh2EEE8SendDataEh
        ADDS     R6,R6,#+1
        B.N      ??Clear_6
??Clear_7:
        ADDS     R5,R5,#+1
        B.N      ??Clear_4
??Clear_5:
        MOVS     R0,R4
          CFI FunCall _ZN9EPDDriverIL_Z15spi2TransceiverE3PinI4PortI5GPIOBELh1EES0_IS3_Lh2EES0_IS1_I5GPIOCELh3EES0_IS7_Lh2EEE7RefreshEv
        BL       _ZN9EPDDriverIL_Z15spi2TransceiverE3PinI4PortI5GPIOBELh1EES0_IS3_Lh2EES0_IS1_I5GPIOCELh3EES0_IS7_Lh2EEE7RefreshEv
        POP      {R4-R6,PC}       ;; return
          CFI EndBlock cfiBlock292

        SECTION `.text`:CODE:REORDER:NOROOT(1)
        SECTION_GROUP _ZN9EPDDriverIL_Z15spi2TransceiverE3PinI4PortI5GPIOBELh1EES0_IS3_Lh2EES0_IS1_I5GPIOCELh3EES0_IS7_Lh2EEE5ResetEv
          CFI Block cfiBlock293 Using cfiCommon0
          CFI Function _ZN9EPDDriverIL_Z15spi2TransceiverE3PinI4PortI5GPIOBELh1EES0_IS3_Lh2EES0_IS1_I5GPIOCELh3EES0_IS7_Lh2EEE5ResetEv
        THUMB
// __interwork __vfp void EPDDriver<spi2Transceiver, PinCSforEPD, PinDCforEPD, PinRSTforEPD, PinBSYforEPD>::Reset()
_ZN9EPDDriverIL_Z15spi2TransceiverE3PinI4PortI5GPIOBELh1EES0_IS3_Lh2EES0_IS1_I5GPIOCELh3EES0_IS7_Lh2EEE5ResetEv:
        PUSH     {R4,LR}
          CFI R14 Frame(CFA, -4)
          CFI R4 Frame(CFA, -8)
          CFI CFA R13+8
        MOVS     R4,R0
          CFI FunCall _ZN3PinI4PortI5GPIOCELh3EE3SetEv
        BL       _ZN3PinI4PortI5GPIOCELh3EE3SetEv
        MOVS     R0,#+200
        MOVS     R1,#+0
          CFI FunCall _Z8Delay_msy
        BL       _Z8Delay_msy
          CFI FunCall _ZN3PinI4PortI5GPIOCELh3EE5ResetEv
        BL       _ZN3PinI4PortI5GPIOCELh3EE5ResetEv
        MOVS     R0,#+200
        MOVS     R1,#+0
          CFI FunCall _Z8Delay_msy
        BL       _Z8Delay_msy
          CFI FunCall _ZN3PinI4PortI5GPIOCELh3EE3SetEv
        BL       _ZN3PinI4PortI5GPIOCELh3EE3SetEv
        MOVS     R0,#+200
        MOVS     R1,#+0
          CFI FunCall _Z8Delay_msy
        BL       _Z8Delay_msy
        POP      {R4,PC}          ;; return
          CFI EndBlock cfiBlock293

        SECTION `.text`:CODE:REORDER:NOROOT(1)
        SECTION_GROUP _ZN9EPDDriverIL_Z15spi2TransceiverE3PinI4PortI5GPIOBELh1EES0_IS3_Lh2EES0_IS1_I5GPIOCELh3EES0_IS7_Lh2EEE6IsBusyEv
          CFI Block cfiBlock294 Using cfiCommon0
          CFI Function _ZN9EPDDriverIL_Z15spi2TransceiverE3PinI4PortI5GPIOBELh1EES0_IS3_Lh2EES0_IS1_I5GPIOCELh3EES0_IS7_Lh2EEE6IsBusyEv
        THUMB
// __interwork __vfp bool EPDDriver<spi2Transceiver, PinCSforEPD, PinDCforEPD, PinRSTforEPD, PinBSYforEPD>::IsBusy()
_ZN9EPDDriverIL_Z15spi2TransceiverE3PinI4PortI5GPIOBELh1EES0_IS3_Lh2EES0_IS1_I5GPIOCELh3EES0_IS7_Lh2EEE6IsBusyEv:
        PUSH     {R4,LR}
          CFI R14 Frame(CFA, -4)
          CFI R4 Frame(CFA, -8)
          CFI CFA R13+8
        MOVS     R4,R0
          CFI FunCall _ZN3PinI4PortI5GPIOCELh2EE3GetEv
        BL       _ZN3PinI4PortI5GPIOCELh2EE3GetEv
        UXTB     R0,R0            ;; ZeroExt  R0,R0,#+24,#+24
        CMP      R0,#+1
        BNE.N    ??IsBusy_0
        MOVS     R0,#+1
        B.N      ??IsBusy_1
??IsBusy_0:
        MOVS     R0,#+0
??IsBusy_1:
        UXTB     R0,R0            ;; ZeroExt  R0,R0,#+24,#+24
        POP      {R4,PC}          ;; return
          CFI EndBlock cfiBlock294

        SECTION `.text`:CODE:REORDER:NOROOT(1)
        SECTION_GROUP _ZN9EPDDriverIL_Z15spi2TransceiverE3PinI4PortI5GPIOBELh1EES0_IS3_Lh2EES0_IS1_I5GPIOCELh3EES0_IS7_Lh2EEE13WaitUntilBusyEv
          CFI Block cfiBlock295 Using cfiCommon0
          CFI Function _ZN9EPDDriverIL_Z15spi2TransceiverE3PinI4PortI5GPIOBELh1EES0_IS3_Lh2EES0_IS1_I5GPIOCELh3EES0_IS7_Lh2EEE13WaitUntilBusyEv
        THUMB
// __interwork __vfp void EPDDriver<spi2Transceiver, PinCSforEPD, PinDCforEPD, PinRSTforEPD, PinBSYforEPD>::WaitUntilBusy()
_ZN9EPDDriverIL_Z15spi2TransceiverE3PinI4PortI5GPIOBELh1EES0_IS3_Lh2EES0_IS1_I5GPIOCELh3EES0_IS7_Lh2EEE13WaitUntilBusyEv:
        PUSH     {R4,LR}
          CFI R14 Frame(CFA, -4)
          CFI R4 Frame(CFA, -8)
          CFI CFA R13+8
        MOVS     R4,R0
??WaitUntilBusy_0:
        MOVS     R0,R4
          CFI FunCall _ZN9EPDDriverIL_Z15spi2TransceiverE3PinI4PortI5GPIOBELh1EES0_IS3_Lh2EES0_IS1_I5GPIOCELh3EES0_IS7_Lh2EEE6IsBusyEv
        BL       _ZN9EPDDriverIL_Z15spi2TransceiverE3PinI4PortI5GPIOBELh1EES0_IS3_Lh2EES0_IS1_I5GPIOCELh3EES0_IS7_Lh2EEE6IsBusyEv
        CMP      R0,#+0
        BNE.N    ??WaitUntilBusy_1
        MOVS     R0,#+10
        MOVS     R1,#+0
          CFI FunCall _Z8Delay_msy
        BL       _Z8Delay_msy
        B.N      ??WaitUntilBusy_0
??WaitUntilBusy_1:
        POP      {R4,PC}          ;; return
          CFI EndBlock cfiBlock295

        SECTION `.text`:CODE:REORDER:NOROOT(1)
        SECTION_GROUP _ZN5PointC1Ett
          CFI Block cfiBlock296 Using cfiCommon0
          CFI Function _ZN5PointC1Ett
          CFI NoCalls
        THUMB
// __code __interwork __vfp Point::Point(uint16_t, uint16_t)
_ZN5PointC1Ett:
        STRH     R1,[R0, #+0]
        STRH     R2,[R0, #+2]
        BX       LR               ;; return
          CFI EndBlock cfiBlock296

        SECTION `.text`:CODE:REORDER:NOROOT(1)
        SECTION_GROUP _ZN12ScreenDriverILt400ELt300EE10ResetImageEv
          CFI Block cfiBlock297 Using cfiCommon0
          CFI Function _ZN12ScreenDriverILt400ELt300EE10ResetImageEv
        THUMB
// __interwork __vfp void ScreenDriver<(uint16_t)400U, (uint16_t)300U>::ResetImage()
_ZN12ScreenDriverILt400ELt300EE10ResetImageEv:
        PUSH     {R4,LR}
          CFI R14 Frame(CFA, -4)
          CFI R4 Frame(CFA, -8)
          CFI CFA R13+8
        MOVS     R4,R0
        MOVS     R0,R4
        MOVW     R1,#+15000
        LDR      R1,[R4, R1]
        MOVW     R2,#+15000
          CFI FunCall __aeabi_memcpy
        BL       __aeabi_memcpy
        POP      {R4,PC}          ;; return
          CFI EndBlock cfiBlock297

        SECTION `.text`:CODE:REORDER:NOROOT(2)
        SECTION_GROUP _ZN12ScreenDriverILt400ELt300EE8SetPixelE5Point5Color
          CFI Block cfiBlock298 Using cfiCommon0
          CFI Function _ZN12ScreenDriverILt400ELt300EE8SetPixelE5Point5Color
        THUMB
// __interwork __vfp void ScreenDriver<(uint16_t)400U, (uint16_t)300U>::SetPixel(Point, Color)
_ZN12ScreenDriverILt400ELt300EE8SetPixelE5Point5Color:
        PUSH     {R1,R4-R7,LR}
          CFI R14 Frame(CFA, -4)
          CFI R7 Frame(CFA, -8)
          CFI R6 Frame(CFA, -12)
          CFI R5 Frame(CFA, -16)
          CFI R4 Frame(CFA, -20)
          CFI CFA R13+24
        MOVS     R4,R0
        MOVS     R5,R2
        LDRH     R0,[SP, #+0]
        MOVW     R1,#+401
        CMP      R0,R1
        BGE.N    ??SetPixel_1
        LDRH     R0,[SP, #+2]
        MOVW     R1,#+301
        CMP      R0,R1
        BLT.N    ??SetPixel_2
??SetPixel_1:
        MOVS     R2,#+39
        LDR.N    R1,??SetPixel_0
        LDR.N    R0,??SetPixel_0+0x4
          CFI FunCall __aeabi_assert
        BL       __aeabi_assert
          CFI FunCall __iar_EmptyStepPoint
        BL       __iar_EmptyStepPoint
??SetPixel_2:
        LDRH     R0,[SP, #+0]
        MOVS     R1,#+8
        SDIV     R1,R0,R1
        LDRH     R6,[SP, #+2]
        MOVW     R0,#+15008
        LDRH     R0,[R4, R0]
        MLA      R6,R0,R6,R1
        MOVS     R1,R6
        MOVS     R0,R4
          CFI FunCall _ZNSt5arrayIhLj15000EEixEj
        BL       _ZNSt5arrayIhLj15000EEixEj
        LDRB     R7,[R0, #+0]
        MOVS     R0,R5
        UXTB     R0,R0            ;; ZeroExt  R0,R0,#+24,#+24
        CMP      R0,#+0
        BNE.N    ??SetPixel_3
        MOVS     R1,R6
        MOVS     R0,R4
          CFI FunCall _ZNSt5arrayIhLj15000EEixEj
        BL       _ZNSt5arrayIhLj15000EEixEj
        MOVS     R1,#+128
        LDRH     R2,[SP, #+0]
        ANDS     R2,R2,#0x7
        LSRS     R1,R1,R2
        BICS     R1,R7,R1
        STRB     R1,[R0, #+0]
        B.N      ??SetPixel_4
??SetPixel_3:
        MOVS     R1,R6
        MOVS     R0,R4
          CFI FunCall _ZNSt5arrayIhLj15000EEixEj
        BL       _ZNSt5arrayIhLj15000EEixEj
        MOVS     R1,#+128
        LDRH     R2,[SP, #+0]
        ANDS     R2,R2,#0x7
        LSRS     R1,R1,R2
        ORRS     R1,R1,R7
        STRB     R1,[R0, #+0]
??SetPixel_4:
        POP      {R0,R4-R7,PC}    ;; return
        DATA
??SetPixel_0:
        DATA32
        DC32     _ZZN12ScreenDriverILt400ELt300EE8SetPixelE5Point5ColorEs_0
        DC32     _ZZN12ScreenDriverILt400ELt300EE8SetPixelE5Point5ColorEs
          CFI EndBlock cfiBlock298

        SECTION `.text`:CODE:REORDER:NOROOT(2)
        SECTION_GROUP _ZN12ScreenDriverILt400ELt300EE12ClearWindowsE5PointS1_5Color
          CFI Block cfiBlock299 Using cfiCommon0
          CFI Function _ZN12ScreenDriverILt400ELt300EE12ClearWindowsE5PointS1_5Color
        THUMB
// __interwork __vfp void ScreenDriver<(uint16_t)400U, (uint16_t)300U>::ClearWindows(Point, Point, Color)
_ZN12ScreenDriverILt400ELt300EE12ClearWindowsE5PointS1_5Color:
        PUSH     {R0-R2,R4-R7,LR}
          CFI R14 Frame(CFA, -4)
          CFI R7 Frame(CFA, -8)
          CFI R6 Frame(CFA, -12)
          CFI R5 Frame(CFA, -16)
          CFI R4 Frame(CFA, -20)
          CFI CFA R13+32
        MOVS     R4,R0
        MOVS     R5,R3
        LDRH     R0,[SP, #+8]
        MOVW     R1,#+401
        CMP      R0,R1
        BGE.N    ??ClearWindows_1
        LDRH     R0,[SP, #+10]
        MOVW     R1,#+301
        CMP      R0,R1
        BLT.N    ??ClearWindows_2
??ClearWindows_1:
        MOVS     R2,#+65
        LDR.N    R1,??ClearWindows_0
        LDR.N    R0,??ClearWindows_0+0x4
          CFI FunCall __aeabi_assert
        BL       __aeabi_assert
          CFI FunCall __iar_EmptyStepPoint
        BL       __iar_EmptyStepPoint
??ClearWindows_2:
        LDRH     R6,[SP, #+6]
??ClearWindows_3:
        MOVS     R0,R6
        LDRH     R1,[SP, #+10]
        UXTH     R0,R0            ;; ZeroExt  R0,R0,#+16,#+16
        CMP      R0,R1
        BCS.N    ??ClearWindows_4
        LDRH     R7,[SP, #+4]
??ClearWindows_5:
        MOVS     R0,R7
        LDRH     R1,[SP, #+8]
        UXTH     R0,R0            ;; ZeroExt  R0,R0,#+16,#+16
        CMP      R0,R1
        BCS.N    ??ClearWindows_6
        MOVS     R2,R6
        UXTH     R2,R2            ;; ZeroExt  R2,R2,#+16,#+16
        MOVS     R1,R7
        UXTH     R1,R1            ;; ZeroExt  R1,R1,#+16,#+16
        MOV      R0,SP
          CFI FunCall _ZN5PointC1Ett
        BL       _ZN5PointC1Ett
        MOVS     R2,R5
        UXTB     R2,R2            ;; ZeroExt  R2,R2,#+24,#+24
        LDR      R1,[SP, #+0]
        MOVS     R0,R4
          CFI FunCall _ZN12ScreenDriverILt400ELt300EE8SetPixelE5Point5Color
        BL       _ZN12ScreenDriverILt400ELt300EE8SetPixelE5Point5Color
        ADDS     R7,R7,#+1
        B.N      ??ClearWindows_5
??ClearWindows_6:
        ADDS     R6,R6,#+1
        B.N      ??ClearWindows_3
??ClearWindows_4:
        POP      {R0-R2,R4-R7,PC}  ;; return
        DATA
??ClearWindows_0:
        DATA32
        DC32     _ZZN12ScreenDriverILt400ELt300EE12ClearWindowsE5PointS1_5ColorEs_0
        DC32     _ZZN12ScreenDriverILt400ELt300EE12ClearWindowsE5PointS1_5ColorEs
          CFI EndBlock cfiBlock299

        SECTION `.text`:CODE:REORDER:NOROOT(2)
        SECTION_GROUP _ZN12ScreenDriverILt400ELt300EE8DrawCharE5Pointc
          CFI Block cfiBlock300 Using cfiCommon0
          CFI Function _ZN12ScreenDriverILt400ELt300EE8DrawCharE5Pointc
        THUMB
// __interwork __vfp uint32_t ScreenDriver<(uint16_t)400U, (uint16_t)300U>::DrawChar(Point, char)
_ZN12ScreenDriverILt400ELt300EE8DrawCharE5Pointc:
        PUSH     {R0-R2,R4-R11,LR}
          CFI R14 Frame(CFA, -4)
          CFI R11 Frame(CFA, -8)
          CFI R10 Frame(CFA, -12)
          CFI R9 Frame(CFA, -16)
          CFI R8 Frame(CFA, -20)
          CFI R7 Frame(CFA, -24)
          CFI R6 Frame(CFA, -28)
          CFI R5 Frame(CFA, -32)
          CFI R4 Frame(CFA, -36)
          CFI CFA R13+48
        SUB      SP,SP,#+16
          CFI CFA R13+64
        MOVS     R4,R0
        MOVW     R6,#+401
        LDRH     R0,[SP, #+20]
        CMP      R0,R6
        BGE.N    ??DrawChar_1
        LDRH     R0,[SP, #+22]
        MOVW     R1,#+301
        CMP      R0,R1
        BLT.N    ??DrawChar_2
??DrawChar_1:
        MOVS     R2,#+78
        LDR.N    R1,??DrawChar_0
        LDR.N    R0,??DrawChar_0+0x4
          CFI FunCall __aeabi_assert
        BL       __aeabi_assert
          CFI FunCall __iar_EmptyStepPoint
        BL       __iar_EmptyStepPoint
??DrawChar_2:
        LDRB     R1,[SP, #+24]
        MOVW     R0,#+15004
        LDR      R0,[R4, R0]
        LDRB     R0,[R0, #+1]
        SUBS     R1,R1,R0
        STR      R1,[SP, #+0]
        MOVS     R0,#+0
        STR      R0,[SP, #+4]
        LDRH     R5,[SP, #+20]
        MOVW     R0,#+15004
        LDR      R0,[R4, R0]
        LDR      R0,[R0, #+12]
        LDR      R1,[SP, #+0]
        LDRH     R0,[R0, R1, LSL #+2]
        ADDS     R5,R0,R5
        LDRH     R0,[SP, #+20]
        CMP      R0,#+400
        BGE.N    ??DrawChar_3
        MOVS     R0,R5
        UXTH     R0,R0            ;; ZeroExt  R0,R0,#+16,#+16
        CMP      R0,R6
        BLT.N    ??DrawChar_4
        LDRH     R0,[SP, #+20]
        RSBS     R0,R0,#+400
        MOVS     R5,R0
        MOVW     R0,#+15004
        LDR      R0,[R4, R0]
        LDR      R0,[R0, #+12]
        LDR      R1,[SP, #+0]
        LDRH     R0,[R0, R1, LSL #+2]
        SUBS     R0,R0,#+1
        MOVS     R1,R5
        UXTH     R1,R1            ;; ZeroExt  R1,R1,#+16,#+16
        LSRS     R1,R1,#+3
        UXTH     R1,R1            ;; ZeroExt  R1,R1,#+16,#+16
        RSBS     R1,R1,R0, ASR #+3
        STR      R1,[SP, #+4]
        B.N      ??DrawChar_5
??DrawChar_4:
        MOVW     R0,#+15004
        LDR      R0,[R4, R0]
        LDR      R0,[R0, #+12]
        LDR      R1,[SP, #+0]
        LDRH     R0,[R0, R1, LSL #+2]
        MOVS     R5,R0
        MOVS     R0,#+0
        STR      R0,[SP, #+4]
??DrawChar_5:
        MOVW     R0,#+15004
        LDR      R0,[R4, R0]
        LDR      R0,[R0, #+12]
        LDR      R1,[SP, #+0]
        ADD      R0,R0,R1, LSL #+2
        LDRH     R0,[R0, #+2]
        STR      R0,[SP, #+8]
        MOVW     R0,#+15004
        LDR      R0,[R4, R0]
        LDR      R0,[R0, #+16]
        LDR      R1,[SP, #+8]
        ADD      R10,R0,R1
        MOVS     R6,#+0
        LDRB     R7,[R10, #+0]
        MOVS     R8,#+0
??DrawChar_6:
        MOV      R0,R8
        MOVW     R1,#+15004
        LDR      R1,[R4, R1]
        LDRB     R1,[R1, #+0]
        UXTH     R0,R0            ;; ZeroExt  R0,R0,#+16,#+16
        UXTH     R1,R1            ;; ZeroExt  R1,R1,#+16,#+16
        CMP      R0,R1
        BCS.N    ??DrawChar_3
        MOVS     R9,#+0
??DrawChar_7:
        MOV      R0,R9
        MOVS     R1,R5
        UXTH     R0,R0            ;; ZeroExt  R0,R0,#+16,#+16
        UXTH     R1,R1            ;; ZeroExt  R1,R1,#+16,#+16
        CMP      R0,R1
        BCS.N    ??DrawChar_8
        TST      R6,#0x7
        BNE.N    ??DrawChar_9
        LDRB     R0,[R10, #+0]
        MOVS     R7,R0
        ADDS     R10,R10,#+1
??DrawChar_9:
        LSLS     R0,R7,#+24
        BPL.N    ??DrawChar_10
        MOVW     R0,#+15012
        LDRB     R11,[R4, R0]
        B.N      ??DrawChar_11
??DrawChar_10:
        MOVW     R0,#+15013
        LDRB     R11,[R4, R0]
??DrawChar_11:
        LDRH     R2,[SP, #+22]
        ADDS     R2,R8,R2
        UXTH     R2,R2            ;; ZeroExt  R2,R2,#+16,#+16
        LDRH     R1,[SP, #+20]
        ADDS     R1,R9,R1
        UXTH     R1,R1            ;; ZeroExt  R1,R1,#+16,#+16
        ADD      R0,SP,#+12
          CFI FunCall _ZN5PointC1Ett
        BL       _ZN5PointC1Ett
        MOV      R2,R11
        UXTB     R2,R2            ;; ZeroExt  R2,R2,#+24,#+24
        LDR      R1,[R0, #+0]
        MOVS     R0,R4
          CFI FunCall _ZN12ScreenDriverILt400ELt300EE8SetPixelE5Point5Color
        BL       _ZN12ScreenDriverILt400ELt300EE8SetPixelE5Point5Color
        LSLS     R7,R7,#+1
        ADDS     R6,R6,#+1
        ADDS     R9,R9,#+1
        B.N      ??DrawChar_7
??DrawChar_8:
        MOVS     R0,#+0
        MOVS     R6,R0
        LDR      R0,[SP, #+4]
        ADD      R10,R10,R0
        ADDS     R8,R8,#+1
        B.N      ??DrawChar_6
??DrawChar_3:
        UXTH     R5,R5            ;; ZeroExt  R5,R5,#+16,#+16
        MOVS     R0,R5
        ADD      SP,SP,#+28
          CFI CFA R13+36
        POP      {R4-R11,PC}      ;; return
        DATA
??DrawChar_0:
        DATA32
        DC32     _ZZN12ScreenDriverILt400ELt300EE8DrawCharE5PointcEs_0
        DC32     _ZZN12ScreenDriverILt400ELt300EE8DrawCharE5PointcEs
          CFI EndBlock cfiBlock300

        SECTION `.text`:CODE:REORDER:NOROOT(1)
        SECTION_GROUP _ZN12ScreenDriverILt400ELt300EE10DrawStringE5PointPKc
          CFI Block cfiBlock301 Using cfiCommon0
          CFI Function _ZN12ScreenDriverILt400ELt300EE10DrawStringE5PointPKc
        THUMB
// __interwork __vfp void ScreenDriver<(uint16_t)400U, (uint16_t)300U>::DrawString(Point, char const *)
_ZN12ScreenDriverILt400ELt300EE10DrawStringE5PointPKc:
        PUSH     {R0,R1,R4-R9,LR}
          CFI R14 Frame(CFA, -4)
          CFI R9 Frame(CFA, -8)
          CFI R8 Frame(CFA, -12)
          CFI R7 Frame(CFA, -16)
          CFI R6 Frame(CFA, -20)
          CFI R5 Frame(CFA, -24)
          CFI R4 Frame(CFA, -28)
          CFI CFA R13+36
        SUB      SP,SP,#+12
          CFI CFA R13+48
        MOVS     R4,R0
        MOVS     R5,R2
        LDRH     R6,[SP, #+16]
        MOVS     R7,#+0
??DrawString_1:
        LDRB     R0,[R5, #+0]
        CMP      R0,#+0
        BEQ.N    ??DrawString_2
        MOVS     R0,R7
        UXTH     R0,R0            ;; ZeroExt  R0,R0,#+16,#+16
        CMP      R0,#+0
        BEQ.N    ??DrawString_3
        MOVW     R8,#+15004
        LDRH     R0,[SP, #+18]
        LDR      R1,[R4, R8]
        LDRB     R1,[R1, #+0]
        UXTAB    R2,R0,R1
        UXTH     R2,R2            ;; ZeroExt  R2,R2,#+16,#+16
        LDR      R0,[R4, R8]
        LDRB     R0,[R0, #+8]
        ADDS     R1,R6,R0
        UXTH     R1,R1            ;; ZeroExt  R1,R1,#+16,#+16
        ADD      R0,SP,#+8
          CFI FunCall _ZN5PointC1Ett
        BL       _ZN5PointC1Ett
        MOV      R9,R0
        LDRH     R2,[SP, #+18]
        MOVS     R1,R6
        UXTH     R1,R1            ;; ZeroExt  R1,R1,#+16,#+16
        ADD      R0,SP,#+4
          CFI FunCall _ZN5PointC1Ett
        BL       _ZN5PointC1Ett
        MOVW     R1,#+15013
        LDRB     R3,[R4, R1]
        LDR      R2,[R9, #+0]
        LDR      R1,[R0, #+0]
        MOVS     R0,R4
          CFI FunCall _ZN12ScreenDriverILt400ELt300EE12ClearWindowsE5PointS1_5Color
        BL       _ZN12ScreenDriverILt400ELt300EE12ClearWindowsE5PointS1_5Color
        LDR      R0,[R4, R8]
        LDRB     R0,[R0, #+8]
        ADDS     R6,R6,R0
??DrawString_3:
        MOVW     R0,#+15004
        LDR      R1,[R4, R0]
        LDRB     R1,[R1, #+8]
        RSBS     R1,R1,#+400
        MOVS     R2,R6
        UXTH     R2,R2            ;; ZeroExt  R2,R2,#+16,#+16
        CMP      R1,R2
        BLT.N    ??DrawString_2
??DrawString_4:
        LDRB     R1,[R5, #+0]
        CMP      R1,#+32
        BEQ.N    ??DrawString_5
        LDRH     R2,[SP, #+18]
        MOVS     R1,R6
        UXTH     R1,R1            ;; ZeroExt  R1,R1,#+16,#+16
        MOV      R0,SP
          CFI FunCall _ZN5PointC1Ett
        BL       _ZN5PointC1Ett
        LDRB     R2,[R5, #+0]
        LDR      R1,[SP, #+0]
        MOVS     R0,R4
          CFI FunCall _ZN12ScreenDriverILt400ELt300EE8DrawCharE5Pointc
        BL       _ZN12ScreenDriverILt400ELt300EE8DrawCharE5Pointc
        MOVS     R7,R0
        ADDS     R6,R7,R6
        B.N      ??DrawString_6
??DrawString_5:
        LDR      R0,[R4, R0]
        LDRB     R0,[R0, #+0]
        MOVS     R1,#+3
        SDIV     R0,R0,R1
        ADDS     R6,R0,R6
??DrawString_6:
        ADDS     R5,R5,#+1
        B.N      ??DrawString_1
??DrawString_2:
        ADD      SP,SP,#+20
          CFI CFA R13+28
        POP      {R4-R9,PC}       ;; return
          CFI EndBlock cfiBlock301

        SECTION `.text`:CODE:REORDER:NOROOT(1)
        SECTION_GROUP _ZN12ScreenDriverILt400ELt300EEC1ERKSt5arrayIhLj15000EEP5tFont
          CFI Block cfiBlock302 Using cfiCommon0
          CFI Function _ZN12ScreenDriverILt400ELt300EEC1ERKSt5arrayIhLj15000EEP5tFont
        THUMB
// __code __interwork __vfp ScreenDriver<(uint16_t)400U, (uint16_t)300U>::ScreenDriver(std::array<uint8_t, 15000U> const &, tFont *)
_ZN12ScreenDriverILt400ELt300EEC1ERKSt5arrayIhLj15000EEP5tFont:
        PUSH     {R4-R6,LR}
          CFI R14 Frame(CFA, -4)
          CFI R6 Frame(CFA, -8)
          CFI R5 Frame(CFA, -12)
          CFI R4 Frame(CFA, -16)
          CFI CFA R13+16
        MOVS     R4,R0
        MOVS     R5,R1
        MOVS     R6,R2
        MOVS     R0,R4
        MOVS     R1,R5
        MOVW     R2,#+15000
          CFI FunCall __aeabi_memcpy
        BL       __aeabi_memcpy
        MOVW     R0,#+15000
        STR      R5,[R4, R0]
        MOVW     R0,#+15004
        STR      R6,[R4, R0]
        MOVS     R0,#+50
        MOVW     R1,#+15008
        STRH     R0,[R4, R1]
        MOV      R0,#+300
        MOVW     R1,#+15010
        STRH     R0,[R4, R1]
        MOVS     R0,#+255
        MOVW     R1,#+15012
        STRB     R0,[R4, R1]
        MOVS     R0,#+0
        MOVW     R1,#+15013
        STRB     R0,[R4, R1]
        MOVS     R0,R4
        POP      {R4-R6,PC}       ;; return
          CFI EndBlock cfiBlock302

        SECTION `.text`:CODE:REORDER:NOROOT(2)
        SECTION_GROUP _ZN7DisplayIL_Z11eInkDisplayEL_Z6screenEE10DrawStringE5PointPKc
          CFI Block cfiBlock303 Using cfiCommon0
          CFI Function _ZN7DisplayIL_Z11eInkDisplayEL_Z6screenEE10DrawStringE5PointPKc
        THUMB
// __interwork __vfp void Display<eInkDisplay, screen>::DrawString(Point, char const *)
_ZN7DisplayIL_Z11eInkDisplayEL_Z6screenEE10DrawStringE5PointPKc:
        PUSH     {R4-R6,LR}
          CFI R14 Frame(CFA, -4)
          CFI R6 Frame(CFA, -8)
          CFI R5 Frame(CFA, -12)
          CFI R4 Frame(CFA, -16)
          CFI CFA R13+16
        MOVS     R4,R0
        MOVS     R5,R1
        MOVS     R6,R2
        MOVS     R2,R6
        MOVS     R1,R5
        LDR.N    R0,??DrawString_0
          CFI FunCall _ZN12ScreenDriverILt400ELt300EE10DrawStringE5PointPKc
        BL       _ZN12ScreenDriverILt400ELt300EE10DrawStringE5PointPKc
        POP      {R4-R6,PC}       ;; return
        DATA
??DrawString_0:
        DATA32
        DC32     screen
          CFI EndBlock cfiBlock303

        SECTION `.text`:CODE:REORDER:NOROOT(2)
        SECTION_GROUP _ZN7DisplayIL_Z11eInkDisplayEL_Z6screenEE10ResetImageEv
          CFI Block cfiBlock304 Using cfiCommon0
          CFI Function _ZN7DisplayIL_Z11eInkDisplayEL_Z6screenEE10ResetImageEv
        THUMB
// __interwork __vfp void Display<eInkDisplay, screen>::ResetImage()
_ZN7DisplayIL_Z11eInkDisplayEL_Z6screenEE10ResetImageEv:
        PUSH     {R4,LR}
          CFI R14 Frame(CFA, -4)
          CFI R4 Frame(CFA, -8)
          CFI CFA R13+8
        MOVS     R4,R0
        LDR.N    R0,??ResetImage_0
          CFI FunCall _ZN12ScreenDriverILt400ELt300EE10ResetImageEv
        BL       _ZN12ScreenDriverILt400ELt300EE10ResetImageEv
        POP      {R4,PC}          ;; return
        DATA
??ResetImage_0:
        DATA32
        DC32     screen
          CFI EndBlock cfiBlock304

        SECTION `.text`:CODE:REORDER:NOROOT(2)
        SECTION_GROUP _ZN7DisplayIL_Z11eInkDisplayEL_Z6screenEE12UpdateWindowE5PointS1_
          CFI Block cfiBlock305 Using cfiCommon0
          CFI Function _ZN7DisplayIL_Z11eInkDisplayEL_Z6screenEE12UpdateWindowE5PointS1_
        THUMB
// __interwork __vfp void Display<eInkDisplay, screen>::UpdateWindow(Point, Point)
_ZN7DisplayIL_Z11eInkDisplayEL_Z6screenEE12UpdateWindowE5PointS1_:
        PUSH     {R1,R2,R4,LR}
          CFI R14 Frame(CFA, -4)
          CFI R4 Frame(CFA, -8)
          CFI CFA R13+16
        SUB      SP,SP,#+8
          CFI CFA R13+24
        MOVS     R4,R0
        LDR.N    R0,??UpdateWindow_0
          CFI FunCall _ZNSt5arrayIhLj15000EE4dataEv
        BL       _ZNSt5arrayIhLj15000EE4dataEv
        LDRH     R1,[SP, #+14]
        STR      R1,[SP, #+4]
        LDRH     R1,[SP, #+12]
        STR      R1,[SP, #+0]
        LDRH     R3,[SP, #+10]
        LDRH     R2,[SP, #+8]
        MOVS     R1,R0
        LDR.N    R0,??UpdateWindow_0+0x4
          CFI FunCall _ZN9EPDDriverIL_Z15spi2TransceiverE3PinI4PortI5GPIOBELh1EES0_IS3_Lh2EES0_IS1_I5GPIOCELh3EES0_IS7_Lh2EEE19UpdatePartialWindowEPKhtttt
        BL       _ZN9EPDDriverIL_Z15spi2TransceiverE3PinI4PortI5GPIOBELh1EES0_IS3_Lh2EES0_IS1_I5GPIOCELh3EES0_IS7_Lh2EEE19UpdatePartialWindowEPKhtttt
        POP      {R0-R4,PC}       ;; return
        Nop      
        DATA
??UpdateWindow_0:
        DATA32
        DC32     screen
        DC32     eInkDisplay
          CFI EndBlock cfiBlock305

        SECTION `.text`:CODE:REORDER:NOROOT(2)
        SECTION_GROUP _ZN17DisplayUpdateTaskC1Ev
          CFI Block cfiBlock306 Using cfiCommon0
          CFI Function _ZN17DisplayUpdateTaskC1Ev
        THUMB
// __code __interwork __vfp DisplayUpdateTask::DisplayUpdateTask()
_ZN17DisplayUpdateTaskC1Ev:
        PUSH     {R4,LR}
          CFI R14 Frame(CFA, -4)
          CFI R4 Frame(CFA, -8)
          CFI CFA R13+8
        MOVS     R4,R0
        MOVS     R0,R4
          CFI FunCall _ZN9OsWrapper6ThreadILj400EEC2Ev
        BL       _ZN9OsWrapper6ThreadILj400EEC2Ev
        LDR.N    R0,??DisplayUpdateTask_0
        STR      R0,[R4, #+0]
        LDR.N    R0,??DisplayUpdateTask_0+0x4
        LDRD     R2,R3,[R0, #+0]
        ADDS     R0,R4,#+1696
        STRD     R2,R3,[R0, #+0]
        MOVS     R0,R4
        POP      {R4,PC}          ;; return
        DATA
??DisplayUpdateTask_0:
        DATA32
        DC32     _ZTV17DisplayUpdateTask+0x8
        DC32     ?_17
          CFI EndBlock cfiBlock306

        SECTION `.text`:CODE:REORDER:NOROOT(2)
        SECTION_GROUP _ZN17DisplayUpdateTask7ExecuteEv
          CFI Block cfiBlock307 Using cfiCommon0
          CFI Function _ZN17DisplayUpdateTask7ExecuteEv
        THUMB
// __interwork __vfp void DisplayUpdateTask::Execute()
_ZN17DisplayUpdateTask7ExecuteEv:
        PUSH     {R4-R8,LR}
          CFI R14 Frame(CFA, -4)
          CFI R8 Frame(CFA, -8)
          CFI R7 Frame(CFA, -12)
          CFI R6 Frame(CFA, -16)
          CFI R5 Frame(CFA, -20)
          CFI R4 Frame(CFA, -24)
          CFI CFA R13+24
        VPUSH    {D8}
          CFI D8 Frame(CFA, -32)
          CFI CFA R13+32
        SUB      SP,SP,#+160
          CFI CFA R13+192
        MOVS     R4,R0
??Execute_10:
        LDR.N    R0,??Execute_3
        LDR      R0,[R0, #+0]
        STR      R0,[SP, #+8]
        MOVS     R6,#+0
??Execute_11:
        CMP      R6,#+4
        BGE.N    ??Execute_12
        MOVS     R1,#+100
        MOVS     R2,#+0
        ADD      R7,SP,#+60
        MOVS     R0,R7
          CFI FunCall __aeabi_memset
        BL       __aeabi_memset
        LDR.W    R8,??Execute_3+0x4
        LDR.N    R7,??Execute_3+0x8
        LDR      R1,[R7, R6, LSL #+2]
        LDR      R0,[R8, R6, LSL #+2]
        LDR      R2,[R8, R6, LSL #+2]
        LDR      R2,[R2, #+0]
        LDR      R2,[R2, #+4]
          CFI FunCall
        BLX      R2
        VMOV.F32 S16,S0
        VMOV.F32 S17,S1
        LDR      R0,[R8, R6, LSL #+2]
        ADDS     R0,R0,#+20
          CFI FunCall _ZNKSs5c_strEv
        BL       _ZNKSs5c_strEv
        VSTR     D8,[SP, #+0]
        MOVS     R2,R0
        LDR.N    R1,??Execute_3+0xC
        ADD      R0,SP,#+60
          CFI FunCall sprintf
        BL       sprintf
        LDR.W    R8,??Execute_3+0x10
        ADD      R2,SP,#+60
        LDR      R1,[SP, #+8]
        MOV      R0,R8
          CFI FunCall _ZN7DisplayIL_Z11eInkDisplayEL_Z6screenEE10DrawStringE5PointPKc
        BL       _ZN7DisplayIL_Z11eInkDisplayEL_Z6screenEE10DrawStringE5PointPKc
        LDR      R1,[R7, R6, LSL #+2]
        ADD      R0,SP,#+36
          CFI FunCall _ZN11Measurement12ShowUnitNameE4Unit
        BL       _ZN11Measurement12ShowUnitNameE4Unit
        ADD      R0,SP,#+36
          CFI FunCall _ZNKSs6lengthEv
        BL       _ZNKSs6lengthEv
        RSBS     R0,R0,#+3
        LSLS     R0,R0,#+3
        MOVS     R5,R0
        ADD      R0,SP,#+36
          CFI FunCall _ZNSsD1Ev
        BL       _ZNSsD1Ev
        LDRH     R1,[SP, #+8]
        ADDS     R0,R5,#+330
        ADDS     R1,R0,R1
        STRH     R1,[SP, #+8]
        LDR      R1,[R7, R6, LSL #+2]
        ADD      R0,SP,#+12
          CFI FunCall _ZN11Measurement12ShowUnitNameE4Unit
        BL       _ZN11Measurement12ShowUnitNameE4Unit
        ADD      R0,SP,#+12
          CFI FunCall _ZNKSs5c_strEv
        BL       _ZNKSs5c_strEv
        MOVS     R2,R0
        LDR      R1,[SP, #+8]
        MOV      R0,R8
          CFI FunCall _ZN7DisplayIL_Z11eInkDisplayEL_Z6screenEE10DrawStringE5PointPKc
        BL       _ZN7DisplayIL_Z11eInkDisplayEL_Z6screenEE10DrawStringE5PointPKc
        ADD      R0,SP,#+12
          CFI FunCall _ZNSsD1Ev
        BL       _ZNSsD1Ev
        LDRH     R0,[SP, #+8]
        SUBS     R0,R0,R5
        SUBS     R0,R0,#+330
        STRH     R0,[SP, #+8]
        LDRH     R0,[SP, #+10]
        ADDS     R0,R0,#+30
        STRH     R0,[SP, #+10]
        ADDS     R6,R6,#+1
        B.N      ??Execute_11
??Execute_12:
        LDR.N    R0,??Execute_3+0x14
        LDR      R1,[R0, #+0]
        LDR.N    R0,??Execute_3+0x18
        LDR      R2,[R0, #+0]
        LDR.N    R6,??Execute_3+0x10
        MOVS     R0,R6
          CFI FunCall _ZN7DisplayIL_Z11eInkDisplayEL_Z6screenEE12UpdateWindowE5PointS1_
        BL       _ZN7DisplayIL_Z11eInkDisplayEL_Z6screenEE12UpdateWindowE5PointS1_
        LDR.N    R0,??Execute_3+0x1C
        LDR      R1,[R0, #+0]
        LDR.N    R0,??Execute_3+0x20
        LDR      R2,[R0, #+0]
        MOVS     R0,R6
          CFI FunCall _ZN7DisplayIL_Z11eInkDisplayEL_Z6screenEE12UpdateWindowE5PointS1_
        BL       _ZN7DisplayIL_Z11eInkDisplayEL_Z6screenEE12UpdateWindowE5PointS1_
        MOVS     R0,R6
          CFI FunCall _ZN7DisplayIL_Z11eInkDisplayEL_Z6screenEE10ResetImageEv
        BL       _ZN7DisplayIL_Z11eInkDisplayEL_Z6screenEE10ResetImageEv
          CFI FunCall _ZN3LedI3PinI4PortI5GPIOCELh8EEE6ToggleEv
        BL       _ZN3LedI3PinI4PortI5GPIOCELh8EEE6ToggleEv
        ADDS     R2,R4,#+1696
        LDRD     R0,R1,[R2, #+0]
          CFI FunCall _ZN9OsWrapper7IThread5SleepENSt6chrono8durationIxSt5ratioILx1ELx1000EEEE
        BL       _ZN9OsWrapper7IThread5SleepENSt6chrono8durationIxSt5ratioILx1ELx1000EEEE
        B.N      ??Execute_10
        DATA
??Execute_3:
        DATA32
        DC32     ?_4
        DC32     measurements
        DC32     userUnits
        DC32     _ZZN17DisplayUpdateTask7ExecuteEvEs
        DC32     display
        DC32     ?_5
        DC32     ?_6
        DC32     ?_7
        DC32     ?_8
          CFI EndBlock cfiBlock307

        SECTION `.iar_vfe_vtableinfo_ZTV11Measurement`:DATA:NOALLOC:NOROOT(2)
        SECTION_TYPE SHT_PROGBITS, 0
        SECTION_GROUP _ZTV11Measurement
        DATA
        DC32    _ZTV11Measurement
        DC32    4
        DC32    1
        DC32    _ZTI11Measurement
        DC32    1
        DC32    2
        DC32    0

        SECTION `.iar_vfe_vtableinfo_ZTV11Temperature`:DATA:NOALLOC:NOROOT(2)
        SECTION_TYPE SHT_PROGBITS, 0
        SECTION_GROUP _ZTV11Temperature
        DATA
        DC32    _ZTV11Temperature
        DC32    4
        DC32    2
        DC32    _ZTI11Measurement
        DC32    0
        DC32    1
        DC32    _ZTI11Temperature
        DC32    1
        DC32    2
        DC32    0
        DC32    _ZTI11Temperature
        DC32    1
        DC32    2
        DC32    0

        SECTION `.iar_vfe_vtableinfo_ZTV13BluetoothTask`:DATA:NOALLOC:NOROOT(2)
        SECTION_TYPE SHT_PROGBITS, 0
        SECTION_GROUP _ZTV13BluetoothTask
        DATA
        DC32    _ZTV13BluetoothTask
        DC32    3
        DC32    3
        DC32    _ZTI13BluetoothTask
        DC32    1
        DC32    2
        DC32    0
        DC32    _ZTIN9OsWrapper6ThreadILj400EEE
        DC32    0
        DC32    1
        DC32    _ZTI13BluetoothTask
        DC32    1
        DC32    2
        DC32    0
        DC32    _ZTIN9OsWrapper7IThreadE
        DC32    0
        DC32    1
        DC32    _ZTIN9OsWrapper6ThreadILj400EEE
        DC32    0
        DC32    1
        DC32    _ZTI13BluetoothTask
        DC32    1
        DC32    2
        DC32    0

        SECTION `.iar_vfe_vtableinfo_ZTV17DisplayUpdateTask`:DATA:NOALLOC:NOROOT(2)
        SECTION_TYPE SHT_PROGBITS, 0
        SECTION_GROUP _ZTV17DisplayUpdateTask
        DATA
        DC32    _ZTV17DisplayUpdateTask
        DC32    3
        DC32    3
        DC32    _ZTI17DisplayUpdateTask
        DC32    1
        DC32    2
        DC32    0
        DC32    _ZTIN9OsWrapper6ThreadILj400EEE
        DC32    0
        DC32    1
        DC32    _ZTI17DisplayUpdateTask
        DC32    1
        DC32    2
        DC32    0
        DC32    _ZTIN9OsWrapper7IThreadE
        DC32    0
        DC32    1
        DC32    _ZTIN9OsWrapper6ThreadILj400EEE
        DC32    0
        DC32    1
        DC32    _ZTI17DisplayUpdateTask
        DC32    1
        DC32    2
        DC32    0

        SECTION `.iar_vfe_vtableinfo_ZTV15ButtonEventTaskI6ButtonI3PinI4PortI5GPIOCELh13EEEL_Z5eventEE`:DATA:NOALLOC:NOROOT(2)
        SECTION_TYPE SHT_PROGBITS, 0
        SECTION_GROUP _ZTV15ButtonEventTaskI6ButtonI3PinI4PortI5GPIOCELh13EEEL_Z5eventEE
        DATA
        DC32    _ZTV15ButtonEventTaskI6ButtonI3PinI4PortI5GPIOCELh13EEEL_Z5eventEE
        DC32    3
        DC32    3
        DC32    _ZTI15ButtonEventTaskI6ButtonI3PinI4PortI5GPIOCELh13EEEL_Z5eventEE
        DC32    1
        DC32    2
        DC32    0
        DC32    _ZTIN9OsWrapper6ThreadILj128EEE
        DC32    0
        DC32    1
        DC32    _ZTI15ButtonEventTaskI6ButtonI3PinI4PortI5GPIOCELh13EEEL_Z5eventEE
        DC32    1
        DC32    2
        DC32    0
        DC32    _ZTIN9OsWrapper7IThreadE
        DC32    0
        DC32    1
        DC32    _ZTIN9OsWrapper6ThreadILj128EEE
        DC32    0
        DC32    1
        DC32    _ZTI15ButtonEventTaskI6ButtonI3PinI4PortI5GPIOCELh13EEEL_Z5eventEE
        DC32    1
        DC32    2
        DC32    0

        SECTION `.iar_vfe_vtableinfo_ZTV15MeasurementTaskIL_Z5eventEE`:DATA:NOALLOC:NOROOT(2)
        SECTION_TYPE SHT_PROGBITS, 0
        SECTION_GROUP _ZTV15MeasurementTaskIL_Z5eventEE
        DATA
        DC32    _ZTV15MeasurementTaskIL_Z5eventEE
        DC32    3
        DC32    3
        DC32    _ZTI15MeasurementTaskIL_Z5eventEE
        DC32    1
        DC32    2
        DC32    0
        DC32    _ZTIN9OsWrapper6ThreadILj128EEE
        DC32    0
        DC32    1
        DC32    _ZTI15MeasurementTaskIL_Z5eventEE
        DC32    1
        DC32    2
        DC32    0
        DC32    _ZTIN9OsWrapper7IThreadE
        DC32    0
        DC32    1
        DC32    _ZTIN9OsWrapper6ThreadILj128EEE
        DC32    0
        DC32    1
        DC32    _ZTI15MeasurementTaskIL_Z5eventEE
        DC32    1
        DC32    2
        DC32    0

        SECTION `.init_array`:CODE:ROOT(2)
        SECTION_TYPE SHT_INIT_ARRAY, 0
        DATA
        DC32    RELOC_ARM_TARGET1 __sti__routine

        SECTION `.iar_vfe_vcallinfo_ZN9OsWrapper7IThread3RunEv`:DATA:NOALLOC:NOROOT(2)
        SECTION_TYPE SHT_PROGBITS, 0
        SECTION_GROUP _ZN9OsWrapper7IThread3RunEv
        DATA
        DC32    _ZN9OsWrapper7IThread3RunEv
        DC32    0
        DC32    0
        DC32    1
        DC32    _ZTIN9OsWrapper7IThreadE
        DC32    1
        DC32    1
        DC32    0
        DC32    0

        SECTION `.iar_vfe_vcallinfo_ZN11Temperature8GetValueE4Unit`:DATA:NOALLOC:NOROOT(2)
        SECTION_TYPE SHT_PROGBITS, 0
        SECTION_GROUP _ZN11Temperature8GetValueE4Unit
        DATA
        DC32    _ZN11Temperature8GetValueE4Unit
        DC32    0
        DC32    0
        DC32    1
        DC32    _ZTI11Temperature
        DC32    1
        DC32    1
        DC32    0
        DC32    0

        SECTION `.iar_vfe_vcallinfo_ZN13BluetoothTask7ExecuteEv`:DATA:NOALLOC:NOROOT(2)
        SECTION_TYPE SHT_PROGBITS, 0
        SECTION_GROUP _ZN13BluetoothTask7ExecuteEv
        DATA
        DC32    _ZN13BluetoothTask7ExecuteEv
        DC32    0
        DC32    0
        DC32    1
        DC32    _ZTI11Measurement
        DC32    1
        DC32    2
        DC32    0
        DC32    0

        SECTION `.iar_vfe_vcallinfo_ZN17DisplayUpdateTask7ExecuteEv`:DATA:NOALLOC:NOROOT(2)
        SECTION_TYPE SHT_PROGBITS, 0
        SECTION_GROUP _ZN17DisplayUpdateTask7ExecuteEv
        DATA
        DC32    _ZN17DisplayUpdateTask7ExecuteEv
        DC32    0
        DC32    0
        DC32    1
        DC32    _ZTI11Measurement
        DC32    1
        DC32    2
        DC32    0
        DC32    0

        SECTION `.iar_vfe_header`:DATA:NOALLOC:NOROOT(2)
        SECTION_TYPE SHT_PROGBITS, 0
        DATA
        DC32 0

        END
//  152 
//  153 
// 
// 22'017 bytes in section .bss
// 20'480 bytes in section .data
//      4 bytes in section .init_array
// 25'828 bytes in section .rodata
// 11'158 bytes in section .text
// 
//    992 bytes of CODE  memory (+ 10'170 bytes shared)
// 23'309 bytes of CONST memory (+  2'519 bytes shared)
// 19'697 bytes of DATA  memory (+ 22'800 bytes shared)
//
//Errors: none
//Warnings: 1
