///////////////////////////////////////////////////////////////////////////////
//
// IAR ANSI C/C++ Compiler V8.40.2.214/W32 for ARM        09/May/2022  14:11:59
// Copyright 1999-2019 IAR Systems AB.
//
//    Cpu mode     =  
//    Endian       =  little
//    Source file  =
//        D:\Nikolaos\My Documents\IAR
//        projects\CourseWork-main2\CourseWorkIARproject\main.cpp
//    Command line =
//        -f C:\Users\Nikolaos\AppData\Local\Temp\EWDF55.tmp ("D:\Nikolaos\My
//        Documents\IAR
//        projects\CourseWork-main2\CourseWorkIARproject\main.cpp" -lC
//        "D:\Nikolaos\My Documents\IAR
//        projects\CourseWork-main2\CourseWorkIARproject\Debug\List" -lA
//        "D:\Nikolaos\My Documents\IAR
//        projects\CourseWork-main2\CourseWorkIARproject\Debug\List" -o
//        "D:\Nikolaos\My Documents\IAR
//        projects\CourseWork-main2\CourseWorkIARproject\Debug\Obj" --no_cse
//        --no_unroll --no_inline --no_code_motion --no_tbaa --no_clustering
//        --no_scheduling --debug --endian=little --cpu=Cortex-M4 -e
//        --fpu=VFPv4_sp --dlib_config "D:\IAR Systems\Embedded Workbench
//        8.3\arm\inc\c\DLib_Config_Normal.h" -I "D:\Nikolaos\My Documents\IAR
//        projects\CourseWork-main2\CourseWorkIARproject\Rtos\" -I
//        "D:\Nikolaos\My Documents\IAR
//        projects\CourseWork-main2\CourseWorkIARproject\Rtos\wrapper\" -I
//        "D:\Nikolaos\My Documents\IAR
//        projects\CourseWork-main2\CourseWorkIARproject\Rtos\wrapper\FreeRtos\"
//        -I "D:\Nikolaos\My Documents\IAR
//        projects\CourseWork-main2\CourseWorkIARproject\Rtos\FreeRtos\" -I
//        "D:\Nikolaos\My Documents\IAR
//        projects\CourseWork-main2\CourseWorkIARproject\Rtos\FreeRtos\include\"
//        -I "D:\Nikolaos\My Documents\IAR
//        projects\CourseWork-main2\CourseWorkIARproject\Rtos\FreeRtos\portable\"
//        -I "D:\Nikolaos\My Documents\IAR
//        projects\CourseWork-main2\CourseWorkIARproject\Rtos\FreeRtos\portable\Common\"
//        -I "D:\Nikolaos\My Documents\IAR
//        projects\CourseWork-main2\CourseWorkIARproject\Rtos\FreeRtos\portable\IAR\"
//        -I "D:\Nikolaos\My Documents\IAR
//        projects\CourseWork-main2\CourseWorkIARproject\Rtos\FreeRtos\portable\IAR\ARM_CM4F\"
//        -I "D:\Nikolaos\My Documents\IAR
//        projects\CourseWork-main2\CourseWorkIARproject\Rtos\FreeRtos\portable\MemMang\"
//        -I "D:\Nikolaos\My Documents\IAR
//        projects\CourseWork-main2\CourseWorkIARproject\MyTasks\" -I
//        "D:\Nikolaos\My Documents\IAR
//        projects\CourseWork-main2\CourseWorkIARproject\CMSIS\" -I
//        "D:\Nikolaos\My Documents\IAR
//        projects\CourseWork-main2\CourseWorkIARproject\Application\" -I
//        "D:\Nikolaos\My Documents\IAR
//        projects\CourseWork-main2\CourseWorkIARproject\Application\Diagnostic\"
//        -I "D:\Nikolaos\My Documents\IAR
//        projects\CourseWork-main2\CourseWorkIARproject\AHardware\" -I
//        "D:\Nikolaos\My Documents\IAR
//        projects\CourseWork-main2\CourseWorkIARproject\AHardware\GpioPort\"
//        -I "D:\Nikolaos\My Documents\IAR
//        projects\CourseWork-main2\CourseWorkIARproject\AHardware\IrqController\"
//        -I "D:\Nikolaos\My Documents\IAR
//        projects\CourseWork-main2\CourseWorkIARproject\AHardware\Registers\STM32F411\FieldValues\"
//        -I "D:\Nikolaos\My Documents\IAR
//        projects\CourseWork-main2\CourseWorkIARproject\AHardware\Registers\STM32F411\"
//        -I "D:\Nikolaos\My Documents\IAR
//        projects\CourseWork-main2\CourseWorkIARproject\AHardware\Registers\"
//        -I "D:\Nikolaos\My Documents\IAR
//        projects\CourseWork-main2\CourseWorkIARproject\AHardware\Atomic\" -I
//        "D:\Nikolaos\My Documents\IAR
//        projects\CourseWork-main2\CourseWorkIARproject\Common\" -I
//        "D:\Nikolaos\My Documents\IAR
//        projects\CourseWork-main2\CourseWorkIARproject\Common\Singleton\" -I
//        "D:\Nikolaos\My Documents\IAR
//        projects\CourseWork-main2\CourseWorkIARproject\Common\RomObject\" -I
//        "D:\Nikolaos\My Documents\IAR
//        projects\CourseWork-main2\CourseWorkIARproject\AHardware\Port\" -I
//        "D:\Nikolaos\My Documents\IAR
//        projects\CourseWork-main2\CourseWorkIARproject\AHardware\Pin\" -I
//        "D:\Nikolaos\My Documents\IAR
//        projects\CourseWork-main2\CourseWorkIARproject\Application\Button\"
//        -I "D:\Nikolaos\My Documents\IAR
//        projects\CourseWork-main2\CourseWorkIARproject\Application\Led\" -I
//        "D:\Nikolaos\My Documents\IAR
//        projects\CourseWork-main2\CourseWorkIARproject\Application\Measurement\"
//        -I "D:\Nikolaos\My Documents\IAR
//        projects\CourseWork-main2\CourseWorkIARproject\AHardware\USART\" -I
//        "D:\Nikolaos\My Documents\IAR
//        projects\CourseWork-main2\CourseWorkIARproject\AHardware\Registers\CortexM4\"
//        -I "D:\Nikolaos\My Documents\IAR
//        projects\CourseWork-main2\CourseWorkIARproject\AHardware\Registers\CortexM4\FieldValues\"
//        -I "D:\Nikolaos\My Documents\IAR
//        projects\CourseWork-main2\CourseWorkIARproject\AHardware\SPI\" -I
//        "D:\Nikolaos\My Documents\IAR
//        projects\CourseWork-main2\CourseWorkIARproject\AHardware\BME280Driver\"
//        -I "D:\Nikolaos\My Documents\IAR
//        projects\CourseWork-main2\CourseWorkIARproject\AHardware\EPDDriver\"
//        -I "D:\Nikolaos\My Documents\IAR
//        projects\CourseWork-main2\CourseWorkIARproject\Application\GUI\" -I
//        "D:\Nikolaos\My Documents\IAR
//        projects\CourseWork-main2\CourseWorkIARproject\Application\GUI\Fonts\"
//        -I "D:\Nikolaos\My Documents\IAR
//        projects\CourseWork-main2\CourseWorkIARproject\Application\Display\"
//        -On --c++ --no_exceptions --no_rtti)
//    Locale       =  C
//    List file    =
//        D:\Nikolaos\My Documents\IAR
//        projects\CourseWork-main2\CourseWorkIARproject\Debug\List\main.s
//
///////////////////////////////////////////////////////////////////////////////

        RTMODEL "__CPP_Exceptions", "Disabled"
        RTMODEL "__CPP_Language", "C++14"
        RTMODEL "__SystemLibrary", "DLib"
        RTMODEL "__dlib_file_descriptor", "0"
        RTMODEL "__dlib_full_locale_support", "0"
        RTMODEL "__dlib_version", "6"
        RTMODEL "__iar_require _Printf", "floats,widths"
        AAPCS BASE,INTERWORK,VFP
        PRESERVE8
        REQUIRE8

        #define SHT_PROGBITS 0x1
        #define SHT_INIT_ARRAY 0xe

        EXTERN _ZTVN10__cxxabiv117__class_type_infoE
        EXTERN _ZTVN10__cxxabiv120__si_class_type_infoE
        EXTERN _ZdlPv
        EXTERN _Znwj
        EXTERN __aeabi_assert
        EXTERN __aeabi_atexit
        EXTERN __aeabi_d2f
        EXTERN __aeabi_d2iz
        EXTERN __aeabi_d2uiz
        EXTERN __aeabi_dadd
        EXTERN __aeabi_ddiv
        EXTERN __aeabi_dmul
        EXTERN __aeabi_dsub
        EXTERN __aeabi_f2d
        EXTERN __aeabi_l2f
        EXTERN __aeabi_ldivmod
        EXTERN __aeabi_memcpy
        EXTERN __aeabi_memmove
        EXTERN __aeabi_memset
        EXTERN __aeabi_ui2d
        EXTERN __aeabi_uldivmod
        EXTERN __dso_handle
        EXTWEAK __iar_EmptyStepPoint
        EXTERN __iar_Raise_len
        EXTERN __iar_Raise_ran
        EXTERN logf
        EXTERN round
        EXTERN sprintf
        EXTERN strlen
        EXTERN strncat
        EXTERN vEventGroupDelete
        EXTERN vEventGroupSetBitsCallback
        EXTERN vTaskDelay
        EXTERN vTaskStartScheduler
        EXTERN xEventGroupCreateStatic
        EXTERN xEventGroupWaitBits
        EXTERN xTaskCreateStatic
        EXTERN xTaskGetTickCount
        EXTERN xTimerPendFunctionCallFromISR

        PUBLIC SysCtlDelay
        PUBLIC SystemCoreClock
        PUBLIC _Z6fcnHumv
        PUBLIC _Z7fcnDewPv
        PUBLIC _Z7fcnTempv
        PUBLIC _Z8Delay_msy
        PUBLIC _Z8fcnPressv
        PUBLIC _ZGV11eInkDisplay
        PUBLIC _ZGV11temperature
        PUBLIC _ZGV20bluetoothTransceiver
        PUBLIC _ZGV6bme280
        PUBLIC _ZGV8dewPoint
        PUBLIC _ZGV8humidity
        PUBLIC _ZGV8pressure
        PUBLIC _ZN11Measurement12ShowUnitNameE4Unit
        PUBLIC _ZN11Measurement8GetValueE4Unit
        PUBLIC _ZN11Measurement8GetValueEv
        PUBLIC _ZN11Measurement9CheckUnitE4Unit
        PUBLIC _ZN11MeasurementC1ESs4UnitPFdvE
        PUBLIC _ZN11MeasurementC1ESsP4UnitjS0_PFdvE
        PUBLIC _ZN11MeasurementC2ESsP4UnitjS0_PFdvE
        PUBLIC _ZN11MeasurementD1Ev
        PUBLIC _ZN11MeasurementD2Ev
        PUBLIC _ZN11Temperature8GetValueE4Unit
        PUBLIC _ZN11Temperature8GetValueEv
        PUBLIC _ZN11TemperatureC1ESsPFdvE
        PUBLIC _ZN11TemperatureD1Ev
        PUBLIC _ZN11usartDriverI6Usart2E11SendMessageEPcj
        PUBLIC _ZN11usartDriverI6Usart2E6EnableEv
        PUBLIC _ZN11usartDriverI6Usart2EC1Ev
        PUBLIC _ZN12BME280DriverIL_Z15spi1TransceiverE3PinI4PortI5GPIOBELh10EEE11GetDewPointEv
        PUBLIC _ZN12BME280DriverIL_Z15spi1TransceiverE3PinI4PortI5GPIOBELh10EEE11GetHumidityEv
        PUBLIC _ZN12BME280DriverIL_Z15spi1TransceiverE3PinI4PortI5GPIOBELh10EEE11GetPressureEv
        PUBLIC _ZN12BME280DriverIL_Z15spi1TransceiverE3PinI4PortI5GPIOBELh10EEE12CalcDewPointEv
        PUBLIC _ZN12BME280DriverIL_Z15spi1TransceiverE3PinI4PortI5GPIOBELh10EEE12ReadHumidityEv
        PUBLIC _ZN12BME280DriverIL_Z15spi1TransceiverE3PinI4PortI5GPIOBELh10EEE12ReadPressureEv
        PUBLIC _ZN12BME280DriverIL_Z15spi1TransceiverE3PinI4PortI5GPIOBELh10EEE12ReadRegisterEc
        PUBLIC _ZN12BME280DriverIL_Z15spi1TransceiverE3PinI4PortI5GPIOBELh10EEE13WriteRegisterEcc
        PUBLIC _ZN12BME280DriverIL_Z15spi1TransceiverE3PinI4PortI5GPIOBELh10EEE14GetTemperatureEv
        PUBLIC _ZN12BME280DriverIL_Z15spi1TransceiverE3PinI4PortI5GPIOBELh10EEE15ReadTemperatureEv
        PUBLIC _ZN12BME280DriverIL_Z15spi1TransceiverE3PinI4PortI5GPIOBELh10EEE17StartMeasurementsEv
        PUBLIC _ZN12BME280DriverIL_Z15spi1TransceiverE3PinI4PortI5GPIOBELh10EEE19ReadSpanOfRegistersEcPcj
        PUBLIC _ZN12BME280DriverIL_Z15spi1TransceiverE3PinI4PortI5GPIOBELh10EEE23InitializeCalibrateDataEv
        PUBLIC _ZN12BME280DriverIL_Z15spi1TransceiverE3PinI4PortI5GPIOBELh10EEE7MeasureEv
        PUBLIC _ZN12BME280DriverIL_Z15spi1TransceiverE3PinI4PortI5GPIOBELh10EEEC1Ev
        PUBLIC _ZN12RegisterBaseILj1073819660ELj32E13ReadWriteModeE3GetIS0_vEEjv
        PUBLIC _ZN12RegisterBaseILj1073872916ELj32E13ReadWriteModeE6ToggleIS0_vEEvj
        PUBLIC _ZN12RegisterBaseILj1073873944ELj32E9WriteModeE5WriteIS0_vEEvj
        PUBLIC _ZN12RegisterBaseILj1073874944ELj32E13ReadWriteModeE3GetIS0_vEEjv
        PUBLIC _ZN12RegisterBaseILj1073874944ELj32E13ReadWriteModeE5WriteIS0_vEEvj
        PUBLIC _ZN12RegisterBaseILj1073874960ELj32E8ReadModeE3GetIS0_vEEjv
        PUBLIC _ZN12RegisterBaseILj1073874964ELj32E13ReadWriteModeE6ToggleIS0_vEEvj
        PUBLIC _ZN12RegisterBaseILj1073874968ELj32E9WriteModeE5WriteIS0_vEEvj
        PUBLIC _ZN12RegisterBaseILj3758153988ELj32E13ReadWriteModeE5WriteIS0_vEEvj
        PUBLIC _ZN12ScreenDriverILt400ELt300EE10DrawStringE5PointPKc
        PUBLIC _ZN12ScreenDriverILt400ELt300EE10ResetImageEv
        PUBLIC _ZN12ScreenDriverILt400ELt300EE12ClearWindowsE5PointS1_5Color
        PUBLIC _ZN12ScreenDriverILt400ELt300EE8DrawCharE5Pointc
        PUBLIC _ZN12ScreenDriverILt400ELt300EE8SetPixelE5Point5Color
        PUBLIC _ZN12ScreenDriverILt400ELt300EEC1ERKSt5arrayIhLj15000EEP5tFont
        PUBLIC _ZN13BluetoothTask7ExecuteEv
        PUBLIC _ZN13BluetoothTaskC1Ev
        PUBLIC _ZN13RegisterFieldIN4SPI25CRCPRELj0ELj16E13ReadWriteModevE3SetIS2_vEEvj
        PUBLIC _ZN13RegisterFieldIN6USART23BRRELj0ELj4E13ReadWriteModevE3SetIS2_vEEvj
        PUBLIC _ZN13RegisterFieldIN6USART23BRRELj4ELj12E13ReadWriteModevE3SetIS2_vEEvj
        PUBLIC _ZN13RegisterFieldIN6USART23CR1ELj15ELj1E13ReadWriteModevE3GetIS2_vEEjv
        PUBLIC _ZN14FieldValueBaseI18RCC_CFGR_SW_ValuesIN3RCC4CFGRELj0ELj2E13ReadWriteModeNS1_11RCCCFGRBaseEES4_Lj0EE3SetIS3_vEEvv
        PUBLIC _ZN14FieldValueBaseI18SPI1_CR1_BR_ValuesIN4SPI13CR1ELj3ELj3E13ReadWriteModeNS1_11SPI1CR1BaseEES4_Lj0EE3SetIS3_vEEvv
        PUBLIC _ZN14FieldValueBaseI18SPI2_CR1_BR_ValuesIN4SPI23CR1ELj3ELj3E13ReadWriteModeNS1_11SPI2CR1BaseEES4_Lj0EE3SetIS3_vEEvv
        PUBLIC _ZN14FieldValueBaseI19RCC_CFGR_SWS_ValuesIN3RCC4CFGRELj2ELj2E8ReadModeNS1_11RCCCFGRBaseEES4_Lj0EE5IsSetIS3_vEEbv
        PUBLIC _ZN14FieldValueBaseI19RCC_CR_HSION_ValuesIN3RCC2CRELj0ELj1E13ReadWriteModeNS1_9RCCCRBaseEES4_Lj1EE3SetIS3_vEEvv
        PUBLIC _ZN14FieldValueBaseI19SPI1_CR1_DFF_ValuesIN4SPI13CR1ELj11ELj1E13ReadWriteModeNS1_11SPI1CR1BaseEES4_Lj0EE3SetIS3_vEEvv
        PUBLIC _ZN14FieldValueBaseI19SPI1_CR1_SPE_ValuesIN4SPI13CR1ELj6ELj1E13ReadWriteModeNS1_11SPI1CR1BaseEES4_Lj1EE3SetIS3_vEEvv
        PUBLIC _ZN14FieldValueBaseI19SPI1_CR1_SSI_ValuesIN4SPI13CR1ELj8ELj1E13ReadWriteModeNS1_11SPI1CR1BaseEES4_Lj1EE3SetIS3_vEEvv
        PUBLIC _ZN14FieldValueBaseI19SPI1_CR1_SSM_ValuesIN4SPI13CR1ELj9ELj1E13ReadWriteModeNS1_11SPI1CR1BaseEES4_Lj1EE3SetIS3_vEEvv
        PUBLIC _ZN14FieldValueBaseI19SPI2_CR1_DFF_ValuesIN4SPI23CR1ELj11ELj1E13ReadWriteModeNS1_11SPI2CR1BaseEES4_Lj0EE3SetIS3_vEEvv
        PUBLIC _ZN14FieldValueBaseI19SPI2_CR1_SPE_ValuesIN4SPI23CR1ELj6ELj1E13ReadWriteModeNS1_11SPI2CR1BaseEES4_Lj1EE3SetIS3_vEEvv
        PUBLIC _ZN14FieldValueBaseI19SPI2_CR1_SSI_ValuesIN4SPI23CR1ELj8ELj1E13ReadWriteModeNS1_11SPI2CR1BaseEES4_Lj1EE3SetIS3_vEEvv
        PUBLIC _ZN14FieldValueBaseI19SPI2_CR1_SSM_ValuesIN4SPI23CR1ELj9ELj1E13ReadWriteModeNS1_11SPI2CR1BaseEES4_Lj1EE3SetIS3_vEEvv
        PUBLIC _ZN14FieldValueBaseI19USART2_CR1_M_ValuesIN6USART23CR1ELj12ELj1E13ReadWriteModeNS1_13USART2CR1BaseEES4_Lj0EE3SetIS3_vEEvv
        PUBLIC _ZN14FieldValueBaseI20RCC_CR_HSIRDY_ValuesIN3RCC2CRELj1ELj1E8ReadModeNS1_9RCCCRBaseEES4_Lj0EE5IsSetIS3_vEEbv
        PUBLIC _ZN14FieldValueBaseI20SPI1_CR1_CPHA_ValuesIN4SPI13CR1ELj0ELj1E13ReadWriteModeNS1_11SPI1CR1BaseEES4_Lj1EE3SetIS3_vEEvv
        PUBLIC _ZN14FieldValueBaseI20SPI1_CR1_CPOL_ValuesIN4SPI13CR1ELj1ELj1E13ReadWriteModeNS1_11SPI1CR1BaseEES4_Lj1EE3SetIS3_vEEvv
        PUBLIC _ZN14FieldValueBaseI20SPI1_CR1_MSTR_ValuesIN4SPI13CR1ELj2ELj1E13ReadWriteModeNS1_11SPI1CR1BaseEES4_Lj1EE3SetIS3_vEEvv
        PUBLIC _ZN14FieldValueBaseI20SPI1_CR2_SSOE_ValuesIN4SPI13CR2ELj2ELj1E13ReadWriteModeNS1_11SPI1CR2BaseEES4_Lj1EE3SetIS3_vEEvv
        PUBLIC _ZN14FieldValueBaseI20SPI2_CR1_CPHA_ValuesIN4SPI23CR1ELj0ELj1E13ReadWriteModeNS1_11SPI2CR1BaseEES4_Lj1EE3SetIS3_vEEvv
        PUBLIC _ZN14FieldValueBaseI20SPI2_CR1_CPOL_ValuesIN4SPI23CR1ELj1ELj1E13ReadWriteModeNS1_11SPI2CR1BaseEES4_Lj1EE3SetIS3_vEEvv
        PUBLIC _ZN14FieldValueBaseI20SPI2_CR1_MSTR_ValuesIN4SPI23CR1ELj2ELj1E13ReadWriteModeNS1_11SPI2CR1BaseEES4_Lj1EE3SetIS3_vEEvv
        PUBLIC _ZN14FieldValueBaseI20USART2_CR1_RE_ValuesIN6USART23CR1ELj2ELj1E13ReadWriteModeNS1_13USART2CR1BaseEES4_Lj1EE3SetIS3_vEEvv
        PUBLIC _ZN14FieldValueBaseI20USART2_CR1_TE_ValuesIN6USART23CR1ELj3ELj1E13ReadWriteModeNS1_13USART2CR1BaseEES4_Lj1EE3SetIS3_vEEvv
        PUBLIC _ZN14FieldValueBaseI20USART2_CR1_UE_ValuesIN6USART23CR1ELj13ELj1E13ReadWriteModeNS1_13USART2CR1BaseEES4_Lj1EE3SetIS3_vEEvv
        PUBLIC _ZN14FieldValueBaseI21GPIOB_BSRR_BS1_ValuesIN5GPIOB4BSRRELj1ELj1E9WriteModeNS1_13GPIOBBSRRBaseEES4_Lj1EE5WriteIS3_vEEvv
        PUBLIC _ZN14FieldValueBaseI21SPI1_CR1_CRCEN_ValuesIN4SPI13CR1ELj13ELj1E13ReadWriteModeNS1_11SPI1CR1BaseEES4_Lj0EE3SetIS3_vEEvv
        PUBLIC _ZN14FieldValueBaseI21SPI1_CR2_TXEIE_ValuesIN4SPI13CR2ELj7ELj1E13ReadWriteModeNS1_11SPI1CR2BaseEES4_Lj1EE3SetIS3_vEEvv
        PUBLIC _ZN14FieldValueBaseI21SPI2_CR1_CRCEN_ValuesIN4SPI23CR1ELj13ELj1E13ReadWriteModeNS1_11SPI2CR1BaseEES4_Lj0EE3SetIS3_vEEvv
        PUBLIC _ZN14FieldValueBaseI21SPI2_CR2_TXEIE_ValuesIN4SPI23CR2ELj7ELj1E13ReadWriteModeNS1_11SPI2CR2BaseEES4_Lj1EE3SetIS3_vEEvv
        PUBLIC _ZN14FieldValueBaseI21USART2_CR1_PCE_ValuesIN6USART23CR1ELj10ELj1E13ReadWriteModeNS1_13USART2CR1BaseEES4_Lj0EE3SetIS3_vEEvv
        PUBLIC _ZN14FieldValueBaseI22GPIOB_BSRR_BS10_ValuesIN5GPIOB4BSRRELj10ELj1E9WriteModeNS1_13GPIOBBSRRBaseEES4_Lj1EE5WriteIS3_vEEvv
        PUBLIC _ZN14FieldValueBaseI22SPI1_CR2_RXNEIE_ValuesIN4SPI13CR2ELj6ELj1E13ReadWriteModeNS1_11SPI1CR2BaseEES4_Lj1EE3SetIS3_vEEvv
        PUBLIC _ZN14FieldValueBaseI22USART2_CR2_STOP_ValuesIN6USART23CR2ELj12ELj2E13ReadWriteModeNS1_13USART2CR2BaseEES4_Lj0EE3SetIS3_vEEvv
        PUBLIC _ZN14FieldValueBaseI23GPIOA_AFRL_AFRL7_ValuesIN5GPIOA4AFRLELj12ELj4E13ReadWriteModeNS1_13GPIOAAFRLBaseEES4_Lj7EE3SetIS3_vEEvv
        PUBLIC _ZN14FieldValueBaseI23GPIOA_AFRL_AFRL7_ValuesIN5GPIOA4AFRLELj8ELj4E13ReadWriteModeNS1_13GPIOAAFRLBaseEES4_Lj7EE3SetIS3_vEEvv
        PUBLIC _ZN14FieldValueBaseI23USART2_CR1_OVER8_ValuesIN6USART23CR1ELj15ELj1E13ReadWriteModeNS1_13USART2CR1BaseEES4_Lj0EE3SetIS3_vEEvv
        PUBLIC _ZN14FieldValueBaseI23USART2_CR1_TXEIE_ValuesIN6USART23CR1ELj7ELj1E13ReadWriteModeNS1_13USART2CR1BaseEES4_Lj1EE3SetIS3_vEEvv
        PUBLIC _ZN14FieldValueBaseI24SPI1_CR1_LSBFIRST_ValuesIN4SPI13CR1ELj7ELj1E13ReadWriteModeNS1_11SPI1CR1BaseEES4_Lj0EE3SetIS3_vEEvv
        PUBLIC _ZN14FieldValueBaseI24SPI2_CR1_BIDIMODE_ValuesIN4SPI23CR1ELj15ELj1E13ReadWriteModeNS1_11SPI2CR1BaseEES4_Lj0EE3SetIS3_vEEvv
        PUBLIC _ZN14FieldValueBaseI24SPI2_CR1_LSBFIRST_ValuesIN4SPI23CR1ELj7ELj1E13ReadWriteModeNS1_11SPI2CR1BaseEES4_Lj0EE3SetIS3_vEEvv
        PUBLIC _ZN14FieldValueBaseI24USART2_CR1_RXNEIE_ValuesIN6USART23CR1ELj5ELj1E13ReadWriteModeNS1_13USART2CR1BaseEES4_Lj1EE3SetIS3_vEEvv
        PUBLIC _ZN14FieldValueBaseI25RCC_AHB1ENR_DMA2EN_ValuesIN3RCC7APB1ENRELj14ELj1E13ReadWriteModeNS1_14RCCAPB1ENRBaseEES4_Lj1EE3SetIS3_vEEvv
        PUBLIC _ZN14FieldValueBaseI25RCC_AHB1ENR_DMA2EN_ValuesIN3RCC7APB1ENRELj17ELj1E13ReadWriteModeNS1_14RCCAPB1ENRBaseEES4_Lj1EE3SetIS3_vEEvv
        PUBLIC _ZN14FieldValueBaseI25RCC_AHB1ENR_DMA2EN_ValuesIN3RCC7APB2ENRELj12ELj1E13ReadWriteModeNS1_14RCCAPB2ENRBaseEES4_Lj1EE3SetIS3_vEEvv
        PUBLIC _ZN14FieldValueBaseI26GPIOA_MODER_MODER15_ValuesIN5GPIOA5MODERELj4ELj2E13ReadWriteModeNS1_14GPIOAMODERBaseEES4_Lj2EE3SetIS3_vEEvv
        PUBLIC _ZN14FieldValueBaseI26GPIOA_MODER_MODER15_ValuesIN5GPIOA5MODERELj6ELj2E13ReadWriteModeNS1_14GPIOAMODERBaseEES4_Lj2EE3SetIS3_vEEvv
        PUBLIC _ZN14FieldValueBaseI26GPIOA_PUPDR_PUPDR15_ValuesIN5GPIOA5PUPDRELj4ELj2E13ReadWriteModeNS1_14GPIOAPUPDRBaseEES4_Lj0EE3SetIS3_vEEvv
        PUBLIC _ZN14FieldValueBaseI26GPIOA_PUPDR_PUPDR15_ValuesIN5GPIOA5PUPDRELj6ELj2E13ReadWriteModeNS1_14GPIOAPUPDRBaseEES4_Lj1EE3SetIS3_vEEvv
        PUBLIC _ZN14FieldValueBaseI26RCC_AHB1ENR_GPIOAEN_ValuesIN3RCC7AHB1ENRELj0ELj1E13ReadWriteModeNS1_14RCCAHB1ENRBaseEES4_Lj1EE3SetIS3_vEEvv
        PUBLIC _ZN14FieldValueBaseI26RCC_AHB1ENR_GPIOCEN_ValuesIN3RCC7AHB1ENRELj2ELj1E13ReadWriteModeNS1_14RCCAHB1ENRBaseEES4_Lj1EE3SetIS3_vEEvv
        PUBLIC _ZN14FieldValueBaseI26RCC_AHB1ENR_GPIOCEN_ValuesIN3RCC7AHB1ENRELj2ELj1E13ReadWriteModeNS1_14RCCAHB1ENRBaseEES4_Lj1EE5IsSetIS3_vEEbv
        PUBLIC _ZN15ButtonEventTaskI6ButtonI3PinI4PortI5GPIOCELh13EEEL_Z5eventEE7ExecuteEv
        PUBLIC _ZN15ButtonEventTaskI6ButtonI3PinI4PortI5GPIOCELh13EEEL_Z5eventEEC1Ev
        PUBLIC _ZN15MeasurementTaskIL_Z5eventEE11UnitsUpdateEv
        PUBLIC _ZN15MeasurementTaskIL_Z5eventEE7ExecuteEv
        PUBLIC _ZN15MeasurementTaskIL_Z5eventEEC1Ev
        PUBLIC _ZN17DisplayUpdateTask7ExecuteEv
        PUBLIC _ZN17DisplayUpdateTaskC1Ev
        PUBLIC _ZN21SpiDriverOnlyTransmitI4Spi2E11SendMessageEPKcj
        PUBLIC _ZN21SpiDriverOnlyTransmitI4Spi2E6EnableEv
        PUBLIC _ZN21SpiDriverOnlyTransmitI4Spi2E8SendByteEc
        PUBLIC _ZN3LedI3PinI4PortI5GPIOAELh5EEE6ToggleEv
        PUBLIC _ZN3LedI3PinI4PortI5GPIOCELh8EEE6ToggleEv
        PUBLIC _ZN3LedI3PinI4PortI5GPIOCELh9EEE6ToggleEv
        PUBLIC _ZN3PinI4PortI5GPIOAELh5EE6ToggleEv
        PUBLIC _ZN3PinI4PortI5GPIOBELh10EE3SetEv
        PUBLIC _ZN3PinI4PortI5GPIOBELh10EE5ResetEv
        PUBLIC _ZN3PinI4PortI5GPIOBELh1EE3SetEv
        PUBLIC _ZN3PinI4PortI5GPIOBELh1EE5ResetEv
        PUBLIC _ZN3PinI4PortI5GPIOBELh2EE3SetEv
        PUBLIC _ZN3PinI4PortI5GPIOBELh2EE5ResetEv
        PUBLIC _ZN3PinI4PortI5GPIOCELh13EE15SelectInputModeEv
        PUBLIC _ZN3PinI4PortI5GPIOCELh13EE5IsSetEv
        PUBLIC _ZN3PinI4PortI5GPIOCELh13EE6EnableEv
        PUBLIC _ZN3PinI4PortI5GPIOCELh2EE3GetEv
        PUBLIC _ZN3PinI4PortI5GPIOCELh2EE5IsSetEv
        PUBLIC _ZN3PinI4PortI5GPIOCELh3EE3SetEv
        PUBLIC _ZN3PinI4PortI5GPIOCELh3EE5ResetEv
        PUBLIC _ZN3PinI4PortI5GPIOCELh8EE6ToggleEv
        PUBLIC _ZN3PinI4PortI5GPIOCELh9EE6ToggleEv
        PUBLIC _ZN3SPII4SPI1L_Z15spi1TransceiverEE32TransmiteBufEmptyInterruptEnableEv
        PUBLIC _ZN3SPII4SPI1L_Z15spi1TransceiverEE33ReceiveBufNotEmptyInterruptEnableEv
        PUBLIC _ZN3SPII4SPI1L_Z15spi1TransceiverEE6EnableEv
        PUBLIC _ZN3SPII4SPI1L_Z15spi1TransceiverEE8ReadByteEv
        PUBLIC _ZN3SPII4SPI2L_Z15spi2TransceiverEE32TransmiteBufEmptyInterruptEnableEv
        PUBLIC _ZN3SPII4SPI2L_Z15spi2TransceiverEE6EnableEv
        PUBLIC _ZN4PortI5GPIOAE6ToggleEh
        PUBLIC _ZN4PortI5GPIOBE3SetEj
        PUBLIC _ZN4PortI5GPIOBE5ResetEj
        PUBLIC _ZN4PortI5GPIOCE3SetEj
        PUBLIC _ZN4PortI5GPIOCE5IsSetEh
        PUBLIC _ZN4PortI5GPIOCE5ResetEj
        PUBLIC _ZN4PortI5GPIOCE6EnableEv
        PUBLIC _ZN4PortI5GPIOCE6ToggleEh
        PUBLIC _ZN4PortI5GPIOCE7ModeSetEh5Moder
        PUBLIC _ZN4PortI5GPIOCE8IsEnableEv
        PUBLIC _ZN5PointC1Ett
        PUBLIC _ZN5USARTI6USART2L_Z20bluetoothTransceiverEE15TransmiteEnableEv
        PUBLIC _ZN5USARTI6USART2L_Z20bluetoothTransceiverEE32TransmiteBufEmptyInterruptEnableEv
        PUBLIC _ZN5USARTI6USART2L_Z20bluetoothTransceiverEE6EnableEv
        PUBLIC _ZN6ButtonI3PinI4PortI5GPIOCELh13EEE10WasPressedEv
        PUBLIC _ZN6ButtonI3PinI4PortI5GPIOCELh13EEE6EnableEv
        PUBLIC _ZN7DisplayIL_Z11eInkDisplayEL_Z6screenEE10DrawStringE5PointPKc
        PUBLIC _ZN7DisplayIL_Z11eInkDisplayEL_Z6screenEE10ResetImageEv
        PUBLIC _ZN7DisplayIL_Z11eInkDisplayEL_Z6screenEE12UpdateWindowE5PointS1_
        PUBLIC _ZN8RegisterILj1073873920ELj32E13ReadWriteModeN5GPIOB14GPIOBMODERBaseEJ10FieldValueI26GPIOB_MODER_MODER15_ValuesINS1_5MODERELj2ELj2ES0_S2_ES2_Lj1EvES3_IS4_IS5_Lj4ELj2ES0_S2_ES2_Lj1EvES3_IS4_IS5_Lj26ELj2ES0_S2_ES2_Lj2EvES3_IS4_IS5_Lj30ELj2ES0_S2_ES2_Lj2EvEEE3SetIS0_vEEvv
        PUBLIC _ZN8RegisterILj1073873920ELj32E13ReadWriteModeN5GPIOB14GPIOBMODERBaseEJ10FieldValueI26GPIOB_MODER_MODER15_ValuesINS1_5MODERELj6ELj2ES0_S2_ES2_Lj2EvES3_IS4_IS5_Lj8ELj2ES0_S2_ES2_Lj2EvES3_IS4_IS5_Lj10ELj2ES0_S2_ES2_Lj2EvES3_IS4_IS5_Lj20ELj2ES0_S2_ES2_Lj1EvEEE3SetIS0_vEEvv
        PUBLIC _ZN8RegisterILj1073873952ELj32E13ReadWriteModeN5GPIOB13GPIOBAFRLBaseEJ10FieldValueI23GPIOB_AFRL_AFRL7_ValuesINS1_4AFRLELj12ELj4ES0_S2_ES2_Lj5EvES3_IS4_IS5_Lj16ELj4ES0_S2_ES2_Lj5EvES3_IS4_IS5_Lj20ELj4ES0_S2_ES2_Lj5EvEEE3SetIS0_vEEvv
        PUBLIC _ZN8RegisterILj1073873956ELj32E13ReadWriteModeN5GPIOB13GPIOBAFRHBaseEJ10FieldValueI23GPIOB_AFRL_AFRL7_ValuesINS1_4AFRHELj20ELj4ES0_S2_ES2_Lj5EvES3_IS4_IS5_Lj28ELj4ES0_S2_ES2_Lj5EvEEE3SetIS0_vEEvv
        PUBLIC _ZN8RegisterILj1073874944ELj32E13ReadWriteModeN5GPIOC14GPIOCMODERBaseEJ10FieldValueI26GPIOC_MODER_MODER15_ValuesINS1_5MODERELj4ELj2ES0_S2_ES2_Lj0EvES3_IS4_IS5_Lj6ELj2ES0_S2_ES2_Lj1EvEEE3SetIS0_vEEvv
        PUBLIC _ZN8RegisterILj1073887280ELj32E13ReadWriteModeN3RCC14RCCAHB1ENRBaseEJ10FieldValueI26RCC_AHB1ENR_GPIOCEN_ValuesINS1_7AHB1ENRELj2ELj1ES0_S2_ES2_Lj1EvES3_I26RCC_AHB1ENR_GPIOBEN_ValuesIS5_Lj1ELj1ES0_S2_ES2_Lj1EvES3_I26RCC_AHB1ENR_GPIOAEN_ValuesIS5_Lj0ELj1ES0_S2_ES2_Lj1EvEEE3SetIS0_vEEvv
        PUBLIC _ZN9EPDDriverIL_Z15spi2TransceiverE3PinI4PortI5GPIOBELh1EES0_IS3_Lh2EES0_IS1_I5GPIOCELh3EES0_IS7_Lh2EEE11SendCommandEh
        PUBLIC _ZN9EPDDriverIL_Z15spi2TransceiverE3PinI4PortI5GPIOBELh1EES0_IS3_Lh2EES0_IS1_I5GPIOCELh3EES0_IS7_Lh2EEE11SetLutQuickEv
        PUBLIC _ZN9EPDDriverIL_Z15spi2TransceiverE3PinI4PortI5GPIOBELh1EES0_IS3_Lh2EES0_IS1_I5GPIOCELh3EES0_IS7_Lh2EEE12RefreshQuickEv
        PUBLIC _ZN9EPDDriverIL_Z15spi2TransceiverE3PinI4PortI5GPIOBELh1EES0_IS3_Lh2EES0_IS1_I5GPIOCELh3EES0_IS7_Lh2EEE13WaitUntilBusyEv
        PUBLIC _ZN9EPDDriverIL_Z15spi2TransceiverE3PinI4PortI5GPIOBELh1EES0_IS3_Lh2EES0_IS1_I5GPIOCELh3EES0_IS7_Lh2EEE14SetPartialModeEv
        PUBLIC _ZN9EPDDriverIL_Z15spi2TransceiverE3PinI4PortI5GPIOBELh1EES0_IS3_Lh2EES0_IS1_I5GPIOCELh3EES0_IS7_Lh2EEE19UpdatePartialWindowEPKhtttt
        PUBLIC _ZN9EPDDriverIL_Z15spi2TransceiverE3PinI4PortI5GPIOBELh1EES0_IS3_Lh2EES0_IS1_I5GPIOCELh3EES0_IS7_Lh2EEE4InitEv
        PUBLIC _ZN9EPDDriverIL_Z15spi2TransceiverE3PinI4PortI5GPIOBELh1EES0_IS3_Lh2EES0_IS1_I5GPIOCELh3EES0_IS7_Lh2EEE5ClearEv
        PUBLIC _ZN9EPDDriverIL_Z15spi2TransceiverE3PinI4PortI5GPIOBELh1EES0_IS3_Lh2EES0_IS1_I5GPIOCELh3EES0_IS7_Lh2EEE5ResetEv
        PUBLIC _ZN9EPDDriverIL_Z15spi2TransceiverE3PinI4PortI5GPIOBELh1EES0_IS3_Lh2EES0_IS1_I5GPIOCELh3EES0_IS7_Lh2EEE6IsBusyEv
        PUBLIC _ZN9EPDDriverIL_Z15spi2TransceiverE3PinI4PortI5GPIOBELh1EES0_IS3_Lh2EES0_IS1_I5GPIOCELh3EES0_IS7_Lh2EEE6SetLutEv
        PUBLIC _ZN9EPDDriverIL_Z15spi2TransceiverE3PinI4PortI5GPIOBELh1EES0_IS3_Lh2EES0_IS1_I5GPIOCELh3EES0_IS7_Lh2EEE7RefreshEv
        PUBLIC _ZN9EPDDriverIL_Z15spi2TransceiverE3PinI4PortI5GPIOBELh1EES0_IS3_Lh2EES0_IS1_I5GPIOCELh3EES0_IS7_Lh2EEE8SendDataEPKhj
        PUBLIC _ZN9EPDDriverIL_Z15spi2TransceiverE3PinI4PortI5GPIOBELh1EES0_IS3_Lh2EES0_IS1_I5GPIOCELh3EES0_IS7_Lh2EEE8SendDataEh
        PUBLIC _ZN9EPDDriverIL_Z15spi2TransceiverE3PinI4PortI5GPIOBELh1EES0_IS3_Lh2EES0_IS1_I5GPIOCELh3EES0_IS7_Lh2EEEC1Ev
        PUBLIC _ZN9OsWrapper11RtosWrapper10wWaitEventERKPvjjNS_9EventModeE
        PUBLIC _ZN9OsWrapper11RtosWrapper12wCreateEventER19xSTATIC_EVENT_GROUP
        PUBLIC _ZN9OsWrapper11RtosWrapper12wDeleteEventERPv
        PUBLIC _ZN9OsWrapper11RtosWrapper12wSignalEventERKPvj
        PUBLIC _ZN9OsWrapper11RtosWrapper13wCreateThreadINS_4RtosE13BluetoothTaskEEvRT0_PKcNS_14ThreadPriorityEtPj
        PUBLIC _ZN9OsWrapper11RtosWrapper13wCreateThreadINS_4RtosE15ButtonEventTaskI6ButtonI3PinI4PortI5GPIOCELh13EEEL_Z5eventEEEEvRT0_PKcNS_14ThreadPriorityEtPj
        PUBLIC _ZN9OsWrapper11RtosWrapper13wCreateThreadINS_4RtosE15MeasurementTaskIL_Z5eventEEEEvRT0_PKcNS_14ThreadPriorityEtPj
        PUBLIC _ZN9OsWrapper11RtosWrapper13wCreateThreadINS_4RtosE17DisplayUpdateTaskEEvRT0_PKcNS_14ThreadPriorityEtPj
        PUBLIC _ZN9OsWrapper11RtosWrapper6wSleepEj
        PUBLIC _ZN9OsWrapper11RtosWrapper6wStartEv
        PUBLIC _ZN9OsWrapper11RtosWrapper9wGetTicksEv
        PUBLIC _ZN9OsWrapper4Rtos12CreateThreadI13BluetoothTaskEEvRT_PKcNS_14ThreadPriorityE
        PUBLIC _ZN9OsWrapper4Rtos12CreateThreadI15ButtonEventTaskI6ButtonI3PinI4PortI5GPIOCELh13EEEL_Z5eventEEEEvRT_PKcNS_14ThreadPriorityE
        PUBLIC _ZN9OsWrapper4Rtos12CreateThreadI15MeasurementTaskIL_Z5eventEEEEvRT_PKcNS_14ThreadPriorityE
        PUBLIC _ZN9OsWrapper4Rtos12CreateThreadI17DisplayUpdateTaskEEvRT_PKcNS_14ThreadPriorityE
        PUBLIC _ZN9OsWrapper4Rtos3RunEPv
        PUBLIC _ZN9OsWrapper4Rtos5StartEv
        PUBLIC _ZN9OsWrapper5Event6SignalEv
        PUBLIC _ZN9OsWrapper5EventC1ENSt6chrono8durationIxSt5ratioILx1ELx1000EEEEj
        PUBLIC _ZN9OsWrapper5EventD1Ev
        PUBLIC _ZN9OsWrapper6ThreadILj128EEC1Ev
        PUBLIC _ZN9OsWrapper6ThreadILj128EEC2Ev
        PUBLIC _ZN9OsWrapper6ThreadILj400EEC1Ev
        PUBLIC _ZN9OsWrapper6ThreadILj400EEC2Ev
        PUBLIC _ZN9OsWrapper7IThread3RunEv
        PUBLIC _ZN9OsWrapper7IThread5SleepENSt6chrono8durationIxSt5ratioILx1ELx1000EEEE
        PUBLIC _ZN9OsWrapper7IThreadC1Ev
        PUBLIC _ZN9OsWrapper7IThreadC2Ev
        PUBLIC _ZN9SpiDriverI4Spi1E10GetMessageEPc
        PUBLIC _ZN9SpiDriverI4Spi1E11SendMessageEPcj
        PUBLIC _ZN9SpiDriverI4Spi1E17IsMessageReceivedEv
        PUBLIC _ZN9SpiDriverI4Spi1E20SetReceivedMesLengthEj
        PUBLIC _ZN9SpiDriverI4Spi1E6EnableEv
        PUBLIC _ZN9SpiDriverI4Spi1E7GetByteEv
        PUBLIC _ZN9SpiDriverI4Spi1E8SendByteEc
        PUBLIC _ZNK9OsWrapper5Event4WaitENS_9EventModeEj
        PUBLIC _ZNKSaIcE8max_sizeEv
        PUBLIC _ZNKSs4sizeEv
        PUBLIC _ZNKSs5c_strEv
        PUBLIC _ZNKSs6lengthEv
        PUBLIC _ZNKSs8max_sizeEv
        PUBLIC _ZNKSt11_String_valISt13_Simple_typesIcEE6_MyptrEv
        PUBLIC _ZNKSt11_Wrap_allocISaIcEE37select_on_container_copy_constructionESt4_Nil
        PUBLIC _ZNKSt11_Wrap_allocISaIcEE8max_sizeESt4_Nil
        PUBLIC _ZNKSt13_String_allocISt18_String_base_typesIcSaIcEEE6_GetalEv
        PUBLIC _ZNKSt13_String_allocISt18_String_base_typesIcSaIcEEE6_MyptrEv
        PUBLIC _ZNKSt13_String_allocISt18_String_base_typesIcSaIcEEE7_MysizeEv
        PUBLIC _ZNKSt13_String_allocISt18_String_base_typesIcSaIcEEE9_Get_dataEv
        PUBLIC _ZNKSt16_Compressed_pairISt11_Wrap_allocISaIcEESt11_String_valISt13_Simple_typesIcEELb1EE10_Get_firstEv
        PUBLIC _ZNKSt16_Compressed_pairISt11_Wrap_allocISaIcEESt11_String_valISt13_Simple_typesIcEELb1EE11_Get_secondEv
        PUBLIC _ZNKSt5arrayIcLj1024EE4sizeEv
        PUBLIC _ZNKSt5arrayIcLj20000EE4sizeEv
        PUBLIC _ZNKSt5arrayIcLj200EE4sizeEv
        PUBLIC _ZNKSt6chrono8durationIjSt5ratioILx10ELx1000EEE5countEv
        PUBLIC _ZNKSt6chrono8durationIxSt5ratioILx1ELx1000EEE5countEv
        PUBLIC _ZNSaIcE10deallocateEPcj
        PUBLIC _ZNSaIcE7destroyIPcEEvPT_
        PUBLIC _ZNSaIcE8allocateEj
        PUBLIC _ZNSaIcE9constructIPcJS1_EEEvPT_DpOT0_
        PUBLIC _ZNSs4_EosEj
        PUBLIC _ZNSs5_CopyEjj
        PUBLIC _ZNSs5_GrowEjb
        PUBLIC _ZNSs5_TidyEbj
        PUBLIC _ZNSs5eraseEj
        PUBLIC _ZNSs5eraseEjj
        PUBLIC _ZNSs6assignEPKc
        PUBLIC _ZNSs6assignEPKcj
        PUBLIC _ZNSs6assignERKSsjj
        PUBLIC _ZNSs7_InsideEPKc
        PUBLIC _ZNSsC1EPKc
        PUBLIC _ZNSsC1ERKSs
        PUBLIC _ZNSsC1Ev
        PUBLIC _ZNSsD1Ev
        PUBLIC _ZNSsaSEPKc
        PUBLIC _ZNSt11_String_valISt13_Simple_typesIcEE6_MyptrEv
        PUBLIC _ZNSt11_String_valISt13_Simple_typesIcEEC1Ev
        PUBLIC _ZNSt11_Wrap_allocISaIcEE10deallocateEPcj
        PUBLIC _ZNSt11_Wrap_allocISaIcEE7destroyIPcEEvPT_
        PUBLIC _ZNSt11_Wrap_allocISaIcEE8allocateEj
        PUBLIC _ZNSt11_Wrap_allocISaIcEE9constructIPcJS3_EEEvPT_DpOT0_
        PUBLIC _ZNSt11_Wrap_allocISaIcEEC1ERKS0_
        PUBLIC _ZNSt11_Wrap_allocISaIcEEC2ERKS0_
        PUBLIC _ZNSt11char_traitsIcE4copyEPcPKcj
        PUBLIC _ZNSt11char_traitsIcE4moveEPcPKcj
        PUBLIC _ZNSt11char_traitsIcE6assignERcRKc
        PUBLIC _ZNSt11char_traitsIcE6lengthEPKc
        PUBLIC _ZNSt13_String_allocISt18_String_base_typesIcSaIcEEE3_BxEv
        PUBLIC _ZNSt13_String_allocISt18_String_base_typesIcSaIcEEE6_GetalEv
        PUBLIC _ZNSt13_String_allocISt18_String_base_typesIcSaIcEEE6_MyptrEv
        PUBLIC _ZNSt13_String_allocISt18_String_base_typesIcSaIcEEE6_MyresEv
        PUBLIC _ZNSt13_String_allocISt18_String_base_typesIcSaIcEEE7_MysizeEv
        PUBLIC _ZNSt13_String_allocISt18_String_base_typesIcSaIcEEE9_Get_dataEv
        PUBLIC _ZNSt13_String_allocISt18_String_base_typesIcSaIcEEEC1ERKS1_
        PUBLIC _ZNSt13_String_allocISt18_String_base_typesIcSaIcEEEC2ERKS1_
        PUBLIC _ZNSt16_Compressed_pairISt11_Wrap_allocISaIcEESt11_String_valISt13_Simple_typesIcEELb1EE10_Get_firstEv
        PUBLIC _ZNSt16_Compressed_pairISt11_Wrap_allocISaIcEESt11_String_valISt13_Simple_typesIcEELb1EE11_Get_secondEv
        PUBLIC _ZNSt16_Compressed_pairISt11_Wrap_allocISaIcEESt11_String_valISt13_Simple_typesIcEELb1EEC1IRKS1_JEEESt25_One_then_variadic_args_tOT_DpOT0_
        PUBLIC _ZNSt16allocator_traitsISaIcEE37select_on_container_copy_constructionERKS0_
        PUBLIC _ZNSt16allocator_traitsISaIcEE7destroyIPcEEvRS0_PT_
        PUBLIC _ZNSt16allocator_traitsISaIcEE8max_sizeERKS0_
        PUBLIC _ZNSt16allocator_traitsISaIcEE9constructIPcJS3_EEEvRS0_PT_DpOT0_
        PUBLIC _ZNSt5arrayIcLj1024EE4dataEv
        PUBLIC _ZNSt5arrayIcLj20000EE4dataEv
        PUBLIC _ZNSt5arrayIcLj20000EEixEj
        PUBLIC _ZNSt5arrayIcLj200EE4dataEv
        PUBLIC _ZNSt5arrayIcLj200EEixEj
        PUBLIC _ZNSt5arrayIhLj15000EE4dataEv
        PUBLIC _ZNSt5arrayIhLj15000EEixEj
        PUBLIC _ZNSt5arrayIjLj128EE4dataEv
        PUBLIC _ZNSt5arrayIjLj400EE4dataEv
        PUBLIC _ZNSt6chrono12steady_clock9is_steadyE
        PUBLIC _ZNSt6chrono12system_clock12is_monotonicE
        PUBLIC _ZNSt6chrono12system_clock9is_steadyE
        PUBLIC _ZNSt6chrono13duration_castINS_8durationIjSt5ratioILx10ELx1000EEEExS2_ILx1ELx1000EEEENSt9enable_ifIXsr3std6chrono12_Is_durationIT_EE5valueES7_E4typeERKNS1_IT0_T1_EE
        PUBLIC _ZNSt6chrono8durationIjSt5ratioILx10ELx1000EEEC1IjvEERKT_
        PUBLIC _ZSt10_AddressofIcEPT_RS0_St17integral_constantIbLb0EE
        PUBLIC _ZSt11_DeallocateIcEvPT_j
        PUBLIC _ZSt4moveIRPcEONSt16remove_referenceIT_E4typeEOS3_
        PUBLIC _ZSt7forwardIPcEOT_RNSt16remove_referenceIS1_E4typeE
        PUBLIC _ZSt7forwardIRKSaIcEEOT_RNSt16remove_referenceIS3_E4typeE
        PUBLIC _ZSt9_AllocateIcEPT_jS1_b
        PUBLIC _ZSt9addressofIcEPT_RS0_
        PUBLIC _ZTI11Measurement
        PUBLIC _ZTI11Temperature
        PUBLIC _ZTI13BluetoothTask
        PUBLIC _ZTI15ButtonEventTaskI6ButtonI3PinI4PortI5GPIOCELh13EEEL_Z5eventEE
        PUBLIC _ZTI15MeasurementTaskIL_Z5eventEE
        PUBLIC _ZTI17DisplayUpdateTask
        PUBLIC _ZTIN9OsWrapper6ThreadILj128EEE
        PUBLIC _ZTIN9OsWrapper6ThreadILj400EEE
        PUBLIC _ZTIN9OsWrapper7IThreadE
        PUBLIC _ZTISt10ctype_base
        PUBLIC _ZTS11Measurement
        PUBLIC _ZTS11Temperature
        PUBLIC _ZTS13BluetoothTask
        PUBLIC _ZTS15ButtonEventTaskI6ButtonI3PinI4PortI5GPIOCELh13EEEL_Z5eventEE
        PUBLIC _ZTS15MeasurementTaskIL_Z5eventEE
        PUBLIC _ZTS17DisplayUpdateTask
        PUBLIC _ZTSN9OsWrapper6ThreadILj128EEE
        PUBLIC _ZTSN9OsWrapper6ThreadILj400EEE
        PUBLIC _ZTSN9OsWrapper7IThreadE
        PUBLIC _ZTSSt10ctype_base
        PUBLIC _ZTV11Measurement
        PUBLIC _ZTV11Temperature
        PUBLIC _ZTV13BluetoothTask
        PUBLIC _ZTV15ButtonEventTaskI6ButtonI3PinI4PortI5GPIOCELh13EEEL_Z5eventEE
        PUBLIC _ZTV15MeasurementTaskIL_Z5eventEE
        PUBLIC _ZTV17DisplayUpdateTask
        PUBLIC _ZZN11Measurement12ShowUnitNameE4UnitEs
        PUBLIC _ZZN11Measurement12ShowUnitNameE4UnitEs_0
        PUBLIC _ZZN11Measurement12ShowUnitNameE4UnitEs_1
        PUBLIC _ZZN11Measurement12ShowUnitNameE4UnitEs_2
        PUBLIC _ZZN11Measurement12ShowUnitNameE4UnitEs_3
        PUBLIC _ZZN11Measurement12ShowUnitNameE4UnitEs_5
        PUBLIC _ZZN11Measurement12ShowUnitNameE4UnitEs_6
        PUBLIC _ZZN11Measurement8GetValueE4UnitEs_0
        PUBLIC _ZZN11Measurement8GetValueE4UnitEs_1
        PUBLIC _ZZN11MeasurementC1ESsP4UnitjS0_PFdvEEs_0
        PUBLIC _ZZN11MeasurementC1ESsP4UnitjS0_PFdvEEs_1
        PUBLIC _ZZN11Temperature8GetValueE4UnitEs_0
        PUBLIC _ZZN11Temperature8GetValueE4UnitEs_1
        PUBLIC _ZZN12ScreenDriverILt400ELt300EE12ClearWindowsE5PointS1_5ColorEs
        PUBLIC _ZZN12ScreenDriverILt400ELt300EE12ClearWindowsE5PointS1_5ColorEs_0
        PUBLIC _ZZN12ScreenDriverILt400ELt300EE8DrawCharE5PointcEs
        PUBLIC _ZZN12ScreenDriverILt400ELt300EE8DrawCharE5PointcEs_0
        PUBLIC _ZZN12ScreenDriverILt400ELt300EE8SetPixelE5Point5ColorEs
        PUBLIC _ZZN12ScreenDriverILt400ELt300EE8SetPixelE5Point5ColorEs_0
        PUBLIC _ZZN13BluetoothTask7ExecuteEvEs
        PUBLIC _ZZN13RegisterFieldIN4SPI25CRCPRELj0ELj16E13ReadWriteModevE3SetIS2_vEEvjEs
        PUBLIC _ZZN13RegisterFieldIN4SPI25CRCPRELj0ELj16E13ReadWriteModevE3SetIS2_vEEvjEs_0
        PUBLIC _ZZN13RegisterFieldIN6USART23BRRELj0ELj4E13ReadWriteModevE3SetIS2_vEEvjEs
        PUBLIC _ZZN13RegisterFieldIN6USART23BRRELj0ELj4E13ReadWriteModevE3SetIS2_vEEvjEs_0
        PUBLIC _ZZN13RegisterFieldIN6USART23BRRELj4ELj12E13ReadWriteModevE3SetIS2_vEEvjEs
        PUBLIC _ZZN13RegisterFieldIN6USART23BRRELj4ELj12E13ReadWriteModevE3SetIS2_vEEvjEs_0
        PUBLIC _ZZN15MeasurementTaskIL_Z5eventEE11UnitsUpdateEvE7counter
        PUBLIC _ZZN17DisplayUpdateTask7ExecuteEvEs
        PUBLIC _ZZN8RegisterILj1073873920ELj32E13ReadWriteModeN5GPIOB14GPIOBMODERBaseEJ10FieldValueI26GPIOB_MODER_MODER15_ValuesINS1_5MODERELj2ELj2ES0_S2_ES2_Lj1EvES3_IS4_IS5_Lj4ELj2ES0_S2_ES2_Lj1EvES3_IS4_IS5_Lj26ELj2ES0_S2_ES2_Lj2EvES3_IS4_IS5_Lj30ELj2ES0_S2_ES2_Lj2EvEEE3SetIS0_vEEvvE4mask
        PUBLIC _ZZN8RegisterILj1073873920ELj32E13ReadWriteModeN5GPIOB14GPIOBMODERBaseEJ10FieldValueI26GPIOB_MODER_MODER15_ValuesINS1_5MODERELj2ELj2ES0_S2_ES2_Lj1EvES3_IS4_IS5_Lj4ELj2ES0_S2_ES2_Lj1EvES3_IS4_IS5_Lj26ELj2ES0_S2_ES2_Lj2EvES3_IS4_IS5_Lj30ELj2ES0_S2_ES2_Lj2EvEEE3SetIS0_vEEvvE5value
        PUBLIC _ZZN8RegisterILj1073873920ELj32E13ReadWriteModeN5GPIOB14GPIOBMODERBaseEJ10FieldValueI26GPIOB_MODER_MODER15_ValuesINS1_5MODERELj6ELj2ES0_S2_ES2_Lj2EvES3_IS4_IS5_Lj8ELj2ES0_S2_ES2_Lj2EvES3_IS4_IS5_Lj10ELj2ES0_S2_ES2_Lj2EvES3_IS4_IS5_Lj20ELj2ES0_S2_ES2_Lj1EvEEE3SetIS0_vEEvvE4mask
        PUBLIC _ZZN8RegisterILj1073873920ELj32E13ReadWriteModeN5GPIOB14GPIOBMODERBaseEJ10FieldValueI26GPIOB_MODER_MODER15_ValuesINS1_5MODERELj6ELj2ES0_S2_ES2_Lj2EvES3_IS4_IS5_Lj8ELj2ES0_S2_ES2_Lj2EvES3_IS4_IS5_Lj10ELj2ES0_S2_ES2_Lj2EvES3_IS4_IS5_Lj20ELj2ES0_S2_ES2_Lj1EvEEE3SetIS0_vEEvvE5value
        PUBLIC _ZZN8RegisterILj1073873952ELj32E13ReadWriteModeN5GPIOB13GPIOBAFRLBaseEJ10FieldValueI23GPIOB_AFRL_AFRL7_ValuesINS1_4AFRLELj12ELj4ES0_S2_ES2_Lj5EvES3_IS4_IS5_Lj16ELj4ES0_S2_ES2_Lj5EvES3_IS4_IS5_Lj20ELj4ES0_S2_ES2_Lj5EvEEE3SetIS0_vEEvvE4mask
        PUBLIC _ZZN8RegisterILj1073873952ELj32E13ReadWriteModeN5GPIOB13GPIOBAFRLBaseEJ10FieldValueI23GPIOB_AFRL_AFRL7_ValuesINS1_4AFRLELj12ELj4ES0_S2_ES2_Lj5EvES3_IS4_IS5_Lj16ELj4ES0_S2_ES2_Lj5EvES3_IS4_IS5_Lj20ELj4ES0_S2_ES2_Lj5EvEEE3SetIS0_vEEvvE5value
        PUBLIC _ZZN8RegisterILj1073873956ELj32E13ReadWriteModeN5GPIOB13GPIOBAFRHBaseEJ10FieldValueI23GPIOB_AFRL_AFRL7_ValuesINS1_4AFRHELj20ELj4ES0_S2_ES2_Lj5EvES3_IS4_IS5_Lj28ELj4ES0_S2_ES2_Lj5EvEEE3SetIS0_vEEvvE4mask
        PUBLIC _ZZN8RegisterILj1073873956ELj32E13ReadWriteModeN5GPIOB13GPIOBAFRHBaseEJ10FieldValueI23GPIOB_AFRL_AFRL7_ValuesINS1_4AFRHELj20ELj4ES0_S2_ES2_Lj5EvES3_IS4_IS5_Lj28ELj4ES0_S2_ES2_Lj5EvEEE3SetIS0_vEEvvE5value
        PUBLIC _ZZN8RegisterILj1073874944ELj32E13ReadWriteModeN5GPIOC14GPIOCMODERBaseEJ10FieldValueI26GPIOC_MODER_MODER15_ValuesINS1_5MODERELj4ELj2ES0_S2_ES2_Lj0EvES3_IS4_IS5_Lj6ELj2ES0_S2_ES2_Lj1EvEEE3SetIS0_vEEvvE4mask
        PUBLIC _ZZN8RegisterILj1073874944ELj32E13ReadWriteModeN5GPIOC14GPIOCMODERBaseEJ10FieldValueI26GPIOC_MODER_MODER15_ValuesINS1_5MODERELj4ELj2ES0_S2_ES2_Lj0EvES3_IS4_IS5_Lj6ELj2ES0_S2_ES2_Lj1EvEEE3SetIS0_vEEvvE5value
        PUBLIC _ZZN8RegisterILj1073887280ELj32E13ReadWriteModeN3RCC14RCCAHB1ENRBaseEJ10FieldValueI26RCC_AHB1ENR_GPIOCEN_ValuesINS1_7AHB1ENRELj2ELj1ES0_S2_ES2_Lj1EvES3_I26RCC_AHB1ENR_GPIOBEN_ValuesIS5_Lj1ELj1ES0_S2_ES2_Lj1EvES3_I26RCC_AHB1ENR_GPIOAEN_ValuesIS5_Lj0ELj1ES0_S2_ES2_Lj1EvEEE3SetIS0_vEEvvE4mask
        PUBLIC _ZZN8RegisterILj1073887280ELj32E13ReadWriteModeN3RCC14RCCAHB1ENRBaseEJ10FieldValueI26RCC_AHB1ENR_GPIOCEN_ValuesINS1_7AHB1ENRELj2ELj1ES0_S2_ES2_Lj1EvES3_I26RCC_AHB1ENR_GPIOBEN_ValuesIS5_Lj1ELj1ES0_S2_ES2_Lj1EvES3_I26RCC_AHB1ENR_GPIOAEN_ValuesIS5_Lj0ELj1ES0_S2_ES2_Lj1EvEEE3SetIS0_vEEvvE5value
        PUBLIC _ZnwjPv
        PUBLIC __low_level_init
        PUBLIC bluetoothTask
        PUBLIC bluetoothTransceiver
        PUBLIC bme280
        PUBLIC buttonEventTask
        PUBLIC dewPoint
        PUBLIC display
        PUBLIC displayUpdateTask
        PUBLIC eInkDisplay
        PUBLIC event
        PUBLIC humidity
        PUBLIC main
        PUBLIC measurementTask
        PUBLIC measurements
        PUBLIC pressure
        PUBLIC screen
        PUBLIC spi1Transceiver
        PUBLIC spi2Transceiver
        PUBLIC temperature
        PUBLIC temperatureUnits
        PUBLIC userUnits
        
          CFI Names cfiNames0
          CFI StackFrame CFA R13 DATA
          CFI Resource R0:32, R1:32, R2:32, R3:32, R4:32, R5:32, R6:32, R7:32
          CFI Resource R8:32, R9:32, R10:32, R11:32, R12:32, R13:32, R14:32
          CFI Resource D0:64, D1:64, D2:64, D3:64, D4:64, D5:64, D6:64, D7:64
          CFI Resource D8:64, D9:64, D10:64, D11:64, D12:64, D13:64, D14:64
          CFI Resource D15:64
          CFI EndNames cfiNames0
        
          CFI Common cfiCommon0 Using cfiNames0
          CFI CodeAlign 2
          CFI DataAlign 4
          CFI ReturnAddress R14 CODE
          CFI CFA R13+0
          CFI R0 Undefined
          CFI R1 Undefined
          CFI R2 Undefined
          CFI R3 Undefined
          CFI R4 SameValue
          CFI R5 SameValue
          CFI R6 SameValue
          CFI R7 SameValue
          CFI R8 SameValue
          CFI R9 SameValue
          CFI R10 SameValue
          CFI R11 SameValue
          CFI R12 Undefined
          CFI R14 SameValue
          CFI D0 Undefined
          CFI D1 Undefined
          CFI D2 Undefined
          CFI D3 Undefined
          CFI D4 Undefined
          CFI D5 Undefined
          CFI D6 Undefined
          CFI D7 Undefined
          CFI D8 SameValue
          CFI D9 SameValue
          CFI D10 SameValue
          CFI D11 SameValue
          CFI D12 SameValue
          CFI D13 SameValue
          CFI D14 SameValue
          CFI D15 SameValue
          CFI EndCommon cfiCommon0
        

        SECTION `.rodata`:CONST:REORDER:NOROOT(2)
        SECTION_GROUP _ZTIN9OsWrapper7IThreadE
        DATA
// __absolute __class_type_info const <Typeinfo for OsWrapper::IThread>
_ZTIN9OsWrapper7IThreadE:
        DATA32
        DC32 _ZTVN10__cxxabiv117__class_type_infoE + 0x8
        DC32 _ZTSN9OsWrapper7IThreadE

        SECTION `.rodata`:CONST:REORDER:NOROOT(2)
        SECTION_GROUP _ZTV11Measurement
        DATA
// __absolute void (*const Measurement::__vtbl[4])()
_ZTV11Measurement:
        DATA32
        DC32 0x0, _ZTI11Measurement, _ZN11Measurement8GetValueEv
        DC32 _ZN11Measurement8GetValueE4Unit

        SECTION `.rodata`:CONST:REORDER:NOROOT(2)
        SECTION_GROUP _ZZN11MeasurementC1ESsP4UnitjS0_PFdvEEs_0
        DATA
// __absolute char const <_ZZN11MeasurementC1ESsP4UnitjS0_PFdvEEs_0>[71]
_ZZN11MeasurementC1ESsP4UnitjS0_PFdvEEs_0:
        DATA8
        DC8 0x43, 0x68, 0x65, 0x63, 0x6B, 0x55, 0x6E, 0x69
        DC8 0x74, 0x28, 0x64, 0x65, 0x66, 0x61, 0x75, 0x6C
        DC8 0x74, 0x55, 0x6E, 0x69, 0x74, 0x29, 0x20, 0x26
        DC8 0x26, 0x22, 0x20, 0x64, 0x65, 0x66, 0x61, 0x6C
        DC8 0x74, 0x20, 0x75, 0x6E, 0x69, 0x74, 0x20, 0x6D
        DC8 0x75, 0x73, 0x74, 0x20, 0x6D, 0x61, 0x74, 0x63
        DC8 0x68, 0x20, 0x6D, 0x65, 0x61, 0x73, 0x75, 0x72
        DC8 0x65, 0x6D, 0x65, 0x6E, 0x74, 0x27, 0x73, 0x20
        DC8 0x75, 0x6E, 0x69, 0x74, 0x73, 0x22, 0
        DC8 0

        SECTION `.rodata`:CONST:REORDER:NOROOT(2)
        SECTION_GROUP _ZZN11MeasurementC1ESsP4UnitjS0_PFdvEEs_1
        DATA
// __absolute char const <_ZZN11MeasurementC1ESsP4UnitjS0_PFdvEEs_1>[114]
_ZZN11MeasurementC1ESsP4UnitjS0_PFdvEEs_1:
        DATA8
        DC8 0x44, 0x3A, 0x5C, 0x4E, 0x69, 0x6B, 0x6F, 0x6C
        DC8 0x61, 0x6F, 0x73, 0x5C, 0x4D, 0x79, 0x20, 0x44
        DC8 0x6F, 0x63, 0x75, 0x6D, 0x65, 0x6E, 0x74, 0x73
        DC8 0x5C, 0x49, 0x41, 0x52, 0x20, 0x70, 0x72, 0x6F
        DC8 0x6A, 0x65, 0x63, 0x74, 0x73, 0x5C, 0x43, 0x6F
        DC8 0x75, 0x72, 0x73, 0x65, 0x57, 0x6F, 0x72, 0x6B
        DC8 0x2D, 0x6D, 0x61, 0x69, 0x6E, 0x32, 0x5C, 0x43
        DC8 0x6F, 0x75, 0x72, 0x73, 0x65, 0x57, 0x6F, 0x72
        DC8 0x6B, 0x49, 0x41, 0x52, 0x70, 0x72, 0x6F, 0x6A
        DC8 0x65, 0x63, 0x74, 0x5C, 0x41, 0x70, 0x70, 0x6C
        DC8 0x69, 0x63, 0x61, 0x74, 0x69, 0x6F, 0x6E, 0x5C
        DC8 0x4D, 0x65, 0x61, 0x73, 0x75, 0x72, 0x65, 0x6D
        DC8 0x65, 0x6E, 0x74, 0x5C, 0x4D, 0x65, 0x61, 0x73
        DC8 0x75, 0x72, 0x65, 0x6D, 0x65, 0x6E, 0x74, 0x2E
        DC8 0x68, 0
        DATA16
        DC8 0, 0

        SECTION `.rodata`:CONST:REORDER:NOROOT(2)
        SECTION_GROUP _ZZN11Measurement8GetValueE4UnitEs_0
        DATA
// __absolute char const <_ZZN11Measurement8GetValueE4UnitEs_0>[63]
_ZZN11Measurement8GetValueE4UnitEs_0:
        DATA8
        DC8 0x43, 0x68, 0x65, 0x63, 0x6B, 0x55, 0x6E, 0x69
        DC8 0x74, 0x28, 0x75, 0x6E, 0x69, 0x74, 0x29, 0x26
        DC8 0x26, 0x22, 0x20, 0x64, 0x65, 0x66, 0x61, 0x6C
        DC8 0x74, 0x20, 0x75, 0x6E, 0x69, 0x74, 0x20, 0x6D
        DC8 0x75, 0x73, 0x74, 0x20, 0x6D, 0x61, 0x74, 0x63
        DC8 0x68, 0x20, 0x6D, 0x65, 0x61, 0x73, 0x75, 0x72
        DC8 0x65, 0x6D, 0x65, 0x6E, 0x74, 0x27, 0x73, 0x20
        DC8 0x75, 0x6E, 0x69, 0x74, 0x73, 0x22, 0
        DC8 0

        SECTION `.rodata`:CONST:REORDER:NOROOT(2)
        SECTION_GROUP _ZZN11Measurement8GetValueE4UnitEs_1
        DATA
// __absolute char const <_ZZN11Measurement8GetValueE4UnitEs_1>[114]
_ZZN11Measurement8GetValueE4UnitEs_1:
        DATA8
        DC8 0x44, 0x3A, 0x5C, 0x4E, 0x69, 0x6B, 0x6F, 0x6C
        DC8 0x61, 0x6F, 0x73, 0x5C, 0x4D, 0x79, 0x20, 0x44
        DC8 0x6F, 0x63, 0x75, 0x6D, 0x65, 0x6E, 0x74, 0x73
        DC8 0x5C, 0x49, 0x41, 0x52, 0x20, 0x70, 0x72, 0x6F
        DC8 0x6A, 0x65, 0x63, 0x74, 0x73, 0x5C, 0x43, 0x6F
        DC8 0x75, 0x72, 0x73, 0x65, 0x57, 0x6F, 0x72, 0x6B
        DC8 0x2D, 0x6D, 0x61, 0x69, 0x6E, 0x32, 0x5C, 0x43
        DC8 0x6F, 0x75, 0x72, 0x73, 0x65, 0x57, 0x6F, 0x72
        DC8 0x6B, 0x49, 0x41, 0x52, 0x70, 0x72, 0x6F, 0x6A
        DC8 0x65, 0x63, 0x74, 0x5C, 0x41, 0x70, 0x70, 0x6C
        DC8 0x69, 0x63, 0x61, 0x74, 0x69, 0x6F, 0x6E, 0x5C
        DC8 0x4D, 0x65, 0x61, 0x73, 0x75, 0x72, 0x65, 0x6D
        DC8 0x65, 0x6E, 0x74, 0x5C, 0x4D, 0x65, 0x61, 0x73
        DC8 0x75, 0x72, 0x65, 0x6D, 0x65, 0x6E, 0x74, 0x2E
        DC8 0x68, 0
        DATA16
        DC8 0, 0

        SECTION `.rodata`:CONST:REORDER:NOROOT(1)
        SECTION_GROUP _ZZN11Measurement12ShowUnitNameE4UnitEs
        DATA
// __absolute char const <_ZZN11Measurement12ShowUnitNameE4UnitEs>[2]
_ZZN11Measurement12ShowUnitNameE4UnitEs:
        DATA8
        DC8 "K"

        SECTION `.rodata`:CONST:REORDER:NOROOT(1)
        SECTION_GROUP _ZZN11Measurement12ShowUnitNameE4UnitEs_0
        DATA
// __absolute char const <_ZZN11Measurement12ShowUnitNameE4UnitEs_0>[2]
_ZZN11Measurement12ShowUnitNameE4UnitEs_0:
        DATA8
        DC8 "F"

        SECTION `.rodata`:CONST:REORDER:NOROOT(1)
        SECTION_GROUP _ZZN11Measurement12ShowUnitNameE4UnitEs_1
        DATA
// __absolute char const <_ZZN11Measurement12ShowUnitNameE4UnitEs_1>[2]
_ZZN11Measurement12ShowUnitNameE4UnitEs_1:
        DATA8
        DC8 "C"

        SECTION `.rodata`:CONST:REORDER:NOROOT(2)
        SECTION_GROUP _ZZN11Measurement12ShowUnitNameE4UnitEs_2
        DATA
// __absolute char const <_ZZN11Measurement12ShowUnitNameE4UnitEs_2>[4]
_ZZN11Measurement12ShowUnitNameE4UnitEs_2:
        DATA8
        DC8 "hPa"

        SECTION `.rodata`:CONST:REORDER:NOROOT(1)
        SECTION_GROUP _ZZN11Measurement12ShowUnitNameE4UnitEs_3
        DATA
// __absolute char const <_ZZN11Measurement12ShowUnitNameE4UnitEs_3>[2]
_ZZN11Measurement12ShowUnitNameE4UnitEs_3:
        DATA8
        DC8 "%"

        SECTION `.rodata`:CONST:REORDER:NOROOT(2)
        SECTION_GROUP _ZZN11Measurement12ShowUnitNameE4UnitEs_5
        DATA
// __absolute char const <_ZZN11Measurement12ShowUnitNameE4UnitEs_5>[47]
_ZZN11Measurement12ShowUnitNameE4UnitEs_5:
        DATA8
        DC8 "false &&\" unit must match measurement's units\""
        DC8 0

        SECTION `.rodata`:CONST:REORDER:NOROOT(2)
        SECTION_GROUP _ZZN11Measurement12ShowUnitNameE4UnitEs_6
        DATA
// __absolute char const <_ZZN11Measurement12ShowUnitNameE4UnitEs_6>[114]
_ZZN11Measurement12ShowUnitNameE4UnitEs_6:
        DATA8
        DC8 0x44, 0x3A, 0x5C, 0x4E, 0x69, 0x6B, 0x6F, 0x6C
        DC8 0x61, 0x6F, 0x73, 0x5C, 0x4D, 0x79, 0x20, 0x44
        DC8 0x6F, 0x63, 0x75, 0x6D, 0x65, 0x6E, 0x74, 0x73
        DC8 0x5C, 0x49, 0x41, 0x52, 0x20, 0x70, 0x72, 0x6F
        DC8 0x6A, 0x65, 0x63, 0x74, 0x73, 0x5C, 0x43, 0x6F
        DC8 0x75, 0x72, 0x73, 0x65, 0x57, 0x6F, 0x72, 0x6B
        DC8 0x2D, 0x6D, 0x61, 0x69, 0x6E, 0x32, 0x5C, 0x43
        DC8 0x6F, 0x75, 0x72, 0x73, 0x65, 0x57, 0x6F, 0x72
        DC8 0x6B, 0x49, 0x41, 0x52, 0x70, 0x72, 0x6F, 0x6A
        DC8 0x65, 0x63, 0x74, 0x5C, 0x41, 0x70, 0x70, 0x6C
        DC8 0x69, 0x63, 0x61, 0x74, 0x69, 0x6F, 0x6E, 0x5C
        DC8 0x4D, 0x65, 0x61, 0x73, 0x75, 0x72, 0x65, 0x6D
        DC8 0x65, 0x6E, 0x74, 0x5C, 0x4D, 0x65, 0x61, 0x73
        DC8 0x75, 0x72, 0x65, 0x6D, 0x65, 0x6E, 0x74, 0x2E
        DC8 0x68, 0
        DATA16
        DC8 0, 0

        SECTION `.rodata`:CONST:REORDER:NOROOT(2)
        SECTION_GROUP _ZTV11Temperature
        DATA
// __absolute void (*const Temperature::__vtbl[4])()
_ZTV11Temperature:
        DATA32
        DC32 0x0, _ZTI11Temperature, _ZN11Temperature8GetValueEv
        DC32 _ZN11Temperature8GetValueE4Unit

        SECTION `.rodata`:CONST:REORDER:NOROOT(2)
        SECTION_GROUP _ZTI11Temperature
        DATA
// __absolute __si_class_type_info const <Typeinfo for Temperature>
_ZTI11Temperature:
        DATA32
        DC32 _ZTVN10__cxxabiv120__si_class_type_infoE + 0x8, _ZTS11Temperature
        DC32 _ZTI11Measurement

        SECTION `.rodata`:CONST:REORDER:NOROOT(2)
        SECTION_GROUP _ZZN11Temperature8GetValueE4UnitEs_0
        DATA
// __absolute char const <_ZZN11Temperature8GetValueE4UnitEs_0>[46]
_ZZN11Temperature8GetValueE4UnitEs_0:
        DATA8
        DC8 "false &&\"unit must match measurement's units\""
        DATA16
        DC8 0, 0

        SECTION `.rodata`:CONST:REORDER:NOROOT(2)
        SECTION_GROUP _ZZN11Temperature8GetValueE4UnitEs_1
        DATA
// __absolute char const <_ZZN11Temperature8GetValueE4UnitEs_1>[114]
_ZZN11Temperature8GetValueE4UnitEs_1:
        DATA8
        DC8 0x44, 0x3A, 0x5C, 0x4E, 0x69, 0x6B, 0x6F, 0x6C
        DC8 0x61, 0x6F, 0x73, 0x5C, 0x4D, 0x79, 0x20, 0x44
        DC8 0x6F, 0x63, 0x75, 0x6D, 0x65, 0x6E, 0x74, 0x73
        DC8 0x5C, 0x49, 0x41, 0x52, 0x20, 0x70, 0x72, 0x6F
        DC8 0x6A, 0x65, 0x63, 0x74, 0x73, 0x5C, 0x43, 0x6F
        DC8 0x75, 0x72, 0x73, 0x65, 0x57, 0x6F, 0x72, 0x6B
        DC8 0x2D, 0x6D, 0x61, 0x69, 0x6E, 0x32, 0x5C, 0x43
        DC8 0x6F, 0x75, 0x72, 0x73, 0x65, 0x57, 0x6F, 0x72
        DC8 0x6B, 0x49, 0x41, 0x52, 0x70, 0x72, 0x6F, 0x6A
        DC8 0x65, 0x63, 0x74, 0x5C, 0x41, 0x70, 0x70, 0x6C
        DC8 0x69, 0x63, 0x61, 0x74, 0x69, 0x6F, 0x6E, 0x5C
        DC8 0x4D, 0x65, 0x61, 0x73, 0x75, 0x72, 0x65, 0x6D
        DC8 0x65, 0x6E, 0x74, 0x5C, 0x54, 0x65, 0x6D, 0x70
        DC8 0x65, 0x72, 0x61, 0x74, 0x75, 0x72, 0x65, 0x2E
        DC8 0x68, 0
        DATA16
        DC8 0, 0

        SECTION `.rodata`:CONST:REORDER:NOROOT(2)
        SECTION_GROUP _ZTV13BluetoothTask
        DATA
// __absolute void (*const BluetoothTask::__vtbl[3])()
_ZTV13BluetoothTask:
        DATA32
        DC32 0x0, _ZTI13BluetoothTask, _ZN13BluetoothTask7ExecuteEv

        SECTION `.rodata`:CONST:REORDER:NOROOT(2)
        SECTION_GROUP _ZZN13BluetoothTask7ExecuteEvEs
        DATA
// __absolute char const <_ZZN13BluetoothTask7ExecuteEvEs>[19]
_ZZN13BluetoothTask7ExecuteEvEs:
        DATA8
        DC8 "%11s : %5.2f %5s \012"
        DC8 0

        SECTION `.rodata`:CONST:REORDER:NOROOT(2)
        SECTION_GROUP _ZTI11Measurement
        DATA
// __absolute __class_type_info const <Typeinfo for Measurement>
_ZTI11Measurement:
        DATA32
        DC32 _ZTVN10__cxxabiv117__class_type_infoE + 0x8, _ZTS11Measurement

        SECTION `.rodata`:CONST:REORDER:NOROOT(2)
        SECTION_GROUP _ZTV17DisplayUpdateTask
        DATA
// __absolute void (*const DisplayUpdateTask::__vtbl[3])()
_ZTV17DisplayUpdateTask:
        DATA32
        DC32 0x0, _ZTI17DisplayUpdateTask, _ZN17DisplayUpdateTask7ExecuteEv

        SECTION `.rodata`:CONST:REORDER:NOROOT(2)
        SECTION_GROUP _ZZN12ScreenDriverILt400ELt300EE8SetPixelE5Point5ColorEs
        DATA
// __absolute char const <_ZZN12ScreenDriverILt400ELt300EE8SetPixelE5Point5ColorEs>[42]
_ZZN12ScreenDriverILt400ELt300EE8SetPixelE5Point5ColorEs:
        DATA8
        DC8 "(point.x <= width) && (point.y <= height)"
        DATA16
        DC8 0, 0

        SECTION `.rodata`:CONST:REORDER:NOROOT(2)
        SECTION_GROUP _ZZN12ScreenDriverILt400ELt300EE8SetPixelE5Point5ColorEs_0
        DATA
// __absolute char const <_ZZN12ScreenDriverILt400ELt300EE8SetPixelE5Point5ColorEs_0>[107]
_ZZN12ScreenDriverILt400ELt300EE8SetPixelE5Point5ColorEs_0:
        DATA8
        DC8 0x44, 0x3A, 0x5C, 0x4E, 0x69, 0x6B, 0x6F, 0x6C
        DC8 0x61, 0x6F, 0x73, 0x5C, 0x4D, 0x79, 0x20, 0x44
        DC8 0x6F, 0x63, 0x75, 0x6D, 0x65, 0x6E, 0x74, 0x73
        DC8 0x5C, 0x49, 0x41, 0x52, 0x20, 0x70, 0x72, 0x6F
        DC8 0x6A, 0x65, 0x63, 0x74, 0x73, 0x5C, 0x43, 0x6F
        DC8 0x75, 0x72, 0x73, 0x65, 0x57, 0x6F, 0x72, 0x6B
        DC8 0x2D, 0x6D, 0x61, 0x69, 0x6E, 0x32, 0x5C, 0x43
        DC8 0x6F, 0x75, 0x72, 0x73, 0x65, 0x57, 0x6F, 0x72
        DC8 0x6B, 0x49, 0x41, 0x52, 0x70, 0x72, 0x6F, 0x6A
        DC8 0x65, 0x63, 0x74, 0x5C, 0x41, 0x70, 0x70, 0x6C
        DC8 0x69, 0x63, 0x61, 0x74, 0x69, 0x6F, 0x6E, 0x5C
        DC8 0x47, 0x55, 0x49, 0x5C, 0x53, 0x63, 0x72, 0x65
        DC8 0x65, 0x6E, 0x44, 0x72, 0x69, 0x76, 0x65, 0x72
        DC8 0x2E, 0x68, 0
        DC8 0

        SECTION `.rodata`:CONST:REORDER:NOROOT(2)
        SECTION_GROUP _ZZN12ScreenDriverILt400ELt300EE12ClearWindowsE5PointS1_5ColorEs
        DATA
// __absolute char const <_ZZN12ScreenDriverILt400ELt300EE12ClearWindowsE5PointS1_5ColorEs>[48]
_ZZN12ScreenDriverILt400ELt300EE12ClearWindowsE5PointS1_5ColorEs:
        DATA8
        DC8 "(endPoint.x <= width) && (endPoint.y <= height)"

        SECTION `.rodata`:CONST:REORDER:NOROOT(2)
        SECTION_GROUP _ZZN12ScreenDriverILt400ELt300EE12ClearWindowsE5PointS1_5ColorEs_0
        DATA
// __absolute char const <_ZZN12ScreenDriverILt400ELt300EE12ClearWindowsE5PointS1_5ColorEs_0>[107]
_ZZN12ScreenDriverILt400ELt300EE12ClearWindowsE5PointS1_5ColorEs_0:
        DATA8
        DC8 0x44, 0x3A, 0x5C, 0x4E, 0x69, 0x6B, 0x6F, 0x6C
        DC8 0x61, 0x6F, 0x73, 0x5C, 0x4D, 0x79, 0x20, 0x44
        DC8 0x6F, 0x63, 0x75, 0x6D, 0x65, 0x6E, 0x74, 0x73
        DC8 0x5C, 0x49, 0x41, 0x52, 0x20, 0x70, 0x72, 0x6F
        DC8 0x6A, 0x65, 0x63, 0x74, 0x73, 0x5C, 0x43, 0x6F
        DC8 0x75, 0x72, 0x73, 0x65, 0x57, 0x6F, 0x72, 0x6B
        DC8 0x2D, 0x6D, 0x61, 0x69, 0x6E, 0x32, 0x5C, 0x43
        DC8 0x6F, 0x75, 0x72, 0x73, 0x65, 0x57, 0x6F, 0x72
        DC8 0x6B, 0x49, 0x41, 0x52, 0x70, 0x72, 0x6F, 0x6A
        DC8 0x65, 0x63, 0x74, 0x5C, 0x41, 0x70, 0x70, 0x6C
        DC8 0x69, 0x63, 0x61, 0x74, 0x69, 0x6F, 0x6E, 0x5C
        DC8 0x47, 0x55, 0x49, 0x5C, 0x53, 0x63, 0x72, 0x65
        DC8 0x65, 0x6E, 0x44, 0x72, 0x69, 0x76, 0x65, 0x72
        DC8 0x2E, 0x68, 0
        DC8 0

        SECTION `.rodata`:CONST:REORDER:NOROOT(2)
        SECTION_GROUP _ZZN12ScreenDriverILt400ELt300EE8DrawCharE5PointcEs
        DATA
// __absolute char const <_ZZN12ScreenDriverILt400ELt300EE8DrawCharE5PointcEs>[42]
_ZZN12ScreenDriverILt400ELt300EE8DrawCharE5PointcEs:
        DATA8
        DC8 "(point.x <= width) && (point.y <= height)"
        DATA16
        DC8 0, 0

        SECTION `.rodata`:CONST:REORDER:NOROOT(2)
        SECTION_GROUP _ZZN12ScreenDriverILt400ELt300EE8DrawCharE5PointcEs_0
        DATA
// __absolute char const <_ZZN12ScreenDriverILt400ELt300EE8DrawCharE5PointcEs_0>[107]
_ZZN12ScreenDriverILt400ELt300EE8DrawCharE5PointcEs_0:
        DATA8
        DC8 0x44, 0x3A, 0x5C, 0x4E, 0x69, 0x6B, 0x6F, 0x6C
        DC8 0x61, 0x6F, 0x73, 0x5C, 0x4D, 0x79, 0x20, 0x44
        DC8 0x6F, 0x63, 0x75, 0x6D, 0x65, 0x6E, 0x74, 0x73
        DC8 0x5C, 0x49, 0x41, 0x52, 0x20, 0x70, 0x72, 0x6F
        DC8 0x6A, 0x65, 0x63, 0x74, 0x73, 0x5C, 0x43, 0x6F
        DC8 0x75, 0x72, 0x73, 0x65, 0x57, 0x6F, 0x72, 0x6B
        DC8 0x2D, 0x6D, 0x61, 0x69, 0x6E, 0x32, 0x5C, 0x43
        DC8 0x6F, 0x75, 0x72, 0x73, 0x65, 0x57, 0x6F, 0x72
        DC8 0x6B, 0x49, 0x41, 0x52, 0x70, 0x72, 0x6F, 0x6A
        DC8 0x65, 0x63, 0x74, 0x5C, 0x41, 0x70, 0x70, 0x6C
        DC8 0x69, 0x63, 0x61, 0x74, 0x69, 0x6F, 0x6E, 0x5C
        DC8 0x47, 0x55, 0x49, 0x5C, 0x53, 0x63, 0x72, 0x65
        DC8 0x65, 0x6E, 0x44, 0x72, 0x69, 0x76, 0x65, 0x72
        DC8 0x2E, 0x68, 0
        DC8 0

        SECTION `.rodata`:CONST:REORDER:NOROOT(2)
        SECTION_GROUP _ZZN17DisplayUpdateTask7ExecuteEvEs
        DATA
// __absolute char const <_ZZN17DisplayUpdateTask7ExecuteEvEs>[13]
_ZZN17DisplayUpdateTask7ExecuteEvEs:
        DATA8
        DC8 "%11s : %3.2f"
        DATA
        DC8 0, 0, 0

        SECTION `.rodata`:CONST:REORDER:NOROOT(2)
        SECTION_GROUP _ZZN13RegisterFieldIN6USART23BRRELj4ELj12E13ReadWriteModevE3SetIS2_vEEvjEs
        DATA
// __absolute char const <_ZZN13RegisterFieldIN6USART23BRRELj4ELj12E13ReadWriteModevE3SetIS2_vEEvjEs>[156]
_ZZN13RegisterFieldIN6USART23BRRELj4ELj12E13ReadWriteModevE3SetIS2_vEEvjEs:
        DATA8
        DC8 0x28, 0x73, 0x69, 0x7A, 0x65, 0x20, 0x3C, 0x20
        DC8 0x73, 0x69, 0x7A, 0x65, 0x6F, 0x66, 0x28, 0x52
        DC8 0x65, 0x67, 0x54, 0x79, 0x70, 0x65, 0x29, 0x20
        DC8 0x2A, 0x20, 0x38, 0x55, 0x29, 0x20, 0x3F, 0x20
        DC8 0x28, 0x76, 0x61, 0x6C, 0x75, 0x65, 0x20, 0x3C
        DC8 0x3D, 0x20, 0x28, 0x28, 0x73, 0x74, 0x61, 0x74
        DC8 0x69, 0x63, 0x5F, 0x63, 0x61, 0x73, 0x74, 0x3C
        DC8 0x52, 0x65, 0x67, 0x54, 0x79, 0x70, 0x65, 0x3E
        DC8 0x28, 0x31, 0x55, 0x29, 0x20, 0x3C, 0x3C, 0x20
        DC8 0x73, 0x69, 0x7A, 0x65, 0x29, 0x20, 0x2D, 0x20
        DC8 0x73, 0x74, 0x61, 0x74, 0x69, 0x63, 0x5F, 0x63
        DC8 0x61, 0x73, 0x74, 0x3C, 0x52, 0x65, 0x67, 0x54
        DC8 0x79, 0x70, 0x65, 0x3E, 0x28, 0x31, 0x55, 0x29
        DC8 0x29, 0x29, 0x20, 0x3A, 0x20, 0x28, 0x76, 0x61
        DC8 0x6C, 0x75, 0x65, 0x20, 0x3C, 0x3D, 0x20, 0x73
        DC8 0x74, 0x64, 0x3A, 0x3A, 0x6E, 0x75, 0x6D, 0x65
        DC8 0x72, 0x69, 0x63, 0x5F, 0x6C, 0x69, 0x6D, 0x69
        DC8 0x74, 0x73, 0x3C, 0x52, 0x65, 0x67, 0x54, 0x79
        DC8 0x70, 0x65, 0x3E, 0x3A, 0x3A, 0x6D, 0x61, 0x78
        DC8 0x28, 0x29, 0x29, 0

        SECTION `.rodata`:CONST:REORDER:NOROOT(2)
        SECTION_GROUP _ZZN13RegisterFieldIN6USART23BRRELj4ELj12E13ReadWriteModevE3SetIS2_vEEvjEs_0
        DATA
// __absolute char const <_ZZN13RegisterFieldIN6USART23BRRELj4ELj12E13ReadWriteModevE3SetIS2_vEEvjEs_0>[114]
_ZZN13RegisterFieldIN6USART23BRRELj4ELj12E13ReadWriteModevE3SetIS2_vEEvjEs_0:
        DATA8
        DC8 0x44, 0x3A, 0x5C, 0x4E, 0x69, 0x6B, 0x6F, 0x6C
        DC8 0x61, 0x6F, 0x73, 0x5C, 0x4D, 0x79, 0x20, 0x44
        DC8 0x6F, 0x63, 0x75, 0x6D, 0x65, 0x6E, 0x74, 0x73
        DC8 0x5C, 0x49, 0x41, 0x52, 0x20, 0x70, 0x72, 0x6F
        DC8 0x6A, 0x65, 0x63, 0x74, 0x73, 0x5C, 0x43, 0x6F
        DC8 0x75, 0x72, 0x73, 0x65, 0x57, 0x6F, 0x72, 0x6B
        DC8 0x2D, 0x6D, 0x61, 0x69, 0x6E, 0x32, 0x5C, 0x43
        DC8 0x6F, 0x75, 0x72, 0x73, 0x65, 0x57, 0x6F, 0x72
        DC8 0x6B, 0x49, 0x41, 0x52, 0x70, 0x72, 0x6F, 0x6A
        DC8 0x65, 0x63, 0x74, 0x5C, 0x41, 0x48, 0x61, 0x72
        DC8 0x64, 0x77, 0x61, 0x72, 0x65, 0x5C, 0x52, 0x65
        DC8 0x67, 0x69, 0x73, 0x74, 0x65, 0x72, 0x73, 0x5C
        DC8 0x72, 0x65, 0x67, 0x69, 0x73, 0x74, 0x65, 0x72
        DC8 0x66, 0x69, 0x65, 0x6C, 0x64, 0x2E, 0x68, 0x70
        DC8 0x70, 0
        DATA16
        DC8 0, 0

        SECTION `.rodata`:CONST:REORDER:NOROOT(2)
        SECTION_GROUP _ZZN13RegisterFieldIN6USART23BRRELj0ELj4E13ReadWriteModevE3SetIS2_vEEvjEs
        DATA
// __absolute char const <_ZZN13RegisterFieldIN6USART23BRRELj0ELj4E13ReadWriteModevE3SetIS2_vEEvjEs>[156]
_ZZN13RegisterFieldIN6USART23BRRELj0ELj4E13ReadWriteModevE3SetIS2_vEEvjEs:
        DATA8
        DC8 0x28, 0x73, 0x69, 0x7A, 0x65, 0x20, 0x3C, 0x20
        DC8 0x73, 0x69, 0x7A, 0x65, 0x6F, 0x66, 0x28, 0x52
        DC8 0x65, 0x67, 0x54, 0x79, 0x70, 0x65, 0x29, 0x20
        DC8 0x2A, 0x20, 0x38, 0x55, 0x29, 0x20, 0x3F, 0x20
        DC8 0x28, 0x76, 0x61, 0x6C, 0x75, 0x65, 0x20, 0x3C
        DC8 0x3D, 0x20, 0x28, 0x28, 0x73, 0x74, 0x61, 0x74
        DC8 0x69, 0x63, 0x5F, 0x63, 0x61, 0x73, 0x74, 0x3C
        DC8 0x52, 0x65, 0x67, 0x54, 0x79, 0x70, 0x65, 0x3E
        DC8 0x28, 0x31, 0x55, 0x29, 0x20, 0x3C, 0x3C, 0x20
        DC8 0x73, 0x69, 0x7A, 0x65, 0x29, 0x20, 0x2D, 0x20
        DC8 0x73, 0x74, 0x61, 0x74, 0x69, 0x63, 0x5F, 0x63
        DC8 0x61, 0x73, 0x74, 0x3C, 0x52, 0x65, 0x67, 0x54
        DC8 0x79, 0x70, 0x65, 0x3E, 0x28, 0x31, 0x55, 0x29
        DC8 0x29, 0x29, 0x20, 0x3A, 0x20, 0x28, 0x76, 0x61
        DC8 0x6C, 0x75, 0x65, 0x20, 0x3C, 0x3D, 0x20, 0x73
        DC8 0x74, 0x64, 0x3A, 0x3A, 0x6E, 0x75, 0x6D, 0x65
        DC8 0x72, 0x69, 0x63, 0x5F, 0x6C, 0x69, 0x6D, 0x69
        DC8 0x74, 0x73, 0x3C, 0x52, 0x65, 0x67, 0x54, 0x79
        DC8 0x70, 0x65, 0x3E, 0x3A, 0x3A, 0x6D, 0x61, 0x78
        DC8 0x28, 0x29, 0x29, 0

        SECTION `.rodata`:CONST:REORDER:NOROOT(2)
        SECTION_GROUP _ZZN13RegisterFieldIN6USART23BRRELj0ELj4E13ReadWriteModevE3SetIS2_vEEvjEs_0
        DATA
// __absolute char const <_ZZN13RegisterFieldIN6USART23BRRELj0ELj4E13ReadWriteModevE3SetIS2_vEEvjEs_0>[114]
_ZZN13RegisterFieldIN6USART23BRRELj0ELj4E13ReadWriteModevE3SetIS2_vEEvjEs_0:
        DATA8
        DC8 0x44, 0x3A, 0x5C, 0x4E, 0x69, 0x6B, 0x6F, 0x6C
        DC8 0x61, 0x6F, 0x73, 0x5C, 0x4D, 0x79, 0x20, 0x44
        DC8 0x6F, 0x63, 0x75, 0x6D, 0x65, 0x6E, 0x74, 0x73
        DC8 0x5C, 0x49, 0x41, 0x52, 0x20, 0x70, 0x72, 0x6F
        DC8 0x6A, 0x65, 0x63, 0x74, 0x73, 0x5C, 0x43, 0x6F
        DC8 0x75, 0x72, 0x73, 0x65, 0x57, 0x6F, 0x72, 0x6B
        DC8 0x2D, 0x6D, 0x61, 0x69, 0x6E, 0x32, 0x5C, 0x43
        DC8 0x6F, 0x75, 0x72, 0x73, 0x65, 0x57, 0x6F, 0x72
        DC8 0x6B, 0x49, 0x41, 0x52, 0x70, 0x72, 0x6F, 0x6A
        DC8 0x65, 0x63, 0x74, 0x5C, 0x41, 0x48, 0x61, 0x72
        DC8 0x64, 0x77, 0x61, 0x72, 0x65, 0x5C, 0x52, 0x65
        DC8 0x67, 0x69, 0x73, 0x74, 0x65, 0x72, 0x73, 0x5C
        DC8 0x72, 0x65, 0x67, 0x69, 0x73, 0x74, 0x65, 0x72
        DC8 0x66, 0x69, 0x65, 0x6C, 0x64, 0x2E, 0x68, 0x70
        DC8 0x70, 0
        DATA16
        DC8 0, 0

        SECTION `.rodata`:CONST:REORDER:NOROOT(2)
        SECTION_GROUP _ZZN13RegisterFieldIN4SPI25CRCPRELj0ELj16E13ReadWriteModevE3SetIS2_vEEvjEs
        DATA
// __absolute char const <_ZZN13RegisterFieldIN4SPI25CRCPRELj0ELj16E13ReadWriteModevE3SetIS2_vEEvjEs>[156]
_ZZN13RegisterFieldIN4SPI25CRCPRELj0ELj16E13ReadWriteModevE3SetIS2_vEEvjEs:
        DATA8
        DC8 0x28, 0x73, 0x69, 0x7A, 0x65, 0x20, 0x3C, 0x20
        DC8 0x73, 0x69, 0x7A, 0x65, 0x6F, 0x66, 0x28, 0x52
        DC8 0x65, 0x67, 0x54, 0x79, 0x70, 0x65, 0x29, 0x20
        DC8 0x2A, 0x20, 0x38, 0x55, 0x29, 0x20, 0x3F, 0x20
        DC8 0x28, 0x76, 0x61, 0x6C, 0x75, 0x65, 0x20, 0x3C
        DC8 0x3D, 0x20, 0x28, 0x28, 0x73, 0x74, 0x61, 0x74
        DC8 0x69, 0x63, 0x5F, 0x63, 0x61, 0x73, 0x74, 0x3C
        DC8 0x52, 0x65, 0x67, 0x54, 0x79, 0x70, 0x65, 0x3E
        DC8 0x28, 0x31, 0x55, 0x29, 0x20, 0x3C, 0x3C, 0x20
        DC8 0x73, 0x69, 0x7A, 0x65, 0x29, 0x20, 0x2D, 0x20
        DC8 0x73, 0x74, 0x61, 0x74, 0x69, 0x63, 0x5F, 0x63
        DC8 0x61, 0x73, 0x74, 0x3C, 0x52, 0x65, 0x67, 0x54
        DC8 0x79, 0x70, 0x65, 0x3E, 0x28, 0x31, 0x55, 0x29
        DC8 0x29, 0x29, 0x20, 0x3A, 0x20, 0x28, 0x76, 0x61
        DC8 0x6C, 0x75, 0x65, 0x20, 0x3C, 0x3D, 0x20, 0x73
        DC8 0x74, 0x64, 0x3A, 0x3A, 0x6E, 0x75, 0x6D, 0x65
        DC8 0x72, 0x69, 0x63, 0x5F, 0x6C, 0x69, 0x6D, 0x69
        DC8 0x74, 0x73, 0x3C, 0x52, 0x65, 0x67, 0x54, 0x79
        DC8 0x70, 0x65, 0x3E, 0x3A, 0x3A, 0x6D, 0x61, 0x78
        DC8 0x28, 0x29, 0x29, 0

        SECTION `.rodata`:CONST:REORDER:NOROOT(2)
        SECTION_GROUP _ZZN13RegisterFieldIN4SPI25CRCPRELj0ELj16E13ReadWriteModevE3SetIS2_vEEvjEs_0
        DATA
// __absolute char const <_ZZN13RegisterFieldIN4SPI25CRCPRELj0ELj16E13ReadWriteModevE3SetIS2_vEEvjEs_0>[114]
_ZZN13RegisterFieldIN4SPI25CRCPRELj0ELj16E13ReadWriteModevE3SetIS2_vEEvjEs_0:
        DATA8
        DC8 0x44, 0x3A, 0x5C, 0x4E, 0x69, 0x6B, 0x6F, 0x6C
        DC8 0x61, 0x6F, 0x73, 0x5C, 0x4D, 0x79, 0x20, 0x44
        DC8 0x6F, 0x63, 0x75, 0x6D, 0x65, 0x6E, 0x74, 0x73
        DC8 0x5C, 0x49, 0x41, 0x52, 0x20, 0x70, 0x72, 0x6F
        DC8 0x6A, 0x65, 0x63, 0x74, 0x73, 0x5C, 0x43, 0x6F
        DC8 0x75, 0x72, 0x73, 0x65, 0x57, 0x6F, 0x72, 0x6B
        DC8 0x2D, 0x6D, 0x61, 0x69, 0x6E, 0x32, 0x5C, 0x43
        DC8 0x6F, 0x75, 0x72, 0x73, 0x65, 0x57, 0x6F, 0x72
        DC8 0x6B, 0x49, 0x41, 0x52, 0x70, 0x72, 0x6F, 0x6A
        DC8 0x65, 0x63, 0x74, 0x5C, 0x41, 0x48, 0x61, 0x72
        DC8 0x64, 0x77, 0x61, 0x72, 0x65, 0x5C, 0x52, 0x65
        DC8 0x67, 0x69, 0x73, 0x74, 0x65, 0x72, 0x73, 0x5C
        DC8 0x72, 0x65, 0x67, 0x69, 0x73, 0x74, 0x65, 0x72
        DC8 0x66, 0x69, 0x65, 0x6C, 0x64, 0x2E, 0x68, 0x70
        DC8 0x70, 0
        DATA16
        DC8 0, 0

        SECTION `.rodata`:CONST:REORDER:NOROOT(2)
        SECTION_GROUP _ZTV15ButtonEventTaskI6ButtonI3PinI4PortI5GPIOCELh13EEEL_Z5eventEE
        DATA
// __absolute void (*const ButtonEventTask<UserButton, event>::__vtbl[3])()
_ZTV15ButtonEventTaskI6ButtonI3PinI4PortI5GPIOCELh13EEEL_Z5eventEE:
        DATA32
        DC32 0x0
        DC32 _ZTI15ButtonEventTaskI6ButtonI3PinI4PortI5GPIOCELh13EEEL_Z5eventEE
        DC32 _ZN15ButtonEventTaskI6ButtonI3PinI4PortI5GPIOCELh13EEEL_Z5eventEE7ExecuteEv

        SECTION `.rodata`:CONST:REORDER:NOROOT(2)
        SECTION_GROUP _ZTV15MeasurementTaskIL_Z5eventEE
        DATA
// __absolute void (*const MeasurementTask<event>::__vtbl[3])()
_ZTV15MeasurementTaskIL_Z5eventEE:
        DATA32
        DC32 0x0, _ZTI15MeasurementTaskIL_Z5eventEE
        DC32 _ZN15MeasurementTaskIL_Z5eventEE7ExecuteEv

        SECTION `.rodata`:CONST:REORDER:NOROOT(2)
        SECTION_GROUP _ZTI13BluetoothTask
        DATA
// __absolute __si_class_type_info const <Typeinfo for BluetoothTask>
_ZTI13BluetoothTask:
        DATA32
        DC32 _ZTVN10__cxxabiv120__si_class_type_infoE + 0x8
        DC32 _ZTS13BluetoothTask, _ZTIN9OsWrapper6ThreadILj400EEE

        SECTION `.rodata`:CONST:REORDER:NOROOT(2)
        SECTION_GROUP _ZTIN9OsWrapper6ThreadILj400EEE
        DATA
// __absolute __si_class_type_info const <Typeinfo for OsWrapper::Thread<(unsigned int)400>>
_ZTIN9OsWrapper6ThreadILj400EEE:
        DATA32
        DC32 _ZTVN10__cxxabiv120__si_class_type_infoE + 0x8
        DC32 _ZTSN9OsWrapper6ThreadILj400EEE, _ZTIN9OsWrapper7IThreadE

        SECTION `.rodata`:CONST:REORDER:NOROOT(2)
        SECTION_GROUP _ZTI17DisplayUpdateTask
        DATA
// __absolute __si_class_type_info const <Typeinfo for DisplayUpdateTask>
_ZTI17DisplayUpdateTask:
        DATA32
        DC32 _ZTVN10__cxxabiv120__si_class_type_infoE + 0x8
        DC32 _ZTS17DisplayUpdateTask, _ZTIN9OsWrapper6ThreadILj400EEE

        SECTION `.rodata`:CONST:REORDER:NOROOT(2)
        SECTION_GROUP _ZTI15ButtonEventTaskI6ButtonI3PinI4PortI5GPIOCELh13EEEL_Z5eventEE
        DATA
// __absolute __si_class_type_info const <Typeinfo for ButtonEventTask<Button<Pin<Port<GPIOC>, (unsigned char)13>>, event>>
_ZTI15ButtonEventTaskI6ButtonI3PinI4PortI5GPIOCELh13EEEL_Z5eventEE:
        DATA32
        DC32 _ZTVN10__cxxabiv120__si_class_type_infoE + 0x8
        DC32 _ZTS15ButtonEventTaskI6ButtonI3PinI4PortI5GPIOCELh13EEEL_Z5eventEE
        DC32 _ZTIN9OsWrapper6ThreadILj128EEE

        SECTION `.rodata`:CONST:REORDER:NOROOT(2)
        SECTION_GROUP _ZTIN9OsWrapper6ThreadILj128EEE
        DATA
// __absolute __si_class_type_info const <Typeinfo for OsWrapper::Thread<(unsigned int)128>>
_ZTIN9OsWrapper6ThreadILj128EEE:
        DATA32
        DC32 _ZTVN10__cxxabiv120__si_class_type_infoE + 0x8
        DC32 _ZTSN9OsWrapper6ThreadILj128EEE, _ZTIN9OsWrapper7IThreadE

        SECTION `.rodata`:CONST:REORDER:NOROOT(2)
        SECTION_GROUP _ZTI15MeasurementTaskIL_Z5eventEE
        DATA
// __absolute __si_class_type_info const <Typeinfo for MeasurementTask<event>>
_ZTI15MeasurementTaskIL_Z5eventEE:
        DATA32
        DC32 _ZTVN10__cxxabiv120__si_class_type_infoE + 0x8
        DC32 _ZTS15MeasurementTaskIL_Z5eventEE, _ZTIN9OsWrapper6ThreadILj128EEE

        SECTION `.rodata`:CONST:REORDER:NOROOT(2)
        SECTION_GROUP _ZTS11Measurement
        DATA
// __absolute char const <Typeinfo name for Measurement>[14]
_ZTS11Measurement:
        DATA8
        DC8 "11Measurement"
        DATA16
        DC8 0, 0

        SECTION `.rodata`:CONST:REORDER:NOROOT(2)
        SECTION_GROUP _ZTS11Temperature
        DATA
// __absolute char const <Typeinfo name for Temperature>[14]
_ZTS11Temperature:
        DATA8
        DC8 "11Temperature"
        DATA16
        DC8 0, 0

        SECTION `.rodata`:CONST:REORDER:NOROOT(2)
        SECTION_GROUP _ZTSN9OsWrapper7IThreadE
        DATA
// __absolute char const <Typeinfo name for OsWrapper::IThread>[21]
_ZTSN9OsWrapper7IThreadE:
        DATA8
        DC8 "N9OsWrapper7IThreadE"
        DATA
        DC8 0, 0, 0

        SECTION `.rodata`:CONST:REORDER:NOROOT(2)
        SECTION_GROUP _ZTSN9OsWrapper6ThreadILj400EEE
        DATA
// __absolute char const <Typeinfo name for OsWrapper::Thread<(unsigned int)400>>[28]
_ZTSN9OsWrapper6ThreadILj400EEE:
        DATA8
        DC8 "N9OsWrapper6ThreadILj400EEE"

        SECTION `.rodata`:CONST:REORDER:NOROOT(2)
        SECTION_GROUP _ZTS13BluetoothTask
        DATA
// __absolute char const <Typeinfo name for BluetoothTask>[16]
_ZTS13BluetoothTask:
        DATA8
        DC8 "13BluetoothTask"

        SECTION `.rodata`:CONST:REORDER:NOROOT(2)
        SECTION_GROUP _ZTS17DisplayUpdateTask
        DATA
// __absolute char const <Typeinfo name for DisplayUpdateTask>[20]
_ZTS17DisplayUpdateTask:
        DATA8
        DC8 "17DisplayUpdateTask"

        SECTION `.rodata`:CONST:REORDER:NOROOT(2)
        SECTION_GROUP _ZTSN9OsWrapper6ThreadILj128EEE
        DATA
// __absolute char const <Typeinfo name for OsWrapper::Thread<(unsigned int)128>>[28]
_ZTSN9OsWrapper6ThreadILj128EEE:
        DATA8
        DC8 "N9OsWrapper6ThreadILj128EEE"

        SECTION `.rodata`:CONST:REORDER:NOROOT(2)
        SECTION_GROUP _ZTS15ButtonEventTaskI6ButtonI3PinI4PortI5GPIOCELh13EEEL_Z5eventEE
        DATA
// __absolute char const <Typeinfo name for ButtonEventTask<Button<Pin<Port<GPIOC>, (unsigned char)13>>, event>>[63]
_ZTS15ButtonEventTaskI6ButtonI3PinI4PortI5GPIOCELh13EEEL_Z5eventEE:
        DATA8
        DC8 0x31, 0x35, 0x42, 0x75, 0x74, 0x74, 0x6F, 0x6E
        DC8 0x45, 0x76, 0x65, 0x6E, 0x74, 0x54, 0x61, 0x73
        DC8 0x6B, 0x49, 0x36, 0x42, 0x75, 0x74, 0x74, 0x6F
        DC8 0x6E, 0x49, 0x33, 0x50, 0x69, 0x6E, 0x49, 0x34
        DC8 0x50, 0x6F, 0x72, 0x74, 0x49, 0x35, 0x47, 0x50
        DC8 0x49, 0x4F, 0x43, 0x45, 0x4C, 0x68, 0x31, 0x33
        DC8 0x45, 0x45, 0x45, 0x4C, 0x5F, 0x5A, 0x35, 0x65
        DC8 0x76, 0x65, 0x6E, 0x74, 0x45, 0x45, 0
        DC8 0

        SECTION `.rodata`:CONST:REORDER:NOROOT(2)
        SECTION_GROUP _ZTS15MeasurementTaskIL_Z5eventEE
        DATA
// __absolute char const <Typeinfo name for MeasurementTask<event>>[30]
_ZTS15MeasurementTaskIL_Z5eventEE:
        DATA8
        DC8 "15MeasurementTaskIL_Z5eventEE"
        DATA16
        DC8 0, 0

        SECTION `.rodata`:CONST:REORDER:NOROOT(2)
        SECTION_GROUP _ZTISt10ctype_base
        DATA
// __absolute __class_type_info const <Typeinfo for std::ctype_base>
_ZTISt10ctype_base:
        DATA32
        DC32 _ZTVN10__cxxabiv117__class_type_infoE + 0x8, _ZTSSt10ctype_base

        SECTION `.rodata`:CONST:REORDER:NOROOT(2)
        SECTION_GROUP _ZTSSt10ctype_base
        DATA
// __absolute char const <Typeinfo name for std::ctype_base>[15]
_ZTSSt10ctype_base:
        DATA8
        DC8 "St10ctype_base"
        DC8 0

        SECTION `.rodata`:CONST:REORDER:NOROOT(2)
        DATA
?_0:
        DATA8
        DC8 "displayUpdateTask"
        DATA16
        DC8 0, 0

        SECTION `.rodata`:CONST:REORDER:NOROOT(2)
        DATA
?_1:
        DATA8
        DC8 "bluetoothTask"
        DATA16
        DC8 0, 0

        SECTION `.rodata`:CONST:REORDER:NOROOT(2)
        DATA
?_2:
        DATA8
        DC8 "buttonEventTask"

        SECTION `.rodata`:CONST:REORDER:NOROOT(2)
        DATA
?_3:
        DATA8
        DC8 "measurementTask"

        SECTION `.rodata`:CONST:REORDER:NOROOT(2)
        DATA
?_4:
        DATA16
        DC16 10, 40

        SECTION `.rodata`:CONST:REORDER:NOROOT(2)
        DATA
?_5:
        DATA16
        DC16 0, 0

        SECTION `.rodata`:CONST:REORDER:NOROOT(2)
        DATA
?_6:
        DATA16
        DC16 400, 300

        SECTION `.rodata`:CONST:REORDER:NOROOT(2)
        DATA
?_7:
        DATA16
        DC16 0, 0

        SECTION `.rodata`:CONST:REORDER:NOROOT(2)
        DATA
?_8:
        DATA16
        DC16 400, 300

        SECTION `.rodata`:CONST:REORDER:NOROOT(3)
        DATA
?_9:
        DATA64
        DC64 100

        SECTION `.rodata`:CONST:REORDER:NOROOT(2)
        DATA
?_10:
        DATA8
        DC8 "Temperature"

        SECTION `.rodata`:CONST:REORDER:NOROOT(2)
        DATA
?_11:
        DATA8
        DC8 "Pressure"
        DATA
        DC8 0, 0, 0

        SECTION `.rodata`:CONST:REORDER:NOROOT(2)
        DATA
?_12:
        DATA8
        DC8 "Humidity"
        DATA
        DC8 0, 0, 0

        SECTION `.rodata`:CONST:REORDER:NOROOT(2)
        DATA
?_13:
        DATA8
        DC8 "Dew point"
        DATA16
        DC8 0, 0

        SECTION `.rodata`:CONST:REORDER:NOROOT(0)
        DATA
// D:\Nikolaos\My Documents\IAR projects\CourseWork-main2\CourseWorkIARproject\main.cpp
//    1 #include "rtos.hpp"            // for Rtos
?_14:
        DATA8
        DC8 0

        SECTION `.rodata`:CONST:REORDER:NOROOT(0)
        SECTION_GROUP _ZNSt6chrono12system_clock9is_steadyE
        DATA
// __absolute bool const std::chrono::system_clock::is_steady
_ZNSt6chrono12system_clock9is_steadyE:
        DATA8
        DC8 0

        SECTION `.rodata`:CONST:REORDER:NOROOT(0)
        SECTION_GROUP _ZNSt6chrono12system_clock12is_monotonicE
        DATA
// __absolute bool const std::chrono::system_clock::is_monotonic
_ZNSt6chrono12system_clock12is_monotonicE:
        DATA8
        DC8 0

        SECTION `.rodata`:CONST:REORDER:NOROOT(0)
        SECTION_GROUP _ZNSt6chrono12steady_clock9is_steadyE
        DATA
// __absolute bool const std::chrono::steady_clock::is_steady
_ZNSt6chrono12steady_clock9is_steadyE:
        DATA8
        DC8 1
//    2 #include "event.hpp"           // for Event
//    3 #include "buttonsconfig.h"

        SECTION `.rodata`:CONST:REORDER:NOROOT(2)
        SECTION_GROUP _ZZN8RegisterILj1073887280ELj32E13ReadWriteModeN3RCC14RCCAHB1ENRBaseEJ10FieldValueI26RCC_AHB1ENR_GPIOCEN_ValuesINS1_7AHB1ENRELj2ELj1ES0_S2_ES2_Lj1EvES3_I26RCC_AHB1ENR_GPIOBEN_ValuesIS5_Lj1ELj1ES0_S2_ES2_Lj1EvES3_I26RCC_AHB1ENR_GPIOAEN_ValuesIS5_Lj0ELj1ES0_S2_ES2_Lj1EvEEE3SetIS0_vEEvvE4mask
        DATA
// __absolute unsigned int const mask
_ZZN8RegisterILj1073887280ELj32E13ReadWriteModeN3RCC14RCCAHB1ENRBaseEJ10FieldValueI26RCC_AHB1ENR_GPIOCEN_ValuesINS1_7AHB1ENRELj2ELj1ES0_S2_ES2_Lj1EvES3_I26RCC_AHB1ENR_GPIOBEN_ValuesIS5_Lj1ELj1ES0_S2_ES2_Lj1EvES3_I26RCC_AHB1ENR_GPIOAEN_ValuesIS5_Lj0ELj1ES0_S2_ES2_Lj1EvEEE3SetIS0_vEEvvE4mask:
        DATA32
        DC32 7

        SECTION `.rodata`:CONST:REORDER:NOROOT(2)
        SECTION_GROUP _ZZN8RegisterILj1073873920ELj32E13ReadWriteModeN5GPIOB14GPIOBMODERBaseEJ10FieldValueI26GPIOB_MODER_MODER15_ValuesINS1_5MODERELj2ELj2ES0_S2_ES2_Lj1EvES3_IS4_IS5_Lj4ELj2ES0_S2_ES2_Lj1EvES3_IS4_IS5_Lj26ELj2ES0_S2_ES2_Lj2EvES3_IS4_IS5_Lj30ELj2ES0_S2_ES2_Lj2EvEEE3SetIS0_vEEvvE4mask
        DATA
// __absolute unsigned int const mask
_ZZN8RegisterILj1073873920ELj32E13ReadWriteModeN5GPIOB14GPIOBMODERBaseEJ10FieldValueI26GPIOB_MODER_MODER15_ValuesINS1_5MODERELj2ELj2ES0_S2_ES2_Lj1EvES3_IS4_IS5_Lj4ELj2ES0_S2_ES2_Lj1EvES3_IS4_IS5_Lj26ELj2ES0_S2_ES2_Lj2EvES3_IS4_IS5_Lj30ELj2ES0_S2_ES2_Lj2EvEEE3SetIS0_vEEvvE4mask:
        DATA32
        DC32 3'422'552'124

        SECTION `.rodata`:CONST:REORDER:NOROOT(2)
        SECTION_GROUP _ZZN8RegisterILj1073873956ELj32E13ReadWriteModeN5GPIOB13GPIOBAFRHBaseEJ10FieldValueI23GPIOB_AFRL_AFRL7_ValuesINS1_4AFRHELj20ELj4ES0_S2_ES2_Lj5EvES3_IS4_IS5_Lj28ELj4ES0_S2_ES2_Lj5EvEEE3SetIS0_vEEvvE4mask
        DATA
// __absolute unsigned int const mask
_ZZN8RegisterILj1073873956ELj32E13ReadWriteModeN5GPIOB13GPIOBAFRHBaseEJ10FieldValueI23GPIOB_AFRL_AFRL7_ValuesINS1_4AFRHELj20ELj4ES0_S2_ES2_Lj5EvES3_IS4_IS5_Lj28ELj4ES0_S2_ES2_Lj5EvEEE3SetIS0_vEEvvE4mask:
        DATA32
        DC32 4'042'260'480

        SECTION `.rodata`:CONST:REORDER:NOROOT(2)
        SECTION_GROUP _ZZN8RegisterILj1073874944ELj32E13ReadWriteModeN5GPIOC14GPIOCMODERBaseEJ10FieldValueI26GPIOC_MODER_MODER15_ValuesINS1_5MODERELj4ELj2ES0_S2_ES2_Lj0EvES3_IS4_IS5_Lj6ELj2ES0_S2_ES2_Lj1EvEEE3SetIS0_vEEvvE4mask
        DATA
// __absolute unsigned int const mask
_ZZN8RegisterILj1073874944ELj32E13ReadWriteModeN5GPIOC14GPIOCMODERBaseEJ10FieldValueI26GPIOC_MODER_MODER15_ValuesINS1_5MODERELj4ELj2ES0_S2_ES2_Lj0EvES3_IS4_IS5_Lj6ELj2ES0_S2_ES2_Lj1EvEEE3SetIS0_vEEvvE4mask:
        DATA32
        DC32 240

        SECTION `.rodata`:CONST:REORDER:NOROOT(2)
        SECTION_GROUP _ZZN8RegisterILj1073873920ELj32E13ReadWriteModeN5GPIOB14GPIOBMODERBaseEJ10FieldValueI26GPIOB_MODER_MODER15_ValuesINS1_5MODERELj6ELj2ES0_S2_ES2_Lj2EvES3_IS4_IS5_Lj8ELj2ES0_S2_ES2_Lj2EvES3_IS4_IS5_Lj10ELj2ES0_S2_ES2_Lj2EvES3_IS4_IS5_Lj20ELj2ES0_S2_ES2_Lj1EvEEE3SetIS0_vEEvvE4mask
        DATA
// __absolute unsigned int const mask
_ZZN8RegisterILj1073873920ELj32E13ReadWriteModeN5GPIOB14GPIOBMODERBaseEJ10FieldValueI26GPIOB_MODER_MODER15_ValuesINS1_5MODERELj6ELj2ES0_S2_ES2_Lj2EvES3_IS4_IS5_Lj8ELj2ES0_S2_ES2_Lj2EvES3_IS4_IS5_Lj10ELj2ES0_S2_ES2_Lj2EvES3_IS4_IS5_Lj20ELj2ES0_S2_ES2_Lj1EvEEE3SetIS0_vEEvvE4mask:
        DATA32
        DC32 3'149'760

        SECTION `.rodata`:CONST:REORDER:NOROOT(2)
        SECTION_GROUP _ZZN8RegisterILj1073873952ELj32E13ReadWriteModeN5GPIOB13GPIOBAFRLBaseEJ10FieldValueI23GPIOB_AFRL_AFRL7_ValuesINS1_4AFRLELj12ELj4ES0_S2_ES2_Lj5EvES3_IS4_IS5_Lj16ELj4ES0_S2_ES2_Lj5EvES3_IS4_IS5_Lj20ELj4ES0_S2_ES2_Lj5EvEEE3SetIS0_vEEvvE4mask
        DATA
// __absolute unsigned int const mask
_ZZN8RegisterILj1073873952ELj32E13ReadWriteModeN5GPIOB13GPIOBAFRLBaseEJ10FieldValueI23GPIOB_AFRL_AFRL7_ValuesINS1_4AFRLELj12ELj4ES0_S2_ES2_Lj5EvES3_IS4_IS5_Lj16ELj4ES0_S2_ES2_Lj5EvES3_IS4_IS5_Lj20ELj4ES0_S2_ES2_Lj5EvEEE3SetIS0_vEEvvE4mask:
        DATA32
        DC32 16'773'120

        SECTION `.rodata`:CONST:REORDER:NOROOT(2)
        SECTION_GROUP _ZZN8RegisterILj1073887280ELj32E13ReadWriteModeN3RCC14RCCAHB1ENRBaseEJ10FieldValueI26RCC_AHB1ENR_GPIOCEN_ValuesINS1_7AHB1ENRELj2ELj1ES0_S2_ES2_Lj1EvES3_I26RCC_AHB1ENR_GPIOBEN_ValuesIS5_Lj1ELj1ES0_S2_ES2_Lj1EvES3_I26RCC_AHB1ENR_GPIOAEN_ValuesIS5_Lj0ELj1ES0_S2_ES2_Lj1EvEEE3SetIS0_vEEvvE5value
        DATA
// __absolute unsigned int const value
_ZZN8RegisterILj1073887280ELj32E13ReadWriteModeN3RCC14RCCAHB1ENRBaseEJ10FieldValueI26RCC_AHB1ENR_GPIOCEN_ValuesINS1_7AHB1ENRELj2ELj1ES0_S2_ES2_Lj1EvES3_I26RCC_AHB1ENR_GPIOBEN_ValuesIS5_Lj1ELj1ES0_S2_ES2_Lj1EvES3_I26RCC_AHB1ENR_GPIOAEN_ValuesIS5_Lj0ELj1ES0_S2_ES2_Lj1EvEEE3SetIS0_vEEvvE5value:
        DATA32
        DC32 7

        SECTION `.rodata`:CONST:REORDER:NOROOT(2)
        SECTION_GROUP _ZZN8RegisterILj1073873920ELj32E13ReadWriteModeN5GPIOB14GPIOBMODERBaseEJ10FieldValueI26GPIOB_MODER_MODER15_ValuesINS1_5MODERELj2ELj2ES0_S2_ES2_Lj1EvES3_IS4_IS5_Lj4ELj2ES0_S2_ES2_Lj1EvES3_IS4_IS5_Lj26ELj2ES0_S2_ES2_Lj2EvES3_IS4_IS5_Lj30ELj2ES0_S2_ES2_Lj2EvEEE3SetIS0_vEEvvE5value
        DATA
// __absolute unsigned int const value
_ZZN8RegisterILj1073873920ELj32E13ReadWriteModeN5GPIOB14GPIOBMODERBaseEJ10FieldValueI26GPIOB_MODER_MODER15_ValuesINS1_5MODERELj2ELj2ES0_S2_ES2_Lj1EvES3_IS4_IS5_Lj4ELj2ES0_S2_ES2_Lj1EvES3_IS4_IS5_Lj26ELj2ES0_S2_ES2_Lj2EvES3_IS4_IS5_Lj30ELj2ES0_S2_ES2_Lj2EvEEE3SetIS0_vEEvvE5value:
        DATA32
        DC32 2'281'701'396

        SECTION `.rodata`:CONST:REORDER:NOROOT(2)
        SECTION_GROUP _ZZN8RegisterILj1073873956ELj32E13ReadWriteModeN5GPIOB13GPIOBAFRHBaseEJ10FieldValueI23GPIOB_AFRL_AFRL7_ValuesINS1_4AFRHELj20ELj4ES0_S2_ES2_Lj5EvES3_IS4_IS5_Lj28ELj4ES0_S2_ES2_Lj5EvEEE3SetIS0_vEEvvE5value
        DATA
// __absolute unsigned int const value
_ZZN8RegisterILj1073873956ELj32E13ReadWriteModeN5GPIOB13GPIOBAFRHBaseEJ10FieldValueI23GPIOB_AFRL_AFRL7_ValuesINS1_4AFRHELj20ELj4ES0_S2_ES2_Lj5EvES3_IS4_IS5_Lj28ELj4ES0_S2_ES2_Lj5EvEEE3SetIS0_vEEvvE5value:
        DATA32
        DC32 1'347'420'160

        SECTION `.rodata`:CONST:REORDER:NOROOT(2)
        SECTION_GROUP _ZZN8RegisterILj1073874944ELj32E13ReadWriteModeN5GPIOC14GPIOCMODERBaseEJ10FieldValueI26GPIOC_MODER_MODER15_ValuesINS1_5MODERELj4ELj2ES0_S2_ES2_Lj0EvES3_IS4_IS5_Lj6ELj2ES0_S2_ES2_Lj1EvEEE3SetIS0_vEEvvE5value
        DATA
// __absolute unsigned int const value
_ZZN8RegisterILj1073874944ELj32E13ReadWriteModeN5GPIOC14GPIOCMODERBaseEJ10FieldValueI26GPIOC_MODER_MODER15_ValuesINS1_5MODERELj4ELj2ES0_S2_ES2_Lj0EvES3_IS4_IS5_Lj6ELj2ES0_S2_ES2_Lj1EvEEE3SetIS0_vEEvvE5value:
        DATA32
        DC32 64

        SECTION `.rodata`:CONST:REORDER:NOROOT(2)
        SECTION_GROUP _ZZN8RegisterILj1073873920ELj32E13ReadWriteModeN5GPIOB14GPIOBMODERBaseEJ10FieldValueI26GPIOB_MODER_MODER15_ValuesINS1_5MODERELj6ELj2ES0_S2_ES2_Lj2EvES3_IS4_IS5_Lj8ELj2ES0_S2_ES2_Lj2EvES3_IS4_IS5_Lj10ELj2ES0_S2_ES2_Lj2EvES3_IS4_IS5_Lj20ELj2ES0_S2_ES2_Lj1EvEEE3SetIS0_vEEvvE5value
        DATA
// __absolute unsigned int const value
_ZZN8RegisterILj1073873920ELj32E13ReadWriteModeN5GPIOB14GPIOBMODERBaseEJ10FieldValueI26GPIOB_MODER_MODER15_ValuesINS1_5MODERELj6ELj2ES0_S2_ES2_Lj2EvES3_IS4_IS5_Lj8ELj2ES0_S2_ES2_Lj2EvES3_IS4_IS5_Lj10ELj2ES0_S2_ES2_Lj2EvES3_IS4_IS5_Lj20ELj2ES0_S2_ES2_Lj1EvEEE3SetIS0_vEEvvE5value:
        DATA32
        DC32 1'051'264

        SECTION `.rodata`:CONST:REORDER:NOROOT(2)
        SECTION_GROUP _ZZN8RegisterILj1073873952ELj32E13ReadWriteModeN5GPIOB13GPIOBAFRLBaseEJ10FieldValueI23GPIOB_AFRL_AFRL7_ValuesINS1_4AFRLELj12ELj4ES0_S2_ES2_Lj5EvES3_IS4_IS5_Lj16ELj4ES0_S2_ES2_Lj5EvES3_IS4_IS5_Lj20ELj4ES0_S2_ES2_Lj5EvEEE3SetIS0_vEEvvE5value
        DATA
// __absolute unsigned int const value
_ZZN8RegisterILj1073873952ELj32E13ReadWriteModeN5GPIOB13GPIOBAFRLBaseEJ10FieldValueI23GPIOB_AFRL_AFRL7_ValuesINS1_4AFRLELj12ELj4ES0_S2_ES2_Lj5EvES3_IS4_IS5_Lj16ELj4ES0_S2_ES2_Lj5EvES3_IS4_IS5_Lj20ELj4ES0_S2_ES2_Lj5EvEEE3SetIS0_vEEvvE5value:
        DATA32
        DC32 5'591'040
//    4 #include "BluetoothTask.h"

        SECTION `.text`:CODE:NOROOT(1)
          CFI Block cfiBlock0 Using cfiCommon0
          CFI Function __sti__routine
        THUMB
// static __intrinsic __interwork __vfp void __sti__routine()
__sti__routine:
        PUSH     {R7,LR}
          CFI R14 Frame(CFA, -4)
          CFI CFA R13+8
        SUB      SP,SP,#+96
          CFI CFA R13+104
        LDR.N    R1,??DataTable7
        LDRB     R0,[R1, #+0]
        CMP      R0,#+0
        BNE.N    ??__sti__routine_0
        MOVS     R0,#+1
        STRB     R0,[R1, #+0]
        LDR.N    R0,??DataTable7_1
          CFI FunCall _ZN11usartDriverI6Usart2EC1Ev
        BL       _ZN11usartDriverI6Usart2EC1Ev
??__sti__routine_0:
        LDR.N    R1,??DataTable7_2
        LDRB     R0,[R1, #+0]
        CMP      R0,#+0
        BNE.N    ??__sti__routine_1
        MOVS     R0,#+1
        STRB     R0,[R1, #+0]
        LDR.N    R0,??DataTable7_3
          CFI FunCall _ZN12BME280DriverIL_Z15spi1TransceiverE3PinI4PortI5GPIOBELh10EEEC1Ev
        BL       _ZN12BME280DriverIL_Z15spi1TransceiverE3PinI4PortI5GPIOBELh10EEEC1Ev
??__sti__routine_1:
        LDR.N    R1,??DataTable7_4
        LDRB     R0,[R1, #+0]
        CMP      R0,#+0
        BNE.N    ??__sti__routine_2
        MOVS     R0,#+1
        STRB     R0,[R1, #+0]
        LDR.N    R1,??DataTable7_5
        ADD      R0,SP,#+72
          CFI FunCall _ZNSsC1EPKc
        BL       _ZNSsC1EPKc
        ADR.W    R2,_Z7fcnTempv
        MOVS     R1,R0
        LDR.N    R0,??DataTable7_6
          CFI FunCall _ZN11TemperatureC1ESsPFdvE
        BL       _ZN11TemperatureC1ESsPFdvE
        LDR.N    R2,??DataTable7_7
        LDR.N    R1,??DataTable7_8
          CFI FunCall __aeabi_atexit
        BL       __aeabi_atexit
        ADD      R0,SP,#+72
          CFI FunCall _ZNSsD1Ev
        BL       _ZNSsD1Ev
??__sti__routine_2:
        LDR.N    R1,??DataTable7_9
        LDRB     R0,[R1, #+0]
        CMP      R0,#+0
        BNE.N    ??__sti__routine_3
        MOVS     R0,#+1
        STRB     R0,[R1, #+0]
        LDR.N    R1,??DataTable7_10
        ADD      R0,SP,#+48
          CFI FunCall _ZNSsC1EPKc
        BL       _ZNSsC1EPKc
        ADR.W    R3,_Z8fcnPressv
        MOVS     R2,#+3
        MOVS     R1,R0
        LDR.N    R0,??DataTable7_11
          CFI FunCall _ZN11MeasurementC1ESs4UnitPFdvE
        BL       _ZN11MeasurementC1ESs4UnitPFdvE
        LDR.N    R2,??DataTable7_7
        LDR.N    R1,??DataTable7_12
          CFI FunCall __aeabi_atexit
        BL       __aeabi_atexit
        ADD      R0,SP,#+48
          CFI FunCall _ZNSsD1Ev
        BL       _ZNSsD1Ev
??__sti__routine_3:
        LDR.N    R1,??DataTable7_13
        LDRB     R0,[R1, #+0]
        CMP      R0,#+0
        BNE.N    ??__sti__routine_4
        MOVS     R0,#+1
        STRB     R0,[R1, #+0]
        LDR.N    R1,??DataTable7_14
        ADD      R0,SP,#+24
          CFI FunCall _ZNSsC1EPKc
        BL       _ZNSsC1EPKc
        ADR.W    R3,_Z6fcnHumv
        MOVS     R2,#+4
        MOVS     R1,R0
        LDR.N    R0,??DataTable7_15
          CFI FunCall _ZN11MeasurementC1ESs4UnitPFdvE
        BL       _ZN11MeasurementC1ESs4UnitPFdvE
        LDR.N    R2,??DataTable7_7
        LDR.N    R1,??DataTable7_12
          CFI FunCall __aeabi_atexit
        BL       __aeabi_atexit
        ADD      R0,SP,#+24
          CFI FunCall _ZNSsD1Ev
        BL       _ZNSsD1Ev
??__sti__routine_4:
        LDR.N    R1,??DataTable7_16
        LDRB     R0,[R1, #+0]
        CMP      R0,#+0
        BNE.N    ??__sti__routine_5
        MOVS     R0,#+1
        STRB     R0,[R1, #+0]
        LDR.N    R1,??DataTable7_17
        MOV      R0,SP
          CFI FunCall _ZNSsC1EPKc
        BL       _ZNSsC1EPKc
        ADR.W    R2,_Z7fcnDewPv
        MOVS     R1,R0
        LDR.N    R0,??DataTable7_18
          CFI FunCall _ZN11TemperatureC1ESsPFdvE
        BL       _ZN11TemperatureC1ESsPFdvE
        LDR.N    R2,??DataTable7_7
        LDR.N    R1,??DataTable7_8
          CFI FunCall __aeabi_atexit
        BL       __aeabi_atexit
        MOV      R0,SP
          CFI FunCall _ZNSsD1Ev
        BL       _ZNSsD1Ev
??__sti__routine_5:
        LDR.N    R1,??DataTable7_19
        LDRB     R0,[R1, #+0]
        CMP      R0,#+0
        BNE.N    ??__sti__routine_6
        MOVS     R0,#+1
        STRB     R0,[R1, #+0]
//    5 #include "ButtonEventTask.h"
//    6 #include "MeasurementTask.h"
//    7 #include "DisplayUpdateTask.h"
        LDR.N    R0,??DataTable7_20
          CFI FunCall _ZN9EPDDriverIL_Z15spi2TransceiverE3PinI4PortI5GPIOBELh1EES0_IS3_Lh2EES0_IS1_I5GPIOCELh3EES0_IS7_Lh2EEEC1Ev
        BL       _ZN9EPDDriverIL_Z15spi2TransceiverE3PinI4PortI5GPIOBELh1EES0_IS3_Lh2EES0_IS1_I5GPIOCELh3EES0_IS7_Lh2EEEC1Ev
??__sti__routine_6:
        LDR.N    R2,??DataTable7_21
        LDR.N    R1,??DataTable7_22
        LDR.N    R0,??DataTable7_23
          CFI FunCall _ZN12ScreenDriverILt400ELt300EEC1ERKSt5arrayIhLj15000EEP5tFont
        BL       _ZN12ScreenDriverILt400ELt300EEC1ERKSt5arrayIhLj15000EEP5tFont
        MOVS     R0,#+1
        STR      R0,[SP, #+0]
        LDR.N    R0,??DataTable7_24
        LDRD     R2,R3,[R0, #+0]
        LDR.N    R0,??DataTable7_25
          CFI FunCall _ZN9OsWrapper5EventC1ENSt6chrono8durationIxSt5ratioILx1ELx1000EEEEj
        BL       _ZN9OsWrapper5EventC1ENSt6chrono8durationIxSt5ratioILx1ELx1000EEEEj
        LDR.N    R2,??DataTable7_7
        LDR.N    R1,??DataTable7_26
          CFI FunCall __aeabi_atexit
        BL       __aeabi_atexit
        LDR.N    R0,??DataTable7_27
          CFI FunCall _ZN15ButtonEventTaskI6ButtonI3PinI4PortI5GPIOCELh13EEEL_Z5eventEEC1Ev
        BL       _ZN15ButtonEventTaskI6ButtonI3PinI4PortI5GPIOCELh13EEEL_Z5eventEEC1Ev
        LDR.N    R0,??DataTable7_28
          CFI FunCall _ZN13BluetoothTaskC1Ev
        BL       _ZN13BluetoothTaskC1Ev
        LDR.N    R0,??DataTable7_29
          CFI FunCall _ZN17DisplayUpdateTaskC1Ev
        BL       _ZN17DisplayUpdateTaskC1Ev
        LDR.N    R0,??DataTable7_30
          CFI FunCall _ZN15MeasurementTaskIL_Z5eventEEC1Ev
        BL       _ZN15MeasurementTaskIL_Z5eventEEC1Ev
        ADD      SP,SP,#+100
          CFI CFA R13+4
        POP      {PC}             ;; return
          CFI EndBlock cfiBlock0

        SECTION `.bss`:DATA:REORDER:NOROOT(0)
        SECTION_GROUP _ZGV20bluetoothTransceiver
        DATA
// __absolute unsigned char <_ZGV20bluetoothTransceiver>
_ZGV20bluetoothTransceiver:
        DS8 1

        SECTION `.bss`:DATA:REORDER:NOROOT(0)
        SECTION_GROUP _ZGV6bme280
        DATA
// __absolute unsigned char <_ZGV6bme280>
_ZGV6bme280:
        DS8 1

        SECTION `.bss`:DATA:REORDER:NOROOT(0)
        SECTION_GROUP _ZGV11temperature
        DATA
// __absolute unsigned char <_ZGV11temperature>
_ZGV11temperature:
        DS8 1

        SECTION `.bss`:DATA:REORDER:NOROOT(0)
        SECTION_GROUP _ZGV8pressure
        DATA
// __absolute unsigned char <_ZGV8pressure>
_ZGV8pressure:
        DS8 1

        SECTION `.bss`:DATA:REORDER:NOROOT(0)
        SECTION_GROUP _ZGV8humidity
        DATA
// __absolute unsigned char <_ZGV8humidity>
_ZGV8humidity:
        DS8 1

        SECTION `.bss`:DATA:REORDER:NOROOT(0)
        SECTION_GROUP _ZGV8dewPoint
        DATA
// __absolute unsigned char <_ZGV8dewPoint>
_ZGV8dewPoint:
        DS8 1

        SECTION `.bss`:DATA:REORDER:NOROOT(0)
        SECTION_GROUP _ZGV11eInkDisplay
        DATA
// __absolute unsigned char <_ZGV11eInkDisplay>
_ZGV11eInkDisplay:
        DS8 1

        SECTION `.bss`:DATA:REORDER:NOROOT(2)
        SECTION_GROUP bluetoothTransceiver
        DATA
// __absolute usartDriver<Usart2> bluetoothTransceiver
bluetoothTransceiver:
        DS8 2'068

        SECTION `.data`:DATA:REORDER:NOROOT(2)
        SECTION_GROUP spi1Transceiver
        DATA
// __absolute SpiDriver<Spi1> spi1Transceiver
spi1Transceiver:
        DATA8
        DC8 0, 0, 0, 0, 0, 0, 0, 0, 0, 0, 0, 0, 0, 0, 0, 0, 0, 0, 0, 0, 0, 0, 0
        DC8 0, 0, 0, 0, 0, 0, 0, 0, 0, 0, 0, 0, 0, 0, 0, 0, 0, 0, 0, 0, 0, 0, 0
        DC8 0, 0, 0, 0, 0, 0, 0, 0, 0, 0, 0, 0, 0, 0, 0, 0, 0, 0, 0, 0, 0, 0, 0
        DC8 0, 0, 0, 0, 0, 0, 0, 0, 0, 0, 0, 0, 0, 0, 0, 0, 0, 0, 0, 0, 0, 0, 0
        DC8 0, 0, 0, 0, 0, 0, 0, 0, 0, 0, 0, 0, 0, 0, 0, 0, 0, 0, 0, 0, 0, 0, 0
        DC8 0, 0, 0, 0, 0, 0, 0, 0, 0, 0, 0, 0, 0, 0, 0, 0, 0, 0, 0, 0, 0, 0, 0
        DC8 0, 0, 0, 0, 0, 0, 0, 0, 0, 0, 0, 0, 0, 0, 0, 0, 0, 0, 0, 0, 0, 0, 0
        DC8 0, 0, 0, 0, 0, 0, 0, 0, 0, 0, 0, 0, 0, 0, 0, 0, 0, 0, 0, 0, 0, 0, 0
        DC8 0, 0, 0, 0, 0, 0, 0, 0, 0, 0, 0, 0, 0, 0, 0, 0, 0, 0, 0, 0, 0, 0, 0
        DC8 0, 0, 0, 0, 0, 0, 0, 0, 0, 0, 0, 0, 0, 0, 0, 0, 0, 0, 0, 0, 0, 0, 0
        DC8 0, 0, 0, 0, 0, 0, 0, 0, 0, 0, 0, 0, 0, 0, 0, 0, 0, 0, 0, 0, 0, 0, 0
        DC8 0, 0, 0, 0, 0, 0, 0, 0, 0, 0, 0, 0, 0, 0, 0, 0, 0, 0, 0, 0, 0, 0, 0
        DC8 0, 0, 0, 0, 0, 0, 0, 0, 0, 0, 0, 0, 0, 0, 0, 0, 0, 0, 0, 0, 0, 0, 0
        DC8 0, 0, 0, 0, 0, 0, 0, 0, 0, 0, 0, 0, 0, 0, 0, 0, 0, 0, 0, 0, 0, 0, 0
        DC8 0, 0, 0, 0, 0, 0, 0, 0, 0, 0, 0, 0, 0, 0, 0, 0, 0, 0, 0, 0, 0, 0, 0
        DC8 0, 0, 0, 0, 0, 0, 0, 0, 0, 0, 0, 0, 0, 0, 0, 0, 0, 0, 0, 0, 0, 0, 0
        DC8 0, 0, 0, 0, 0, 0, 0, 0, 0, 0, 0, 0, 0, 0, 0, 0, 0, 0, 0, 0, 0, 0, 0
        DC8 0, 0, 0, 0, 0, 0, 0, 0, 0
        DATA32
        DC32 1, 1
        DATA8
        DC8 0, 0, 0, 0
        DATA32
        DC32 0, 0

        SECTION `.data`:DATA:REORDER:NOROOT(2)
        SECTION_GROUP spi2Transceiver
        DATA
// __absolute SpiDriverOnlyTransmit<Spi2> spi2Transceiver
spi2Transceiver:
        DATA8
        DC8 0, 0, 0, 0, 0, 0, 0, 0, 0, 0, 0, 0, 0, 0, 0, 0, 0, 0, 0, 0, 0, 0, 0
        DC8 0, 0, 0, 0, 0, 0, 0, 0, 0, 0, 0, 0, 0, 0, 0, 0, 0, 0, 0, 0, 0, 0, 0
        DC8 0, 0, 0, 0, 0, 0, 0, 0, 0, 0, 0, 0, 0, 0, 0, 0, 0, 0, 0, 0, 0, 0, 0
        DC8 0, 0, 0, 0, 0, 0, 0, 0, 0, 0, 0, 0, 0, 0, 0, 0, 0, 0, 0, 0, 0, 0, 0
        DC8 0, 0, 0, 0, 0, 0, 0, 0, 0, 0, 0, 0, 0, 0, 0, 0, 0, 0, 0, 0, 0, 0, 0
        DC8 0, 0, 0, 0, 0, 0, 0, 0, 0, 0, 0, 0, 0, 0, 0, 0, 0, 0, 0, 0, 0, 0, 0
        DC8 0, 0, 0, 0, 0, 0, 0, 0, 0, 0, 0, 0, 0, 0, 0, 0, 0, 0, 0, 0, 0, 0, 0
        DC8 0, 0, 0, 0, 0, 0, 0, 0, 0, 0, 0, 0, 0, 0, 0, 0, 0, 0, 0, 0, 0, 0, 0
        DC8 0, 0, 0, 0, 0, 0, 0, 0, 0, 0, 0, 0, 0, 0, 0, 0, 0, 0, 0, 0, 0, 0, 0
        DC8 0, 0, 0, 0, 0, 0, 0, 0, 0, 0, 0, 0, 0, 0, 0, 0, 0, 0, 0, 0, 0, 0, 0
        DC8 0, 0, 0, 0, 0, 0, 0, 0, 0, 0, 0, 0, 0, 0, 0, 0, 0, 0, 0, 0, 0, 0, 0
        DC8 0, 0, 0, 0, 0, 0, 0, 0, 0, 0, 0, 0, 0, 0, 0, 0, 0, 0, 0, 0, 0, 0, 0
        DC8 0, 0, 0, 0, 0, 0, 0, 0, 0, 0, 0, 0, 0, 0, 0, 0, 0, 0, 0, 0, 0, 0, 0
        DC8 0, 0, 0, 0, 0, 0, 0, 0, 0, 0, 0, 0, 0, 0, 0, 0, 0, 0, 0, 0, 0, 0, 0
        DC8 0, 0, 0, 0, 0, 0, 0, 0, 0, 0, 0, 0, 0, 0, 0, 0, 0, 0, 0, 0, 0, 0, 0
        DC8 0, 0, 0, 0, 0, 0, 0, 0, 0, 0, 0, 0, 0, 0, 0, 0, 0, 0, 0, 0, 0, 0, 0
        DC8 0, 0, 0, 0, 0, 0, 0, 0, 0, 0, 0, 0, 0, 0, 0, 0, 0, 0, 0, 0, 0, 0, 0
        DC8 0, 0, 0, 0, 0, 0, 0, 0, 0, 0, 0, 0, 0, 0, 0, 0, 0, 0, 0, 0, 0, 0, 0
        DC8 0, 0, 0, 0, 0, 0, 0, 0, 0, 0, 0, 0, 0, 0, 0, 0, 0, 0, 0, 0, 0, 0, 0
        DC8 0, 0, 0, 0, 0, 0, 0, 0, 0, 0, 0, 0, 0, 0, 0, 0, 0, 0, 0, 0, 0, 0, 0
        DC8 0, 0, 0, 0, 0, 0, 0, 0, 0, 0, 0, 0, 0, 0, 0, 0, 0, 0, 0, 0, 0, 0, 0
        DC8 0, 0, 0, 0, 0, 0, 0, 0, 0, 0, 0, 0, 0, 0, 0, 0, 0, 0, 0, 0, 0, 0, 0
        DC8 0, 0, 0, 0, 0, 0, 0, 0, 0, 0, 0, 0, 0, 0, 0, 0, 0, 0, 0, 0, 0, 0, 0
        DC8 0, 0, 0, 0, 0, 0, 0, 0, 0, 0, 0, 0, 0, 0, 0, 0, 0, 0, 0, 0, 0, 0, 0
        DC8 0, 0, 0, 0, 0, 0, 0, 0, 0, 0, 0, 0, 0, 0, 0, 0, 0, 0, 0, 0, 0, 0, 0
        DC8 0, 0, 0, 0, 0, 0, 0, 0, 0, 0, 0, 0, 0, 0, 0, 0, 0, 0, 0, 0, 0, 0, 0
        DC8 0, 0, 0, 0, 0, 0, 0, 0, 0, 0, 0, 0, 0, 0, 0, 0, 0, 0, 0, 0, 0, 0, 0
        DC8 0, 0, 0, 0, 0, 0, 0, 0, 0, 0, 0, 0, 0, 0, 0, 0, 0, 0, 0, 0, 0, 0, 0
        DC8 0, 0, 0, 0, 0, 0, 0, 0, 0, 0, 0, 0, 0, 0, 0, 0, 0, 0, 0, 0, 0, 0, 0
        DC8 0, 0, 0, 0, 0, 0, 0, 0, 0, 0, 0, 0, 0, 0, 0, 0, 0, 0, 0, 0, 0, 0, 0
        DC8 0, 0, 0, 0, 0, 0, 0, 0, 0, 0, 0, 0, 0, 0, 0, 0, 0, 0, 0, 0, 0, 0, 0
        DC8 0, 0, 0, 0, 0, 0, 0, 0, 0, 0, 0, 0, 0, 0, 0, 0, 0, 0, 0, 0, 0, 0, 0
        DC8 0, 0, 0, 0, 0, 0, 0, 0, 0, 0, 0, 0, 0, 0, 0, 0, 0, 0, 0, 0, 0, 0, 0
        DC8 0, 0, 0, 0, 0, 0, 0, 0, 0, 0, 0, 0, 0, 0, 0, 0, 0, 0, 0, 0, 0, 0, 0
        DC8 0, 0, 0, 0, 0, 0, 0, 0, 0, 0, 0, 0, 0, 0, 0, 0, 0, 0, 0, 0, 0, 0, 0
        DC8 0, 0, 0, 0, 0, 0, 0, 0, 0, 0, 0, 0, 0, 0, 0, 0, 0, 0, 0, 0, 0, 0, 0
        DC8 0, 0, 0, 0, 0, 0, 0, 0, 0, 0, 0, 0, 0, 0, 0, 0, 0, 0, 0, 0, 0, 0, 0
        DC8 0, 0, 0, 0, 0, 0, 0, 0, 0, 0, 0, 0, 0, 0, 0, 0, 0, 0, 0, 0, 0, 0, 0
        DC8 0, 0, 0, 0, 0, 0, 0, 0, 0, 0, 0, 0, 0, 0, 0, 0, 0, 0, 0, 0, 0, 0, 0
        DC8 0, 0, 0, 0, 0, 0, 0, 0, 0, 0, 0, 0, 0, 0, 0, 0, 0, 0, 0, 0, 0, 0, 0
        DC8 0, 0, 0, 0, 0, 0, 0, 0, 0, 0, 0, 0, 0, 0, 0, 0, 0, 0, 0, 0, 0, 0, 0
        DC8 0, 0, 0, 0, 0, 0, 0, 0, 0, 0, 0, 0, 0, 0, 0, 0, 0, 0, 0, 0, 0, 0, 0
        DC8 0, 0, 0, 0, 0, 0, 0, 0, 0, 0, 0, 0, 0, 0, 0, 0, 0, 0, 0, 0, 0, 0, 0
        DC8 0, 0, 0, 0, 0, 0, 0, 0, 0, 0, 0, 0, 0, 0, 0, 0, 0, 0, 0, 0, 0, 0, 0
        DC8 0, 0, 0, 0, 0, 0, 0, 0, 0, 0, 0, 0, 0, 0, 0, 0, 0, 0, 0, 0, 0, 0, 0
        DC8 0, 0, 0, 0, 0, 0, 0, 0, 0, 0, 0, 0, 0, 0, 0, 0, 0, 0, 0, 0, 0, 0, 0
        DC8 0, 0, 0, 0, 0, 0, 0, 0, 0, 0, 0, 0, 0, 0, 0, 0, 0, 0, 0, 0, 0, 0, 0
        DC8 0, 0, 0, 0, 0, 0, 0, 0, 0, 0, 0, 0, 0, 0, 0, 0, 0, 0, 0, 0, 0, 0, 0
        DC8 0, 0, 0, 0, 0, 0, 0, 0, 0, 0, 0, 0, 0, 0, 0, 0, 0, 0, 0, 0, 0, 0, 0
        DC8 0, 0, 0, 0, 0, 0, 0, 0, 0, 0, 0, 0, 0, 0, 0, 0, 0, 0, 0, 0, 0, 0, 0
        DC8 0, 0, 0, 0, 0, 0, 0, 0, 0, 0, 0, 0, 0, 0, 0, 0, 0, 0, 0, 0, 0, 0, 0
        DC8 0, 0, 0, 0, 0, 0, 0, 0, 0, 0, 0, 0, 0, 0, 0, 0, 0, 0, 0, 0, 0, 0, 0
        DC8 0, 0, 0, 0, 0, 0, 0, 0, 0, 0, 0, 0, 0, 0, 0, 0, 0, 0, 0, 0, 0, 0, 0
        DC8 0, 0, 0, 0, 0, 0, 0, 0, 0, 0, 0, 0, 0, 0, 0, 0, 0, 0, 0, 0, 0, 0, 0
        DC8 0, 0, 0, 0, 0, 0, 0, 0, 0, 0, 0, 0, 0, 0, 0, 0, 0, 0, 0, 0, 0, 0, 0
        DC8 0, 0, 0, 0, 0, 0, 0, 0, 0, 0, 0, 0, 0, 0, 0, 0, 0, 0, 0, 0, 0, 0, 0
        DC8 0, 0, 0, 0, 0, 0, 0, 0, 0, 0, 0, 0, 0, 0, 0, 0, 0, 0, 0, 0, 0, 0, 0
        DC8 0, 0, 0, 0, 0, 0, 0, 0, 0, 0, 0, 0, 0, 0, 0, 0, 0, 0, 0, 0, 0, 0, 0
        DC8 0, 0, 0, 0, 0, 0, 0, 0, 0, 0, 0, 0, 0, 0, 0, 0, 0, 0, 0, 0, 0, 0, 0
        DC8 0, 0, 0, 0, 0, 0, 0, 0, 0, 0, 0, 0, 0, 0, 0, 0, 0, 0, 0, 0, 0, 0, 0
        DC8 0, 0, 0, 0, 0, 0, 0, 0, 0, 0, 0, 0, 0, 0, 0, 0, 0, 0, 0, 0, 0, 0, 0
        DC8 0, 0, 0, 0, 0, 0, 0, 0, 0, 0, 0, 0, 0, 0, 0, 0, 0, 0, 0, 0, 0, 0, 0
        DC8 0, 0, 0, 0, 0, 0, 0, 0, 0, 0, 0, 0, 0, 0, 0, 0, 0, 0, 0, 0, 0, 0, 0
        DC8 0, 0, 0, 0, 0, 0, 0, 0, 0, 0, 0, 0, 0, 0, 0, 0, 0, 0, 0, 0, 0, 0, 0
        DC8 0, 0, 0, 0, 0, 0, 0, 0, 0, 0, 0, 0, 0, 0, 0, 0, 0, 0, 0, 0, 0, 0, 0
        DC8 0, 0, 0, 0, 0, 0, 0, 0, 0, 0, 0, 0, 0, 0, 0, 0, 0, 0, 0, 0, 0, 0, 0
        DC8 0, 0, 0, 0, 0, 0, 0, 0, 0, 0, 0, 0, 0, 0, 0, 0, 0, 0, 0, 0, 0, 0, 0
        DC8 0, 0, 0, 0, 0, 0, 0, 0, 0, 0, 0, 0, 0, 0, 0, 0, 0, 0, 0, 0, 0, 0, 0
        DC8 0, 0, 0, 0, 0, 0, 0, 0, 0, 0, 0, 0, 0, 0, 0, 0, 0, 0, 0, 0, 0, 0, 0
        DC8 0, 0, 0, 0, 0, 0, 0, 0, 0, 0, 0, 0, 0, 0, 0, 0, 0, 0, 0, 0, 0, 0, 0
        DC8 0, 0, 0, 0, 0, 0, 0, 0, 0, 0, 0, 0, 0, 0, 0, 0, 0, 0, 0, 0, 0, 0, 0
        DC8 0, 0, 0, 0, 0, 0, 0, 0, 0, 0, 0, 0, 0, 0, 0, 0, 0, 0, 0, 0, 0, 0, 0
        DC8 0, 0, 0, 0, 0, 0, 0, 0, 0, 0, 0, 0, 0, 0, 0, 0, 0, 0, 0, 0, 0, 0, 0
        DC8 0, 0, 0, 0, 0, 0, 0, 0, 0, 0, 0, 0, 0, 0, 0, 0, 0, 0, 0, 0, 0, 0, 0
        DC8 0, 0, 0, 0, 0, 0, 0, 0, 0, 0, 0, 0, 0, 0, 0, 0, 0, 0, 0, 0, 0, 0, 0
        DC8 0, 0, 0, 0, 0, 0, 0, 0, 0, 0, 0, 0, 0, 0, 0, 0, 0, 0, 0, 0, 0, 0, 0
        DC8 0, 0, 0, 0, 0, 0, 0, 0, 0, 0, 0, 0, 0, 0, 0, 0, 0, 0, 0, 0, 0, 0, 0
        DC8 0, 0, 0, 0, 0, 0, 0, 0, 0, 0, 0, 0, 0, 0, 0, 0, 0, 0, 0, 0, 0, 0, 0
        DC8 0, 0, 0, 0, 0, 0, 0, 0, 0, 0, 0, 0, 0, 0, 0, 0, 0, 0, 0, 0, 0, 0, 0
        DC8 0, 0, 0, 0, 0, 0, 0, 0, 0, 0, 0, 0, 0, 0, 0, 0, 0, 0, 0, 0, 0, 0, 0
        DC8 0, 0, 0, 0, 0, 0, 0, 0, 0, 0, 0, 0, 0, 0, 0, 0, 0, 0, 0, 0, 0, 0, 0
        DC8 0, 0, 0, 0, 0, 0, 0, 0, 0, 0, 0, 0, 0, 0, 0, 0, 0, 0, 0, 0, 0, 0, 0
        DC8 0, 0, 0, 0, 0, 0, 0, 0, 0, 0, 0, 0, 0, 0, 0, 0, 0, 0, 0, 0, 0, 0, 0
        DC8 0, 0, 0, 0, 0, 0, 0, 0, 0, 0, 0, 0, 0, 0, 0, 0, 0, 0, 0, 0, 0, 0, 0
        DC8 0, 0, 0, 0, 0, 0, 0, 0, 0, 0, 0, 0, 0, 0, 0, 0, 0, 0, 0, 0, 0, 0, 0
        DC8 0, 0, 0, 0, 0, 0, 0, 0, 0, 0, 0, 0, 0, 0, 0, 0, 0, 0, 0, 0, 0, 0, 0
        DC8 0, 0, 0, 0, 0, 0, 0, 0, 0, 0, 0, 0, 0, 0, 0, 0, 0, 0, 0, 0, 0, 0, 0
        DC8 0, 0, 0, 0, 0, 0, 0, 0, 0, 0, 0, 0, 0, 0, 0, 0, 0, 0, 0, 0, 0, 0, 0
        DC8 0, 0, 0, 0, 0, 0, 0, 0, 0, 0, 0, 0, 0, 0, 0, 0, 0, 0, 0, 0, 0, 0, 0
        DC8 0, 0, 0, 0, 0, 0, 0, 0, 0, 0, 0, 0, 0, 0, 0, 0, 0, 0, 0, 0, 0, 0, 0
        DC8 0, 0, 0, 0, 0, 0, 0, 0, 0, 0, 0, 0, 0, 0, 0, 0, 0, 0, 0, 0, 0, 0, 0
        DC8 0, 0, 0, 0, 0, 0, 0, 0, 0, 0, 0, 0, 0, 0, 0, 0, 0, 0, 0, 0, 0, 0, 0
        DC8 0, 0, 0, 0, 0, 0, 0, 0, 0, 0, 0, 0, 0, 0, 0, 0, 0, 0, 0, 0, 0, 0, 0
        DC8 0, 0, 0, 0, 0, 0, 0, 0, 0, 0, 0, 0, 0, 0, 0, 0, 0, 0, 0, 0, 0, 0, 0
        DC8 0, 0, 0, 0, 0, 0, 0, 0, 0, 0, 0, 0, 0, 0, 0, 0, 0, 0, 0, 0, 0, 0, 0
        DC8 0, 0, 0, 0, 0, 0, 0, 0, 0, 0, 0, 0, 0, 0, 0, 0, 0, 0, 0, 0, 0, 0, 0
        DC8 0, 0, 0, 0, 0, 0, 0, 0, 0, 0, 0, 0, 0, 0, 0, 0, 0, 0, 0, 0, 0, 0, 0
        DC8 0, 0, 0, 0, 0, 0, 0, 0, 0, 0, 0, 0, 0, 0, 0, 0, 0, 0, 0, 0, 0, 0, 0
        DC8 0, 0, 0, 0, 0, 0, 0, 0, 0, 0, 0, 0, 0, 0, 0, 0, 0, 0, 0, 0, 0, 0, 0
        DC8 0, 0, 0, 0, 0, 0, 0, 0, 0, 0, 0, 0, 0, 0, 0, 0, 0, 0, 0, 0, 0, 0, 0
        DC8 0, 0, 0, 0, 0, 0, 0, 0, 0, 0, 0, 0, 0, 0, 0, 0, 0, 0, 0, 0, 0, 0, 0
        DC8 0, 0, 0, 0, 0, 0, 0, 0, 0, 0, 0, 0, 0, 0, 0, 0, 0, 0, 0, 0, 0, 0, 0
        DC8 0, 0, 0, 0, 0, 0, 0, 0, 0, 0, 0, 0, 0, 0, 0, 0, 0, 0, 0, 0, 0, 0, 0
        DC8 0, 0, 0, 0, 0, 0, 0, 0, 0, 0, 0, 0, 0, 0, 0, 0, 0, 0, 0, 0, 0, 0, 0
        DC8 0, 0, 0, 0, 0, 0, 0, 0, 0, 0, 0, 0, 0, 0, 0, 0, 0, 0, 0, 0, 0, 0, 0
        DC8 0, 0, 0, 0, 0, 0, 0, 0, 0, 0, 0, 0, 0, 0, 0, 0, 0, 0, 0, 0, 0, 0, 0
        DC8 0, 0, 0, 0, 0, 0, 0, 0, 0, 0, 0, 0, 0, 0, 0, 0, 0, 0, 0, 0, 0, 0, 0
        DC8 0, 0, 0, 0, 0, 0, 0, 0, 0, 0, 0, 0, 0, 0, 0, 0, 0, 0, 0, 0, 0, 0, 0
        DC8 0, 0, 0, 0, 0, 0, 0, 0, 0, 0, 0, 0, 0, 0, 0, 0, 0, 0, 0, 0, 0, 0, 0
        DC8 0, 0, 0, 0, 0, 0, 0, 0, 0, 0, 0, 0, 0, 0, 0, 0, 0, 0, 0, 0, 0, 0, 0
        DC8 0, 0, 0, 0, 0, 0, 0, 0, 0, 0, 0, 0, 0, 0, 0, 0, 0, 0, 0, 0, 0, 0, 0
        DC8 0, 0, 0, 0, 0, 0, 0, 0, 0, 0, 0, 0, 0, 0, 0, 0, 0, 0, 0, 0, 0, 0, 0
        DC8 0, 0, 0, 0, 0, 0, 0, 0, 0, 0, 0, 0, 0, 0, 0, 0, 0, 0, 0, 0, 0, 0, 0
        DC8 0, 0, 0, 0, 0, 0, 0, 0, 0, 0, 0, 0, 0, 0, 0, 0, 0, 0, 0, 0, 0, 0, 0
        DC8 0, 0, 0, 0, 0, 0, 0, 0, 0, 0, 0, 0, 0, 0, 0, 0, 0, 0, 0, 0, 0, 0, 0
        DC8 0, 0, 0, 0, 0, 0, 0, 0, 0, 0, 0, 0, 0, 0, 0, 0, 0, 0, 0, 0, 0, 0, 0
        DC8 0, 0, 0, 0, 0, 0, 0, 0, 0, 0, 0, 0, 0, 0, 0, 0, 0, 0, 0, 0, 0, 0, 0
        DC8 0, 0, 0, 0, 0, 0, 0, 0, 0, 0, 0, 0, 0, 0, 0, 0, 0, 0, 0, 0, 0, 0, 0
        DC8 0, 0, 0, 0, 0, 0, 0, 0, 0, 0, 0, 0, 0, 0, 0, 0, 0, 0, 0, 0, 0, 0, 0
        DC8 0, 0, 0, 0, 0, 0, 0, 0, 0, 0, 0, 0, 0, 0, 0, 0, 0, 0, 0, 0, 0, 0, 0
        DC8 0, 0, 0, 0, 0, 0, 0, 0, 0, 0, 0, 0, 0, 0, 0, 0, 0, 0, 0, 0, 0, 0, 0
        DC8 0, 0, 0, 0, 0, 0, 0, 0, 0, 0, 0, 0, 0, 0, 0, 0, 0, 0, 0, 0, 0, 0, 0
        DC8 0, 0, 0, 0, 0, 0, 0, 0, 0, 0, 0, 0, 0, 0, 0, 0, 0, 0, 0, 0, 0, 0, 0
        DC8 0, 0, 0, 0, 0, 0, 0, 0, 0, 0, 0, 0, 0, 0, 0, 0, 0, 0, 0, 0, 0, 0, 0
        DC8 0, 0, 0, 0, 0, 0, 0, 0, 0, 0, 0, 0, 0, 0, 0, 0, 0, 0, 0, 0, 0, 0, 0
        DC8 0, 0, 0, 0, 0, 0, 0, 0, 0, 0, 0, 0, 0, 0, 0, 0, 0, 0, 0, 0, 0, 0, 0
        DC8 0, 0, 0, 0, 0, 0, 0, 0, 0, 0, 0, 0, 0, 0, 0, 0, 0, 0, 0, 0, 0, 0, 0
        DC8 0, 0, 0, 0, 0, 0, 0, 0, 0, 0, 0, 0, 0, 0, 0, 0, 0, 0, 0, 0, 0, 0, 0
        DC8 0, 0, 0, 0, 0, 0, 0, 0, 0, 0, 0, 0, 0, 0, 0, 0, 0, 0, 0, 0, 0, 0, 0
        DC8 0, 0, 0, 0, 0, 0, 0, 0, 0, 0, 0, 0, 0, 0, 0, 0, 0, 0, 0, 0, 0, 0, 0
        DC8 0, 0, 0, 0, 0, 0, 0, 0, 0, 0, 0, 0, 0, 0, 0, 0, 0, 0, 0, 0, 0, 0, 0
        DC8 0, 0, 0, 0, 0, 0, 0, 0, 0, 0, 0, 0, 0, 0, 0, 0, 0, 0, 0, 0, 0, 0, 0
        DC8 0, 0, 0, 0, 0, 0, 0, 0, 0, 0, 0, 0, 0, 0, 0, 0, 0, 0, 0, 0, 0, 0, 0
        DC8 0, 0, 0, 0, 0, 0, 0, 0, 0, 0, 0, 0, 0, 0, 0, 0, 0, 0, 0, 0, 0, 0, 0
        DC8 0, 0, 0, 0, 0, 0, 0, 0, 0, 0, 0, 0, 0, 0, 0, 0, 0, 0, 0, 0, 0, 0, 0
        DC8 0, 0, 0, 0, 0, 0, 0, 0, 0, 0, 0, 0, 0, 0, 0, 0, 0, 0, 0, 0, 0, 0, 0
        DC8 0, 0, 0, 0, 0, 0, 0, 0, 0, 0, 0, 0, 0, 0, 0, 0, 0, 0, 0, 0, 0, 0, 0
        DC8 0, 0, 0, 0, 0, 0, 0, 0, 0, 0, 0, 0, 0, 0, 0, 0, 0, 0, 0, 0, 0, 0, 0
        DC8 0, 0, 0, 0, 0, 0, 0, 0, 0, 0, 0, 0, 0, 0, 0, 0, 0, 0, 0, 0, 0, 0, 0
        DC8 0, 0, 0, 0, 0, 0, 0, 0, 0, 0, 0, 0, 0, 0, 0, 0, 0, 0, 0, 0, 0, 0, 0
        DC8 0, 0, 0, 0, 0, 0, 0, 0, 0, 0, 0, 0, 0, 0, 0, 0, 0, 0, 0, 0, 0, 0, 0
        DC8 0, 0, 0, 0, 0, 0, 0, 0, 0, 0, 0, 0, 0, 0, 0, 0, 0, 0, 0, 0, 0, 0, 0
        DC8 0, 0, 0, 0, 0, 0, 0, 0, 0, 0, 0, 0, 0, 0, 0, 0, 0, 0, 0, 0, 0, 0, 0
        DC8 0, 0, 0, 0, 0, 0, 0, 0, 0, 0, 0, 0, 0, 0, 0, 0, 0, 0, 0, 0, 0, 0, 0
        DC8 0, 0, 0, 0, 0, 0, 0, 0, 0, 0, 0, 0, 0, 0, 0, 0, 0, 0, 0, 0, 0, 0, 0
        DC8 0, 0, 0, 0, 0, 0, 0, 0, 0, 0, 0, 0, 0, 0, 0, 0, 0, 0, 0, 0, 0, 0, 0
        DC8 0, 0, 0, 0, 0, 0, 0, 0, 0, 0, 0, 0, 0, 0, 0, 0, 0, 0, 0, 0, 0, 0, 0
        DC8 0, 0, 0, 0, 0, 0, 0, 0, 0, 0, 0, 0, 0, 0, 0, 0, 0, 0, 0, 0, 0, 0, 0
        DC8 0, 0, 0, 0, 0, 0, 0, 0, 0, 0, 0, 0, 0, 0, 0, 0, 0, 0, 0, 0, 0, 0, 0
        DC8 0, 0, 0, 0, 0, 0, 0, 0, 0, 0, 0, 0, 0, 0, 0, 0, 0, 0, 0, 0, 0, 0, 0
        DC8 0, 0, 0, 0, 0, 0, 0, 0, 0, 0, 0, 0, 0, 0, 0, 0, 0, 0, 0, 0, 0, 0, 0
        DC8 0, 0, 0, 0, 0, 0, 0, 0, 0, 0, 0, 0, 0, 0, 0, 0, 0, 0, 0, 0, 0, 0, 0
        DC8 0, 0, 0, 0, 0, 0, 0, 0, 0, 0, 0, 0, 0, 0, 0, 0, 0, 0, 0, 0, 0, 0, 0
        DC8 0, 0, 0, 0, 0, 0, 0, 0, 0, 0, 0, 0, 0, 0, 0, 0, 0, 0, 0, 0, 0, 0, 0
        DC8 0, 0, 0, 0, 0, 0, 0, 0, 0, 0, 0, 0, 0, 0, 0, 0, 0, 0, 0, 0, 0, 0, 0
        DC8 0, 0, 0, 0, 0, 0, 0, 0, 0, 0, 0, 0, 0, 0, 0, 0, 0, 0, 0, 0, 0, 0, 0
        DC8 0, 0, 0, 0, 0, 0, 0, 0, 0, 0, 0, 0, 0, 0, 0, 0, 0, 0, 0, 0, 0, 0, 0
        DC8 0, 0, 0, 0, 0, 0, 0, 0, 0, 0, 0, 0, 0, 0, 0, 0, 0, 0, 0, 0, 0, 0, 0
        DC8 0, 0, 0, 0, 0, 0, 0, 0, 0, 0, 0, 0, 0, 0, 0, 0, 0, 0, 0, 0, 0, 0, 0
        DC8 0, 0, 0, 0, 0, 0, 0, 0, 0, 0, 0, 0, 0, 0, 0, 0, 0, 0, 0, 0, 0, 0, 0
        DC8 0, 0, 0, 0, 0, 0, 0, 0, 0, 0, 0, 0, 0, 0, 0, 0, 0, 0, 0, 0, 0, 0, 0
        DC8 0, 0, 0, 0, 0, 0, 0, 0, 0, 0, 0, 0, 0, 0, 0, 0, 0, 0, 0, 0, 0, 0, 0
        DC8 0, 0, 0, 0, 0, 0, 0, 0, 0, 0, 0, 0, 0, 0, 0, 0, 0, 0, 0, 0, 0, 0, 0
        DC8 0, 0, 0, 0, 0, 0, 0, 0, 0, 0, 0, 0, 0, 0, 0, 0, 0, 0, 0, 0, 0, 0, 0
        DC8 0, 0, 0, 0, 0, 0, 0, 0, 0, 0, 0, 0, 0, 0, 0, 0, 0, 0, 0, 0, 0, 0, 0
        DC8 0, 0, 0, 0, 0, 0, 0, 0, 0, 0, 0, 0, 0, 0, 0, 0, 0, 0, 0, 0, 0, 0, 0
        DC8 0, 0, 0, 0, 0, 0, 0, 0, 0, 0, 0, 0, 0, 0, 0, 0, 0, 0, 0, 0, 0, 0, 0
        DC8 0, 0, 0, 0, 0, 0, 0, 0, 0, 0, 0, 0, 0, 0, 0, 0, 0, 0, 0, 0, 0, 0, 0
        DC8 0, 0, 0, 0, 0, 0, 0, 0, 0, 0, 0, 0, 0, 0, 0, 0, 0, 0, 0, 0, 0, 0, 0
        DC8 0, 0, 0, 0, 0, 0, 0, 0, 0, 0, 0, 0, 0, 0, 0, 0, 0, 0, 0, 0, 0, 0, 0
        DC8 0, 0, 0, 0, 0, 0, 0, 0, 0, 0, 0, 0, 0, 0, 0, 0, 0, 0, 0, 0, 0, 0, 0
        DC8 0, 0, 0, 0, 0, 0, 0, 0, 0, 0, 0, 0, 0, 0, 0, 0, 0, 0, 0, 0, 0, 0, 0
        DC8 0, 0, 0, 0, 0, 0, 0, 0, 0, 0, 0, 0, 0, 0, 0, 0, 0, 0, 0, 0, 0, 0, 0
        DC8 0, 0, 0, 0, 0, 0, 0, 0, 0, 0, 0, 0, 0, 0, 0, 0, 0, 0, 0, 0, 0, 0, 0
        DC8 0, 0, 0, 0, 0, 0, 0, 0, 0, 0, 0, 0, 0, 0, 0, 0, 0, 0, 0, 0, 0, 0, 0
        DC8 0, 0, 0, 0, 0, 0, 0, 0, 0, 0, 0, 0, 0, 0, 0, 0, 0, 0, 0, 0, 0, 0, 0
        DC8 0, 0, 0, 0, 0, 0, 0, 0, 0, 0, 0, 0, 0, 0, 0, 0, 0, 0, 0, 0, 0, 0, 0
        DC8 0, 0, 0, 0, 0, 0, 0, 0, 0, 0, 0, 0, 0, 0, 0, 0, 0, 0, 0, 0, 0, 0, 0
        DC8 0, 0, 0, 0, 0, 0, 0, 0, 0, 0, 0, 0, 0, 0, 0, 0, 0, 0, 0, 0, 0, 0, 0
        DC8 0, 0, 0, 0, 0, 0, 0, 0, 0, 0, 0, 0, 0, 0, 0, 0, 0, 0, 0, 0, 0, 0, 0
        DC8 0, 0, 0, 0, 0, 0, 0, 0, 0, 0, 0, 0, 0, 0, 0, 0, 0, 0, 0, 0, 0, 0, 0
        DC8 0, 0, 0, 0, 0, 0, 0, 0, 0, 0, 0, 0, 0, 0, 0, 0, 0, 0, 0, 0, 0, 0, 0
        DC8 0, 0, 0, 0, 0, 0, 0, 0, 0, 0, 0, 0, 0, 0, 0, 0, 0, 0, 0, 0, 0, 0, 0
        DC8 0, 0, 0, 0, 0, 0, 0, 0, 0, 0, 0, 0, 0, 0, 0, 0, 0, 0, 0, 0, 0, 0, 0
        DC8 0, 0, 0, 0, 0, 0, 0, 0, 0, 0, 0, 0, 0, 0, 0, 0, 0, 0, 0, 0, 0, 0, 0
        DC8 0, 0, 0, 0, 0, 0, 0, 0, 0, 0, 0, 0, 0, 0, 0, 0, 0, 0, 0, 0, 0, 0, 0
        DC8 0, 0, 0, 0, 0, 0, 0, 0, 0, 0, 0, 0, 0, 0, 0, 0, 0, 0, 0, 0, 0, 0, 0
        DC8 0, 0, 0, 0, 0, 0, 0, 0, 0, 0, 0, 0, 0, 0, 0, 0, 0, 0, 0, 0, 0, 0, 0
        DC8 0, 0, 0, 0, 0, 0, 0, 0, 0, 0, 0, 0, 0, 0, 0, 0, 0, 0, 0, 0, 0, 0, 0
        DC8 0, 0, 0, 0, 0, 0, 0, 0, 0, 0, 0, 0, 0, 0, 0, 0, 0, 0, 0, 0, 0, 0, 0
        DC8 0, 0, 0, 0, 0, 0, 0, 0, 0, 0, 0, 0, 0, 0, 0, 0, 0, 0, 0, 0, 0, 0, 0
        DC8 0, 0, 0, 0, 0, 0, 0, 0, 0, 0, 0, 0, 0, 0, 0, 0, 0, 0, 0, 0, 0, 0, 0
        DC8 0, 0, 0, 0, 0, 0, 0, 0, 0, 0, 0, 0, 0, 0, 0, 0, 0, 0, 0, 0, 0, 0, 0
        DC8 0, 0, 0, 0, 0, 0, 0, 0, 0, 0, 0, 0, 0, 0, 0, 0, 0, 0, 0, 0, 0, 0, 0
        DC8 0, 0, 0, 0, 0, 0, 0, 0, 0, 0, 0, 0, 0, 0, 0, 0, 0, 0, 0, 0, 0, 0, 0
        DC8 0, 0, 0, 0, 0, 0, 0, 0, 0, 0, 0, 0, 0, 0, 0, 0, 0, 0, 0, 0, 0, 0, 0
        DC8 0, 0, 0, 0, 0, 0, 0, 0, 0, 0, 0, 0, 0, 0, 0, 0, 0, 0, 0, 0, 0, 0, 0
        DC8 0, 0, 0, 0, 0, 0, 0, 0, 0, 0, 0, 0, 0, 0, 0, 0, 0, 0, 0, 0, 0, 0, 0
        DC8 0, 0, 0, 0, 0, 0, 0, 0, 0, 0, 0, 0, 0, 0, 0, 0, 0, 0, 0, 0, 0, 0, 0
        DC8 0, 0, 0, 0, 0, 0, 0, 0, 0, 0, 0, 0, 0, 0, 0, 0, 0, 0, 0, 0, 0, 0, 0
        DC8 0, 0, 0, 0, 0, 0, 0, 0, 0, 0, 0, 0, 0, 0, 0, 0, 0, 0, 0, 0, 0, 0, 0
        DC8 0, 0, 0, 0, 0, 0, 0, 0, 0, 0, 0, 0, 0, 0, 0, 0, 0, 0, 0, 0, 0, 0, 0
        DC8 0, 0, 0, 0, 0, 0, 0, 0, 0, 0, 0, 0, 0, 0, 0, 0, 0, 0, 0, 0, 0, 0, 0
        DC8 0, 0, 0, 0, 0, 0, 0, 0, 0, 0, 0, 0, 0, 0, 0, 0, 0, 0, 0, 0, 0, 0, 0
        DC8 0, 0, 0, 0, 0, 0, 0, 0, 0, 0, 0, 0, 0, 0, 0, 0, 0, 0, 0, 0, 0, 0, 0
        DC8 0, 0, 0, 0, 0, 0, 0, 0, 0, 0, 0, 0, 0, 0, 0, 0, 0, 0, 0, 0, 0, 0, 0
        DC8 0, 0, 0, 0, 0, 0, 0, 0, 0, 0, 0, 0, 0, 0, 0, 0, 0, 0, 0, 0, 0, 0, 0
        DC8 0, 0, 0, 0, 0, 0, 0, 0, 0, 0, 0, 0, 0, 0, 0, 0, 0, 0, 0, 0, 0, 0, 0
        DC8 0, 0, 0, 0, 0, 0, 0, 0, 0, 0, 0, 0, 0, 0, 0, 0, 0, 0, 0, 0, 0, 0, 0
        DC8 0, 0, 0, 0, 0, 0, 0, 0, 0, 0, 0, 0, 0, 0, 0, 0, 0, 0, 0, 0, 0, 0, 0
        DC8 0, 0, 0, 0, 0, 0, 0, 0, 0, 0, 0, 0, 0, 0, 0, 0, 0, 0, 0, 0, 0, 0, 0
        DC8 0, 0, 0, 0, 0, 0, 0, 0, 0, 0, 0, 0, 0, 0, 0, 0, 0, 0, 0, 0, 0, 0, 0
        DC8 0, 0, 0, 0, 0, 0, 0, 0, 0, 0, 0, 0, 0, 0, 0, 0, 0, 0, 0, 0, 0, 0, 0
        DC8 0, 0, 0, 0, 0, 0, 0, 0, 0, 0, 0, 0, 0, 0, 0, 0, 0, 0, 0, 0, 0, 0, 0
        DC8 0, 0, 0, 0, 0, 0, 0, 0, 0, 0, 0, 0, 0, 0, 0, 0, 0, 0, 0, 0, 0, 0, 0
        DC8 0, 0, 0, 0, 0, 0, 0, 0, 0, 0, 0, 0, 0, 0, 0, 0, 0, 0, 0, 0, 0, 0, 0
        DC8 0, 0, 0, 0, 0, 0, 0, 0, 0, 0, 0, 0, 0, 0, 0, 0, 0, 0, 0, 0, 0, 0, 0
        DC8 0, 0, 0, 0, 0, 0, 0, 0, 0, 0, 0, 0, 0, 0, 0, 0, 0, 0, 0, 0, 0, 0, 0
        DC8 0, 0, 0, 0, 0, 0, 0, 0, 0, 0, 0, 0, 0, 0, 0, 0, 0, 0, 0, 0, 0, 0, 0
        DC8 0, 0, 0, 0, 0, 0, 0, 0, 0, 0, 0, 0, 0, 0, 0, 0, 0, 0, 0, 0, 0, 0, 0
        DC8 0, 0, 0, 0, 0, 0, 0, 0, 0, 0, 0, 0, 0, 0, 0, 0, 0, 0, 0, 0, 0, 0, 0
        DC8 0, 0, 0, 0, 0, 0, 0, 0, 0, 0, 0, 0, 0, 0, 0, 0, 0, 0, 0, 0, 0, 0, 0
        DC8 0, 0, 0, 0, 0, 0, 0, 0, 0, 0, 0, 0, 0, 0, 0, 0, 0, 0, 0, 0, 0, 0, 0
        DC8 0, 0, 0, 0, 0, 0, 0, 0, 0, 0, 0, 0, 0, 0, 0, 0, 0, 0, 0, 0, 0, 0, 0
        DC8 0, 0, 0, 0, 0, 0, 0, 0, 0, 0, 0, 0, 0, 0, 0, 0, 0, 0, 0, 0, 0, 0, 0
        DC8 0, 0, 0, 0, 0, 0, 0, 0, 0, 0, 0, 0, 0, 0, 0, 0, 0, 0, 0, 0, 0, 0, 0
        DC8 0, 0, 0, 0, 0, 0, 0, 0, 0, 0, 0, 0, 0, 0, 0, 0, 0, 0, 0, 0, 0, 0, 0
        DC8 0, 0, 0, 0, 0, 0, 0, 0, 0, 0, 0, 0, 0, 0, 0, 0, 0, 0, 0, 0, 0, 0, 0
        DC8 0, 0, 0, 0, 0, 0, 0, 0, 0, 0, 0, 0, 0, 0, 0, 0, 0, 0, 0, 0, 0, 0, 0
        DC8 0, 0, 0, 0, 0, 0, 0, 0, 0, 0, 0, 0, 0, 0, 0, 0, 0, 0, 0, 0, 0, 0, 0
        DC8 0, 0, 0, 0, 0, 0, 0, 0, 0, 0, 0, 0, 0, 0, 0, 0, 0, 0, 0, 0, 0, 0, 0
        DC8 0, 0, 0, 0, 0, 0, 0, 0, 0, 0, 0, 0, 0, 0, 0, 0, 0, 0, 0, 0, 0, 0, 0
        DC8 0, 0, 0, 0, 0, 0, 0, 0, 0, 0, 0, 0, 0, 0, 0, 0, 0, 0, 0, 0, 0, 0, 0
        DC8 0, 0, 0, 0, 0, 0, 0, 0, 0, 0, 0, 0, 0, 0, 0, 0, 0, 0, 0, 0, 0, 0, 0
        DC8 0, 0, 0, 0, 0, 0, 0, 0, 0, 0, 0, 0, 0, 0, 0, 0, 0, 0, 0, 0, 0, 0, 0
        DC8 0, 0, 0, 0, 0, 0, 0, 0, 0, 0, 0, 0, 0, 0, 0, 0, 0, 0, 0, 0, 0, 0, 0
        DC8 0, 0, 0, 0, 0, 0, 0, 0, 0, 0, 0, 0, 0, 0, 0, 0, 0, 0, 0, 0, 0, 0, 0
        DC8 0, 0, 0, 0, 0, 0, 0, 0, 0, 0, 0, 0, 0, 0, 0, 0, 0, 0, 0, 0, 0, 0, 0
        DC8 0, 0, 0, 0, 0, 0, 0, 0, 0, 0, 0, 0, 0, 0, 0, 0, 0, 0, 0, 0, 0, 0, 0
        DC8 0, 0, 0, 0, 0, 0, 0, 0, 0, 0, 0, 0, 0, 0, 0, 0, 0, 0, 0, 0, 0, 0, 0
        DC8 0, 0, 0, 0, 0, 0, 0, 0, 0, 0, 0, 0, 0, 0, 0, 0, 0, 0, 0, 0, 0, 0, 0
        DC8 0, 0, 0, 0, 0, 0, 0, 0, 0, 0, 0, 0, 0, 0, 0, 0, 0, 0, 0, 0, 0, 0, 0
        DC8 0, 0, 0, 0, 0, 0, 0, 0, 0, 0, 0, 0, 0, 0, 0, 0, 0, 0, 0, 0, 0, 0, 0
        DC8 0, 0, 0, 0, 0, 0, 0, 0, 0, 0, 0, 0, 0, 0, 0, 0, 0, 0, 0, 0, 0, 0, 0
        DC8 0, 0, 0, 0, 0, 0, 0, 0, 0, 0, 0, 0, 0, 0, 0, 0, 0, 0, 0, 0, 0, 0, 0
        DC8 0, 0, 0, 0, 0, 0, 0, 0, 0, 0, 0, 0, 0, 0, 0, 0, 0, 0, 0, 0, 0, 0, 0
        DC8 0, 0, 0, 0, 0, 0, 0, 0, 0, 0, 0, 0, 0, 0, 0, 0, 0, 0, 0, 0, 0, 0, 0
        DC8 0, 0, 0, 0, 0, 0, 0, 0, 0, 0, 0, 0, 0, 0, 0, 0, 0, 0, 0, 0, 0, 0, 0
        DC8 0, 0, 0, 0, 0, 0, 0, 0, 0, 0, 0, 0, 0, 0, 0, 0, 0, 0, 0, 0, 0, 0, 0
        DC8 0, 0, 0, 0, 0, 0, 0, 0, 0, 0, 0, 0, 0, 0, 0, 0, 0, 0, 0, 0, 0, 0, 0
        DC8 0, 0, 0, 0, 0, 0, 0, 0, 0, 0, 0, 0, 0, 0, 0, 0, 0, 0, 0, 0, 0, 0, 0
        DC8 0, 0, 0, 0, 0, 0, 0, 0, 0, 0, 0, 0, 0, 0, 0, 0, 0, 0, 0, 0, 0, 0, 0
        DC8 0, 0, 0, 0, 0, 0, 0, 0, 0, 0, 0, 0, 0, 0, 0, 0, 0, 0, 0, 0, 0, 0, 0
        DC8 0, 0, 0, 0, 0, 0, 0, 0, 0, 0, 0, 0, 0, 0, 0, 0, 0, 0, 0, 0, 0, 0, 0
        DC8 0, 0, 0, 0, 0, 0, 0, 0, 0, 0, 0, 0, 0, 0, 0, 0, 0, 0, 0, 0, 0, 0, 0
        DC8 0, 0, 0, 0, 0, 0, 0, 0, 0, 0, 0, 0, 0, 0, 0, 0, 0, 0, 0, 0, 0, 0, 0
        DC8 0, 0, 0, 0, 0, 0, 0, 0, 0, 0, 0, 0, 0, 0, 0, 0, 0, 0, 0, 0, 0, 0, 0
        DC8 0, 0, 0, 0, 0, 0, 0, 0, 0, 0, 0, 0, 0, 0, 0, 0, 0, 0, 0, 0, 0, 0, 0
        DC8 0, 0, 0, 0, 0, 0, 0, 0, 0, 0, 0, 0, 0, 0, 0, 0, 0, 0, 0, 0, 0, 0, 0
        DC8 0, 0, 0, 0, 0, 0, 0, 0, 0, 0, 0, 0, 0, 0, 0, 0, 0, 0, 0, 0, 0, 0, 0
        DC8 0, 0, 0, 0, 0, 0, 0, 0, 0, 0, 0, 0, 0, 0, 0, 0, 0, 0, 0, 0, 0, 0, 0
        DC8 0, 0, 0, 0, 0, 0, 0, 0, 0, 0, 0, 0, 0, 0, 0, 0, 0, 0, 0, 0, 0, 0, 0
        DC8 0, 0, 0, 0, 0, 0, 0, 0, 0, 0, 0, 0, 0, 0, 0, 0, 0, 0, 0, 0, 0, 0, 0
        DC8 0, 0, 0, 0, 0, 0, 0, 0, 0, 0, 0, 0, 0, 0, 0, 0, 0, 0, 0, 0, 0, 0, 0
        DC8 0, 0, 0, 0, 0, 0, 0, 0, 0, 0, 0, 0, 0, 0, 0, 0, 0, 0, 0, 0, 0, 0, 0
        DC8 0, 0, 0, 0, 0, 0, 0, 0, 0, 0, 0, 0, 0, 0, 0, 0, 0, 0, 0, 0, 0, 0, 0
        DC8 0, 0, 0, 0, 0, 0, 0, 0, 0, 0, 0, 0, 0, 0, 0, 0, 0, 0, 0, 0, 0, 0, 0
        DC8 0, 0, 0, 0, 0, 0, 0, 0, 0, 0, 0, 0, 0, 0, 0, 0, 0, 0, 0, 0, 0, 0, 0
        DC8 0, 0, 0, 0, 0, 0, 0, 0, 0, 0, 0, 0, 0, 0, 0, 0, 0, 0, 0, 0, 0, 0, 0
        DC8 0, 0, 0, 0, 0, 0, 0, 0, 0, 0, 0, 0, 0, 0, 0, 0, 0, 0, 0, 0, 0, 0, 0
        DC8 0, 0, 0, 0, 0, 0, 0, 0, 0, 0, 0, 0, 0, 0, 0, 0, 0, 0, 0, 0, 0, 0, 0
        DC8 0, 0, 0, 0, 0, 0, 0, 0, 0, 0, 0, 0, 0, 0, 0, 0, 0, 0, 0, 0, 0, 0, 0
        DC8 0, 0, 0, 0, 0, 0, 0, 0, 0, 0, 0, 0, 0, 0, 0, 0, 0, 0, 0, 0, 0, 0, 0
        DC8 0, 0, 0, 0, 0, 0, 0, 0, 0, 0, 0, 0, 0, 0, 0, 0, 0, 0, 0, 0, 0, 0, 0
        DC8 0, 0, 0, 0, 0, 0, 0, 0, 0, 0, 0, 0, 0, 0, 0, 0, 0, 0, 0, 0, 0, 0, 0
        DC8 0, 0, 0, 0, 0, 0, 0, 0, 0, 0, 0, 0, 0, 0, 0, 0, 0, 0, 0, 0, 0, 0, 0
        DC8 0, 0, 0, 0, 0, 0, 0, 0, 0, 0, 0, 0, 0, 0, 0, 0, 0, 0, 0, 0, 0, 0, 0
        DC8 0, 0, 0, 0, 0, 0, 0, 0, 0, 0, 0, 0, 0, 0, 0, 0, 0, 0, 0, 0, 0, 0, 0
        DC8 0, 0, 0, 0, 0, 0, 0, 0, 0, 0, 0, 0, 0, 0, 0, 0, 0, 0, 0, 0, 0, 0, 0
        DC8 0, 0, 0, 0, 0, 0, 0, 0, 0, 0, 0, 0, 0, 0, 0, 0, 0, 0, 0, 0, 0, 0, 0
        DC8 0, 0, 0, 0, 0, 0, 0, 0, 0, 0, 0, 0, 0, 0, 0, 0, 0, 0, 0, 0, 0, 0, 0
        DC8 0, 0, 0, 0, 0, 0, 0, 0, 0, 0, 0, 0, 0, 0, 0, 0, 0, 0, 0, 0, 0, 0, 0
        DC8 0, 0, 0, 0, 0, 0, 0, 0, 0, 0, 0, 0, 0, 0, 0, 0, 0, 0, 0, 0, 0, 0, 0
        DC8 0, 0, 0, 0, 0, 0, 0, 0, 0, 0, 0, 0, 0, 0, 0, 0, 0, 0, 0, 0, 0, 0, 0
        DC8 0, 0, 0, 0, 0, 0, 0, 0, 0, 0, 0, 0, 0, 0, 0, 0, 0, 0, 0, 0, 0, 0, 0
        DC8 0, 0, 0, 0, 0, 0, 0, 0, 0, 0, 0, 0, 0, 0, 0, 0, 0, 0, 0, 0, 0, 0, 0
        DC8 0, 0, 0, 0, 0, 0, 0, 0, 0, 0, 0, 0, 0, 0, 0, 0, 0, 0, 0, 0, 0, 0, 0
        DC8 0, 0, 0, 0, 0, 0, 0, 0, 0, 0, 0, 0, 0, 0, 0, 0, 0, 0, 0, 0, 0, 0, 0
        DC8 0, 0, 0, 0, 0, 0, 0, 0, 0, 0, 0, 0, 0, 0, 0, 0, 0, 0, 0, 0, 0, 0, 0
        DC8 0, 0, 0, 0, 0, 0, 0, 0, 0, 0, 0, 0, 0, 0, 0, 0, 0, 0, 0, 0, 0, 0, 0
        DC8 0, 0, 0, 0, 0, 0, 0, 0, 0, 0, 0, 0, 0, 0, 0, 0, 0, 0, 0, 0, 0, 0, 0
        DC8 0, 0, 0, 0, 0, 0, 0, 0, 0, 0, 0, 0, 0, 0, 0, 0, 0, 0, 0, 0, 0, 0, 0
        DC8 0, 0, 0, 0, 0, 0, 0, 0, 0, 0, 0, 0, 0, 0, 0, 0, 0, 0, 0, 0, 0, 0, 0
        DC8 0, 0, 0, 0, 0, 0, 0, 0, 0, 0, 0, 0, 0, 0, 0, 0, 0, 0, 0, 0, 0, 0, 0
        DC8 0, 0, 0, 0, 0, 0, 0, 0, 0, 0, 0, 0, 0, 0, 0, 0, 0, 0, 0, 0, 0, 0, 0
        DC8 0, 0, 0, 0, 0, 0, 0, 0, 0, 0, 0, 0, 0, 0, 0, 0, 0, 0, 0, 0, 0, 0, 0
        DC8 0, 0, 0, 0, 0, 0, 0, 0, 0, 0, 0, 0, 0, 0, 0, 0, 0, 0, 0, 0, 0, 0, 0
        DC8 0, 0, 0, 0, 0, 0, 0, 0, 0, 0, 0, 0, 0, 0, 0, 0, 0, 0, 0, 0, 0, 0, 0
        DC8 0, 0, 0, 0, 0, 0, 0, 0, 0, 0, 0, 0, 0, 0, 0, 0, 0, 0, 0, 0, 0, 0, 0
        DC8 0, 0, 0, 0, 0, 0, 0, 0, 0, 0, 0, 0, 0, 0, 0, 0, 0, 0, 0, 0, 0, 0, 0
        DC8 0, 0, 0, 0, 0, 0, 0, 0, 0, 0, 0, 0, 0, 0, 0, 0, 0, 0, 0, 0, 0, 0, 0
        DC8 0, 0, 0, 0, 0, 0, 0, 0, 0, 0, 0, 0, 0, 0, 0, 0, 0, 0, 0, 0, 0, 0, 0
        DC8 0, 0, 0, 0, 0, 0, 0, 0, 0, 0, 0, 0, 0, 0, 0, 0, 0, 0, 0, 0, 0, 0, 0
        DC8 0, 0, 0, 0, 0, 0, 0, 0, 0, 0, 0, 0, 0, 0, 0, 0, 0, 0, 0, 0, 0, 0, 0
        DC8 0, 0, 0, 0, 0, 0, 0, 0, 0, 0, 0, 0, 0, 0, 0, 0, 0, 0, 0, 0, 0, 0, 0
        DC8 0, 0, 0, 0, 0, 0, 0, 0, 0, 0, 0, 0, 0, 0, 0, 0, 0, 0, 0, 0, 0, 0, 0
        DC8 0, 0, 0, 0, 0, 0, 0, 0, 0, 0, 0, 0, 0, 0, 0, 0, 0, 0, 0, 0, 0, 0, 0
        DC8 0, 0, 0, 0, 0, 0, 0, 0, 0, 0, 0, 0, 0, 0, 0, 0, 0, 0, 0, 0, 0, 0, 0
        DC8 0, 0, 0, 0, 0, 0, 0, 0, 0, 0, 0, 0, 0, 0, 0, 0, 0, 0, 0, 0, 0, 0, 0
        DC8 0, 0, 0, 0, 0, 0, 0, 0, 0, 0, 0, 0, 0, 0, 0, 0, 0, 0, 0, 0, 0, 0, 0
        DC8 0, 0, 0, 0, 0, 0, 0, 0, 0, 0, 0, 0, 0, 0, 0, 0, 0, 0, 0, 0, 0, 0, 0
        DC8 0, 0, 0, 0, 0, 0, 0, 0, 0, 0, 0, 0, 0, 0, 0, 0, 0, 0, 0, 0, 0, 0, 0
        DC8 0, 0, 0, 0, 0, 0, 0, 0, 0, 0, 0, 0, 0, 0, 0, 0, 0, 0, 0, 0, 0, 0, 0
        DC8 0, 0, 0, 0, 0, 0, 0, 0, 0, 0, 0, 0, 0, 0, 0, 0, 0, 0, 0, 0, 0, 0, 0
        DC8 0, 0, 0, 0, 0, 0, 0, 0, 0, 0, 0, 0, 0, 0, 0, 0, 0, 0, 0, 0, 0, 0, 0
        DC8 0, 0, 0, 0, 0, 0, 0, 0, 0, 0, 0, 0, 0, 0, 0, 0, 0, 0, 0, 0, 0, 0, 0
        DC8 0, 0, 0, 0, 0, 0, 0, 0, 0, 0, 0, 0, 0, 0, 0, 0, 0, 0, 0, 0, 0, 0, 0
        DC8 0, 0, 0, 0, 0, 0, 0, 0, 0, 0, 0, 0, 0, 0, 0, 0, 0, 0, 0, 0, 0, 0, 0
        DC8 0, 0, 0, 0, 0, 0, 0, 0, 0, 0, 0, 0, 0, 0, 0, 0, 0, 0, 0, 0, 0, 0, 0
        DC8 0, 0, 0, 0, 0, 0, 0, 0, 0, 0, 0, 0, 0, 0, 0, 0, 0, 0, 0, 0, 0, 0, 0
        DC8 0, 0, 0, 0, 0, 0, 0, 0, 0, 0, 0, 0, 0, 0, 0, 0, 0, 0, 0, 0, 0, 0, 0
        DC8 0, 0, 0, 0, 0, 0, 0, 0, 0, 0, 0, 0, 0, 0, 0, 0, 0, 0, 0, 0, 0, 0, 0
        DC8 0, 0, 0, 0, 0, 0, 0, 0, 0, 0, 0, 0, 0, 0, 0, 0, 0, 0, 0, 0, 0, 0, 0
        DC8 0, 0, 0, 0, 0, 0, 0, 0, 0, 0, 0, 0, 0, 0, 0, 0, 0, 0, 0, 0, 0, 0, 0
        DC8 0, 0, 0, 0, 0, 0, 0, 0, 0, 0, 0, 0, 0, 0, 0, 0, 0, 0, 0, 0, 0, 0, 0
        DC8 0, 0, 0, 0, 0, 0, 0, 0, 0, 0, 0, 0, 0, 0, 0, 0, 0, 0, 0, 0, 0, 0, 0
        DC8 0, 0, 0, 0, 0, 0, 0, 0, 0, 0, 0, 0, 0, 0, 0, 0, 0, 0, 0, 0, 0, 0, 0
        DC8 0, 0, 0, 0, 0, 0, 0, 0, 0, 0, 0, 0, 0, 0, 0, 0, 0, 0, 0, 0, 0, 0, 0
        DC8 0, 0, 0, 0, 0, 0, 0, 0, 0, 0, 0, 0, 0, 0, 0, 0, 0, 0, 0, 0, 0, 0, 0
        DC8 0, 0, 0, 0, 0, 0, 0, 0, 0, 0, 0, 0, 0, 0, 0, 0, 0, 0, 0, 0, 0, 0, 0
        DC8 0, 0, 0, 0, 0, 0, 0, 0, 0, 0, 0, 0, 0, 0, 0, 0, 0, 0, 0, 0, 0, 0, 0
        DC8 0, 0, 0, 0, 0, 0, 0, 0, 0, 0, 0, 0, 0, 0, 0, 0, 0, 0, 0, 0, 0, 0, 0
        DC8 0, 0, 0, 0, 0, 0, 0, 0, 0, 0, 0, 0, 0, 0, 0, 0, 0, 0, 0, 0, 0, 0, 0
        DC8 0, 0, 0, 0, 0, 0, 0, 0, 0, 0, 0, 0, 0, 0, 0, 0, 0, 0, 0, 0, 0, 0, 0
        DC8 0, 0, 0, 0, 0, 0, 0, 0, 0, 0, 0, 0, 0, 0, 0, 0, 0, 0, 0, 0, 0, 0, 0
        DC8 0, 0, 0, 0, 0, 0, 0, 0, 0, 0, 0, 0, 0, 0, 0, 0, 0, 0, 0, 0, 0, 0, 0
        DC8 0, 0, 0, 0, 0, 0, 0, 0, 0, 0, 0, 0, 0, 0, 0, 0, 0, 0, 0, 0, 0, 0, 0
        DC8 0, 0, 0, 0, 0, 0, 0, 0, 0, 0, 0, 0, 0, 0, 0, 0, 0, 0, 0, 0, 0, 0, 0
        DC8 0, 0, 0, 0, 0, 0, 0, 0, 0, 0, 0, 0, 0, 0, 0, 0, 0, 0, 0, 0, 0, 0, 0
        DC8 0, 0, 0, 0, 0, 0, 0, 0, 0, 0, 0, 0, 0, 0, 0, 0, 0, 0, 0, 0, 0, 0, 0
        DC8 0, 0, 0, 0, 0, 0, 0, 0, 0, 0, 0, 0, 0, 0, 0, 0, 0, 0, 0, 0, 0, 0, 0
        DC8 0, 0, 0, 0, 0, 0, 0, 0, 0, 0, 0, 0, 0, 0, 0, 0, 0, 0, 0, 0, 0, 0, 0
        DC8 0, 0, 0, 0, 0, 0, 0, 0, 0, 0, 0, 0, 0, 0, 0, 0, 0, 0, 0, 0, 0, 0, 0
        DC8 0, 0, 0, 0, 0, 0, 0, 0, 0, 0, 0, 0, 0, 0, 0, 0, 0, 0, 0, 0, 0, 0, 0
        DC8 0, 0, 0, 0, 0, 0, 0, 0, 0, 0, 0, 0, 0, 0, 0, 0, 0, 0, 0, 0, 0, 0, 0
        DC8 0, 0, 0, 0, 0, 0, 0, 0, 0, 0, 0, 0, 0, 0, 0, 0, 0, 0, 0, 0, 0, 0, 0
        DC8 0, 0, 0, 0, 0, 0, 0, 0, 0, 0, 0, 0, 0, 0, 0, 0, 0, 0, 0, 0, 0, 0, 0
        DC8 0, 0, 0, 0, 0, 0, 0, 0, 0, 0, 0, 0, 0, 0, 0, 0, 0, 0, 0, 0, 0, 0, 0
        DC8 0, 0, 0, 0, 0, 0, 0, 0, 0, 0, 0, 0, 0, 0, 0, 0, 0, 0, 0, 0, 0, 0, 0
        DC8 0, 0, 0, 0, 0, 0, 0, 0, 0, 0, 0, 0, 0, 0, 0, 0, 0, 0, 0, 0, 0, 0, 0
        DC8 0, 0, 0, 0, 0, 0, 0, 0, 0, 0, 0, 0, 0, 0, 0, 0, 0, 0, 0, 0, 0, 0, 0
        DC8 0, 0, 0, 0, 0, 0, 0, 0, 0, 0, 0, 0, 0, 0, 0, 0, 0, 0, 0, 0, 0, 0, 0
        DC8 0, 0, 0, 0, 0, 0, 0, 0, 0, 0, 0, 0, 0, 0, 0, 0, 0, 0, 0, 0, 0, 0, 0
        DC8 0, 0, 0, 0, 0, 0, 0, 0, 0, 0, 0, 0, 0, 0, 0, 0, 0, 0, 0, 0, 0, 0, 0
        DC8 0, 0, 0, 0, 0, 0, 0, 0, 0, 0, 0, 0, 0, 0, 0, 0, 0, 0, 0, 0, 0, 0, 0
        DC8 0, 0, 0, 0, 0, 0, 0, 0, 0, 0, 0, 0, 0, 0, 0, 0, 0, 0, 0, 0, 0, 0, 0
        DC8 0, 0, 0, 0, 0, 0, 0, 0, 0, 0, 0, 0, 0, 0, 0, 0, 0, 0, 0, 0, 0, 0, 0
        DC8 0, 0, 0, 0, 0, 0, 0, 0, 0, 0, 0, 0, 0, 0, 0, 0, 0, 0, 0, 0, 0, 0, 0
        DC8 0, 0, 0, 0, 0, 0, 0, 0, 0, 0, 0, 0, 0, 0, 0, 0, 0, 0, 0, 0, 0, 0, 0
        DC8 0, 0, 0, 0, 0, 0, 0, 0, 0, 0, 0, 0, 0, 0, 0, 0, 0, 0, 0, 0, 0, 0, 0
        DC8 0, 0, 0, 0, 0, 0, 0, 0, 0, 0, 0, 0, 0, 0, 0, 0, 0, 0, 0, 0, 0, 0, 0
        DC8 0, 0, 0, 0, 0, 0, 0, 0, 0, 0, 0, 0, 0, 0, 0, 0, 0, 0, 0, 0, 0, 0, 0
        DC8 0, 0, 0, 0, 0, 0, 0, 0, 0, 0, 0, 0, 0, 0, 0, 0, 0, 0, 0, 0, 0, 0, 0
        DC8 0, 0, 0, 0, 0, 0, 0, 0, 0, 0, 0, 0, 0, 0, 0, 0, 0, 0, 0, 0, 0, 0, 0
        DC8 0, 0, 0, 0, 0, 0, 0, 0, 0, 0, 0, 0, 0, 0, 0, 0, 0, 0, 0, 0, 0, 0, 0
        DC8 0, 0, 0, 0, 0, 0, 0, 0, 0, 0, 0, 0, 0, 0, 0, 0, 0, 0, 0, 0, 0, 0, 0
        DC8 0, 0, 0, 0, 0, 0, 0, 0, 0, 0, 0, 0, 0, 0, 0, 0, 0, 0, 0, 0, 0, 0, 0
        DC8 0, 0, 0, 0, 0, 0, 0, 0, 0, 0, 0, 0, 0, 0, 0, 0, 0, 0, 0, 0, 0, 0, 0
        DC8 0, 0, 0, 0, 0, 0, 0, 0, 0, 0, 0, 0, 0, 0, 0, 0, 0, 0, 0, 0, 0, 0, 0
        DC8 0, 0, 0, 0, 0, 0, 0, 0, 0, 0, 0, 0, 0, 0, 0, 0, 0, 0, 0, 0, 0, 0, 0
        DC8 0, 0, 0, 0, 0, 0, 0, 0, 0, 0, 0, 0, 0, 0, 0, 0, 0, 0, 0, 0, 0, 0, 0
        DC8 0, 0, 0, 0, 0, 0, 0, 0, 0, 0, 0, 0, 0, 0, 0, 0, 0, 0, 0, 0, 0, 0, 0
        DC8 0, 0, 0, 0, 0, 0, 0, 0, 0, 0, 0, 0, 0, 0, 0, 0, 0, 0, 0, 0, 0, 0, 0
        DC8 0, 0, 0, 0, 0, 0, 0, 0, 0, 0, 0, 0, 0, 0, 0, 0, 0, 0, 0, 0, 0, 0, 0
        DC8 0, 0, 0, 0, 0, 0, 0, 0, 0, 0, 0, 0, 0, 0, 0, 0, 0, 0, 0, 0, 0, 0, 0
        DC8 0, 0, 0, 0, 0, 0, 0, 0, 0, 0, 0, 0, 0, 0, 0, 0, 0, 0, 0, 0, 0, 0, 0
        DC8 0, 0, 0, 0, 0, 0, 0, 0, 0, 0, 0, 0, 0, 0, 0, 0, 0, 0, 0, 0, 0, 0, 0
        DC8 0, 0, 0, 0, 0, 0, 0, 0, 0, 0, 0, 0, 0, 0, 0, 0, 0, 0, 0, 0, 0, 0, 0
        DC8 0, 0, 0, 0, 0, 0, 0, 0, 0, 0, 0, 0, 0, 0, 0, 0, 0, 0, 0, 0, 0, 0, 0
        DC8 0, 0, 0, 0, 0, 0, 0, 0, 0, 0, 0, 0, 0, 0, 0, 0, 0, 0, 0, 0, 0, 0, 0
        DC8 0, 0, 0, 0, 0, 0, 0, 0, 0, 0, 0, 0, 0, 0, 0, 0, 0, 0, 0, 0, 0, 0, 0
        DC8 0, 0, 0, 0, 0, 0, 0, 0, 0, 0, 0, 0, 0, 0, 0, 0, 0, 0, 0, 0, 0, 0, 0
        DC8 0, 0, 0, 0, 0, 0, 0, 0, 0, 0, 0, 0, 0, 0, 0, 0, 0, 0, 0, 0, 0, 0, 0
        DC8 0, 0, 0, 0, 0, 0, 0, 0, 0, 0, 0, 0, 0, 0, 0, 0, 0, 0, 0, 0, 0, 0, 0
        DC8 0, 0, 0, 0, 0, 0, 0, 0, 0, 0, 0, 0, 0, 0, 0, 0, 0, 0, 0, 0, 0, 0, 0
        DC8 0, 0, 0, 0, 0, 0, 0, 0, 0, 0, 0, 0, 0, 0, 0, 0, 0, 0, 0, 0, 0, 0, 0
        DC8 0, 0, 0, 0, 0, 0, 0, 0, 0, 0, 0, 0, 0, 0, 0, 0, 0, 0, 0, 0, 0, 0, 0
        DC8 0, 0, 0, 0, 0, 0, 0, 0, 0, 0, 0, 0, 0, 0, 0, 0, 0, 0, 0, 0, 0, 0, 0
        DC8 0, 0, 0, 0, 0, 0, 0, 0, 0, 0, 0, 0, 0, 0, 0, 0, 0, 0, 0, 0, 0, 0, 0
        DC8 0, 0, 0, 0, 0, 0, 0, 0, 0, 0, 0, 0, 0, 0, 0, 0, 0, 0, 0, 0, 0, 0, 0
        DC8 0, 0, 0, 0, 0, 0, 0, 0, 0, 0, 0, 0, 0, 0, 0, 0, 0, 0, 0, 0, 0, 0, 0
        DC8 0, 0, 0, 0, 0, 0, 0, 0, 0, 0, 0, 0, 0, 0, 0, 0, 0, 0, 0, 0, 0, 0, 0
        DC8 0, 0, 0, 0, 0, 0, 0, 0, 0, 0, 0, 0, 0, 0, 0, 0, 0, 0, 0, 0, 0, 0, 0
        DC8 0, 0, 0, 0, 0, 0, 0, 0, 0, 0, 0, 0, 0, 0, 0, 0, 0, 0, 0, 0, 0, 0, 0
        DC8 0, 0, 0, 0, 0, 0, 0, 0, 0, 0, 0, 0, 0, 0, 0, 0, 0, 0, 0, 0, 0, 0, 0
        DC8 0, 0, 0, 0, 0, 0, 0, 0, 0, 0, 0, 0, 0, 0, 0, 0, 0, 0, 0, 0, 0, 0, 0
        DC8 0, 0, 0, 0, 0, 0, 0, 0, 0, 0, 0, 0, 0, 0, 0, 0, 0, 0, 0, 0, 0, 0, 0
        DC8 0, 0, 0, 0, 0, 0, 0, 0, 0, 0, 0, 0, 0, 0, 0, 0, 0, 0, 0, 0, 0, 0, 0
        DC8 0, 0, 0, 0, 0, 0, 0, 0, 0, 0, 0, 0, 0, 0, 0, 0, 0, 0, 0, 0, 0, 0, 0
        DC8 0, 0, 0, 0, 0, 0, 0, 0, 0, 0, 0, 0, 0, 0, 0, 0, 0, 0, 0, 0, 0, 0, 0
        DC8 0, 0, 0, 0, 0, 0, 0, 0, 0, 0, 0, 0, 0, 0, 0, 0, 0, 0, 0, 0, 0, 0, 0
        DC8 0, 0, 0, 0, 0, 0, 0, 0, 0, 0, 0, 0, 0, 0, 0, 0, 0, 0, 0, 0, 0, 0, 0
        DC8 0, 0, 0, 0, 0, 0, 0, 0, 0, 0, 0, 0, 0, 0, 0, 0, 0, 0, 0, 0, 0, 0, 0
        DC8 0, 0, 0, 0, 0, 0, 0, 0, 0, 0, 0, 0, 0, 0, 0, 0, 0, 0, 0, 0, 0, 0, 0
        DC8 0, 0, 0, 0, 0, 0, 0, 0, 0, 0, 0, 0, 0, 0, 0, 0, 0, 0, 0, 0, 0, 0, 0
        DC8 0, 0, 0, 0, 0, 0, 0, 0, 0, 0, 0, 0, 0, 0, 0, 0, 0, 0, 0, 0, 0, 0, 0
        DC8 0, 0, 0, 0, 0, 0, 0, 0, 0, 0, 0, 0, 0, 0, 0, 0, 0, 0, 0, 0, 0, 0, 0
        DC8 0, 0, 0, 0, 0, 0, 0, 0, 0, 0, 0, 0, 0, 0, 0, 0, 0, 0, 0, 0, 0, 0, 0
        DC8 0, 0, 0, 0, 0, 0, 0, 0, 0, 0, 0, 0, 0, 0, 0, 0, 0, 0, 0, 0, 0, 0, 0
        DC8 0, 0, 0, 0, 0, 0, 0, 0, 0, 0, 0, 0, 0, 0, 0, 0, 0, 0, 0, 0, 0, 0, 0
        DC8 0, 0, 0, 0, 0, 0, 0, 0, 0, 0, 0, 0, 0, 0, 0, 0, 0, 0, 0, 0, 0, 0, 0
        DC8 0, 0, 0, 0, 0, 0, 0, 0, 0, 0, 0, 0, 0, 0, 0, 0, 0, 0, 0, 0, 0, 0, 0
        DC8 0, 0, 0, 0, 0, 0, 0, 0, 0, 0, 0, 0, 0, 0, 0, 0, 0, 0, 0, 0, 0, 0, 0
        DC8 0, 0, 0, 0, 0, 0, 0, 0, 0, 0, 0, 0, 0, 0, 0, 0, 0, 0, 0, 0, 0, 0, 0
        DC8 0, 0, 0, 0, 0, 0, 0, 0, 0, 0, 0, 0, 0, 0, 0, 0, 0, 0, 0, 0, 0, 0, 0
        DC8 0, 0, 0, 0, 0, 0, 0, 0, 0, 0, 0, 0, 0, 0, 0, 0, 0, 0, 0, 0, 0, 0, 0
        DC8 0, 0, 0, 0, 0, 0, 0, 0, 0, 0, 0, 0, 0, 0, 0, 0, 0, 0, 0, 0, 0, 0, 0
        DC8 0, 0, 0, 0, 0, 0, 0, 0, 0, 0, 0, 0, 0, 0, 0, 0, 0, 0, 0, 0, 0, 0, 0
        DC8 0, 0, 0, 0, 0, 0, 0, 0, 0, 0, 0, 0, 0, 0, 0, 0, 0, 0, 0, 0, 0, 0, 0
        DC8 0, 0, 0, 0, 0, 0, 0, 0, 0, 0, 0, 0, 0, 0, 0, 0, 0, 0, 0, 0, 0, 0, 0
        DC8 0, 0, 0, 0, 0, 0, 0, 0, 0, 0, 0, 0, 0, 0, 0, 0, 0, 0, 0, 0, 0, 0, 0
        DC8 0, 0, 0, 0, 0, 0, 0, 0, 0, 0, 0, 0, 0, 0, 0, 0, 0, 0, 0, 0, 0, 0, 0
        DC8 0, 0, 0, 0, 0, 0, 0, 0, 0, 0, 0, 0, 0, 0, 0, 0, 0, 0, 0, 0, 0, 0, 0
        DC8 0, 0, 0, 0, 0, 0, 0, 0, 0, 0, 0, 0, 0, 0, 0, 0, 0, 0, 0, 0, 0, 0, 0
        DC8 0, 0, 0, 0, 0, 0, 0, 0, 0, 0, 0, 0, 0, 0, 0, 0, 0, 0, 0, 0, 0, 0, 0
        DC8 0, 0, 0, 0, 0, 0, 0, 0, 0, 0, 0, 0, 0, 0, 0, 0, 0, 0, 0, 0, 0, 0, 0
        DC8 0, 0, 0, 0, 0, 0, 0, 0, 0, 0, 0, 0, 0, 0, 0, 0, 0, 0, 0, 0, 0, 0, 0
        DC8 0, 0, 0, 0, 0, 0, 0, 0, 0, 0, 0, 0, 0, 0, 0, 0, 0, 0, 0, 0, 0, 0, 0
        DC8 0, 0, 0, 0, 0, 0, 0, 0, 0, 0, 0, 0, 0, 0, 0, 0, 0, 0, 0, 0, 0, 0, 0
        DC8 0, 0, 0, 0, 0, 0, 0, 0, 0, 0, 0, 0, 0, 0, 0, 0, 0, 0, 0, 0, 0, 0, 0
        DC8 0, 0, 0, 0, 0, 0, 0, 0, 0, 0, 0, 0, 0, 0, 0, 0, 0, 0, 0, 0, 0, 0, 0
        DC8 0, 0, 0, 0, 0, 0, 0, 0, 0, 0, 0, 0, 0, 0, 0, 0, 0, 0, 0, 0, 0, 0, 0
        DC8 0, 0, 0, 0, 0, 0, 0, 0, 0, 0, 0, 0, 0, 0, 0, 0, 0, 0, 0, 0, 0, 0, 0
        DC8 0, 0, 0, 0, 0, 0, 0, 0, 0, 0, 0, 0, 0, 0, 0, 0, 0, 0, 0, 0, 0, 0, 0
        DC8 0, 0, 0, 0, 0, 0, 0, 0, 0, 0, 0, 0, 0, 0, 0, 0, 0, 0, 0, 0, 0, 0, 0
        DC8 0, 0, 0, 0, 0, 0, 0, 0, 0, 0, 0, 0, 0, 0, 0, 0, 0, 0, 0, 0, 0, 0, 0
        DC8 0, 0, 0, 0, 0, 0, 0, 0, 0, 0, 0, 0, 0, 0, 0, 0, 0, 0, 0, 0, 0, 0, 0
        DC8 0, 0, 0, 0, 0, 0, 0, 0, 0, 0, 0, 0, 0, 0, 0, 0, 0, 0, 0, 0, 0, 0, 0
        DC8 0, 0, 0, 0, 0, 0, 0, 0, 0, 0, 0, 0, 0, 0, 0, 0, 0, 0, 0, 0, 0, 0, 0
        DC8 0, 0, 0, 0, 0, 0, 0, 0, 0, 0, 0, 0, 0, 0, 0, 0, 0, 0, 0, 0, 0, 0, 0
        DC8 0, 0, 0, 0, 0, 0, 0, 0, 0, 0, 0, 0, 0, 0, 0, 0, 0, 0, 0, 0, 0, 0, 0
        DC8 0, 0, 0, 0, 0, 0, 0, 0, 0, 0, 0, 0, 0, 0, 0, 0, 0, 0, 0, 0, 0, 0, 0
        DC8 0, 0, 0, 0, 0, 0, 0, 0, 0, 0, 0, 0, 0, 0, 0, 0, 0, 0, 0, 0, 0, 0, 0
        DC8 0, 0, 0, 0, 0, 0, 0, 0, 0, 0, 0, 0, 0, 0, 0, 0, 0, 0, 0, 0, 0, 0, 0
        DC8 0, 0, 0, 0, 0, 0, 0, 0, 0, 0, 0, 0, 0, 0, 0, 0, 0, 0, 0, 0, 0, 0, 0
        DC8 0, 0, 0, 0, 0, 0, 0, 0, 0, 0, 0, 0, 0, 0, 0, 0, 0, 0, 0, 0, 0, 0, 0
        DC8 0, 0, 0, 0, 0, 0, 0, 0, 0, 0, 0, 0, 0, 0, 0, 0, 0, 0, 0, 0, 0, 0, 0
        DC8 0, 0, 0, 0, 0, 0, 0, 0, 0, 0, 0, 0, 0, 0, 0, 0, 0, 0, 0, 0, 0, 0, 0
        DC8 0, 0, 0, 0, 0, 0, 0, 0, 0, 0, 0, 0, 0, 0, 0, 0, 0, 0, 0, 0, 0, 0, 0
        DC8 0, 0, 0, 0, 0, 0, 0, 0, 0, 0, 0, 0, 0, 0, 0, 0, 0, 0, 0, 0, 0, 0, 0
        DC8 0, 0, 0, 0, 0, 0, 0, 0, 0, 0, 0, 0, 0, 0, 0, 0, 0, 0, 0, 0, 0, 0, 0
        DC8 0, 0, 0, 0, 0, 0, 0, 0, 0, 0, 0, 0, 0, 0, 0, 0, 0, 0, 0, 0, 0, 0, 0
        DC8 0, 0, 0, 0, 0, 0, 0, 0, 0, 0, 0, 0, 0, 0, 0, 0, 0, 0, 0, 0, 0, 0, 0
        DC8 0, 0, 0, 0, 0, 0, 0, 0, 0, 0, 0, 0, 0, 0, 0, 0, 0, 0, 0, 0, 0, 0, 0
        DC8 0, 0, 0, 0, 0, 0, 0, 0, 0, 0, 0, 0, 0, 0, 0, 0, 0, 0, 0, 0, 0, 0, 0
        DC8 0, 0, 0, 0, 0, 0, 0, 0, 0, 0, 0, 0, 0, 0, 0, 0, 0, 0, 0, 0, 0, 0, 0
        DC8 0, 0, 0, 0, 0, 0, 0, 0, 0, 0, 0, 0, 0, 0, 0, 0, 0, 0, 0, 0, 0, 0, 0
        DC8 0, 0, 0, 0, 0, 0, 0, 0, 0, 0, 0, 0, 0, 0, 0, 0, 0, 0, 0, 0, 0, 0, 0
        DC8 0, 0, 0, 0, 0, 0, 0, 0, 0, 0, 0, 0, 0, 0, 0, 0, 0, 0, 0, 0, 0, 0, 0
        DC8 0, 0, 0, 0, 0, 0, 0, 0, 0, 0, 0, 0, 0, 0, 0, 0, 0, 0, 0, 0, 0, 0, 0
        DC8 0, 0, 0, 0, 0, 0, 0, 0, 0, 0, 0, 0, 0, 0, 0, 0, 0, 0, 0, 0, 0, 0, 0
        DC8 0, 0, 0, 0, 0, 0, 0, 0, 0, 0, 0, 0, 0, 0, 0, 0, 0, 0, 0, 0, 0, 0, 0
        DC8 0, 0, 0, 0, 0, 0, 0, 0, 0, 0, 0, 0, 0, 0, 0, 0, 0, 0, 0, 0, 0, 0, 0
        DC8 0, 0, 0, 0, 0, 0, 0, 0, 0, 0, 0, 0, 0, 0, 0, 0, 0, 0, 0, 0, 0, 0, 0
        DC8 0, 0, 0, 0, 0, 0, 0, 0, 0, 0, 0, 0, 0, 0, 0, 0, 0, 0, 0, 0, 0, 0, 0
        DC8 0, 0, 0, 0, 0, 0, 0, 0, 0, 0, 0, 0, 0, 0, 0, 0, 0, 0, 0, 0, 0, 0, 0
        DC8 0, 0, 0, 0, 0, 0, 0, 0, 0, 0, 0, 0, 0, 0, 0, 0, 0, 0, 0, 0, 0, 0, 0
        DC8 0, 0, 0, 0, 0, 0, 0, 0, 0, 0, 0, 0, 0, 0, 0, 0, 0, 0, 0, 0, 0, 0, 0
        DC8 0, 0, 0, 0, 0, 0, 0, 0, 0, 0, 0, 0, 0, 0, 0, 0, 0, 0, 0, 0, 0, 0, 0
        DC8 0, 0, 0, 0, 0, 0, 0, 0, 0, 0, 0, 0, 0, 0, 0, 0, 0, 0, 0, 0, 0, 0, 0
        DC8 0, 0, 0, 0, 0, 0, 0, 0, 0, 0, 0, 0, 0, 0, 0, 0, 0, 0, 0, 0, 0, 0, 0
        DC8 0, 0, 0, 0, 0, 0, 0, 0, 0, 0, 0, 0, 0, 0, 0, 0, 0, 0, 0, 0, 0, 0, 0
        DC8 0, 0, 0, 0, 0, 0, 0, 0, 0, 0, 0, 0, 0, 0, 0, 0, 0, 0, 0, 0, 0, 0, 0
        DC8 0, 0, 0, 0, 0, 0, 0, 0, 0, 0, 0, 0, 0, 0, 0, 0, 0, 0, 0, 0, 0, 0, 0
        DC8 0, 0, 0, 0, 0, 0, 0, 0, 0, 0, 0, 0, 0, 0, 0, 0, 0, 0, 0, 0, 0, 0, 0
        DC8 0, 0, 0, 0, 0, 0, 0, 0, 0, 0, 0, 0, 0, 0, 0, 0, 0, 0, 0, 0, 0, 0, 0
        DC8 0, 0, 0, 0, 0, 0, 0, 0, 0, 0, 0, 0, 0, 0, 0, 0, 0, 0, 0, 0, 0, 0, 0
        DC8 0, 0, 0, 0, 0, 0, 0, 0, 0, 0, 0, 0, 0, 0, 0, 0, 0, 0, 0, 0, 0, 0, 0
        DC8 0, 0, 0, 0, 0, 0, 0, 0, 0, 0, 0, 0, 0, 0, 0, 0, 0, 0, 0, 0, 0, 0, 0
        DC8 0, 0, 0, 0, 0, 0, 0, 0, 0, 0, 0, 0, 0, 0, 0, 0, 0, 0, 0, 0, 0, 0, 0
        DC8 0, 0, 0, 0, 0, 0, 0, 0, 0, 0, 0, 0, 0, 0, 0, 0, 0, 0, 0, 0, 0, 0, 0
        DC8 0, 0, 0, 0, 0, 0, 0, 0, 0, 0, 0, 0, 0, 0, 0, 0, 0, 0, 0, 0, 0, 0, 0
        DC8 0, 0, 0, 0, 0, 0, 0, 0, 0, 0, 0, 0, 0, 0, 0, 0, 0, 0, 0, 0, 0, 0, 0
        DC8 0, 0, 0, 0, 0, 0, 0, 0, 0, 0, 0, 0, 0, 0, 0, 0, 0, 0, 0, 0, 0, 0, 0
        DC8 0, 0, 0, 0, 0, 0, 0, 0, 0, 0, 0, 0, 0, 0, 0, 0, 0, 0, 0, 0, 0, 0, 0
        DC8 0, 0, 0, 0, 0, 0, 0, 0, 0, 0, 0, 0, 0, 0, 0, 0, 0, 0, 0, 0, 0, 0, 0
        DC8 0, 0, 0, 0, 0, 0, 0, 0, 0, 0, 0, 0, 0, 0, 0, 0, 0, 0, 0, 0, 0, 0, 0
        DC8 0, 0, 0, 0, 0, 0, 0, 0, 0, 0, 0, 0, 0, 0, 0, 0, 0, 0, 0, 0, 0, 0, 0
        DC8 0, 0, 0, 0, 0, 0, 0, 0, 0, 0, 0, 0, 0, 0, 0, 0, 0, 0, 0, 0, 0, 0, 0
        DC8 0, 0, 0, 0, 0, 0, 0, 0, 0, 0, 0, 0, 0, 0, 0, 0, 0, 0, 0, 0, 0, 0, 0
        DC8 0, 0, 0, 0, 0, 0, 0, 0, 0, 0, 0, 0, 0, 0, 0, 0, 0, 0, 0, 0, 0, 0, 0
        DC8 0, 0, 0, 0, 0, 0, 0, 0, 0, 0, 0, 0, 0, 0, 0, 0, 0, 0, 0, 0, 0, 0, 0
        DC8 0, 0, 0, 0, 0, 0, 0, 0, 0, 0, 0, 0, 0, 0, 0, 0, 0, 0, 0, 0, 0, 0, 0
        DC8 0, 0, 0, 0, 0, 0, 0, 0, 0, 0, 0, 0, 0, 0, 0, 0, 0, 0, 0, 0, 0, 0, 0
        DC8 0, 0, 0, 0, 0, 0, 0, 0, 0, 0, 0, 0, 0, 0, 0, 0, 0, 0, 0, 0, 0, 0, 0
        DC8 0, 0, 0, 0, 0, 0, 0, 0, 0, 0, 0, 0, 0, 0, 0, 0, 0, 0, 0, 0, 0, 0, 0
        DC8 0, 0, 0, 0, 0, 0, 0, 0, 0, 0, 0, 0, 0, 0, 0, 0, 0, 0, 0, 0, 0, 0, 0
        DC8 0, 0, 0, 0, 0, 0, 0, 0, 0, 0, 0, 0, 0, 0, 0, 0, 0, 0, 0, 0, 0, 0, 0
        DC8 0, 0, 0, 0, 0, 0, 0, 0, 0, 0, 0, 0, 0, 0, 0, 0, 0, 0, 0, 0, 0, 0, 0
        DC8 0, 0, 0, 0, 0, 0, 0, 0, 0, 0, 0, 0, 0, 0, 0, 0, 0, 0, 0, 0, 0, 0, 0
        DC8 0, 0, 0, 0, 0, 0, 0, 0, 0, 0, 0, 0, 0, 0, 0, 0, 0, 0, 0, 0, 0, 0, 0
        DC8 0, 0, 0, 0, 0, 0, 0, 0, 0, 0, 0, 0, 0, 0, 0, 0, 0, 0, 0, 0, 0, 0, 0
        DC8 0, 0, 0, 0, 0, 0, 0, 0, 0, 0, 0, 0, 0, 0, 0, 0, 0, 0, 0, 0, 0, 0, 0
        DC8 0, 0, 0, 0, 0, 0, 0, 0, 0, 0, 0, 0, 0, 0, 0, 0, 0, 0, 0, 0, 0, 0, 0
        DC8 0, 0, 0, 0, 0, 0, 0, 0, 0, 0, 0, 0, 0, 0, 0, 0, 0, 0, 0, 0, 0, 0, 0
        DC8 0, 0, 0, 0, 0, 0, 0, 0, 0, 0, 0, 0, 0, 0, 0, 0, 0, 0, 0, 0, 0, 0, 0
        DC8 0, 0, 0, 0, 0, 0, 0, 0, 0, 0, 0, 0, 0, 0, 0, 0, 0, 0, 0, 0, 0, 0, 0
        DC8 0, 0, 0, 0, 0, 0, 0, 0, 0, 0, 0, 0, 0, 0, 0, 0, 0, 0, 0, 0, 0, 0, 0
        DC8 0, 0, 0, 0, 0, 0, 0, 0, 0, 0, 0, 0, 0, 0, 0, 0, 0, 0, 0, 0, 0, 0, 0
        DC8 0, 0, 0, 0, 0, 0, 0, 0, 0, 0, 0, 0, 0, 0, 0, 0, 0, 0, 0, 0, 0, 0, 0
        DC8 0, 0, 0, 0, 0, 0, 0, 0, 0, 0, 0, 0, 0, 0, 0, 0, 0, 0, 0, 0, 0, 0, 0
        DC8 0, 0, 0, 0, 0, 0, 0, 0, 0, 0, 0, 0, 0, 0, 0, 0, 0, 0, 0, 0, 0, 0, 0
        DC8 0, 0, 0, 0, 0, 0, 0, 0, 0, 0, 0, 0, 0, 0, 0, 0, 0, 0, 0, 0, 0, 0, 0
        DC8 0, 0, 0, 0, 0, 0, 0, 0, 0, 0, 0, 0, 0, 0, 0, 0, 0, 0, 0, 0, 0, 0, 0
        DC8 0, 0, 0, 0, 0, 0, 0, 0, 0, 0, 0, 0, 0, 0, 0, 0, 0, 0, 0, 0, 0, 0, 0
        DC8 0, 0, 0, 0, 0, 0, 0, 0, 0, 0, 0, 0, 0, 0, 0, 0, 0, 0, 0, 0, 0, 0, 0
        DC8 0, 0, 0, 0, 0, 0, 0, 0, 0, 0, 0, 0, 0, 0, 0, 0, 0, 0, 0, 0, 0, 0, 0
        DC8 0, 0, 0, 0, 0, 0, 0, 0, 0, 0, 0, 0, 0, 0, 0, 0, 0, 0, 0, 0, 0, 0, 0
        DC8 0, 0, 0, 0, 0, 0, 0, 0, 0, 0, 0, 0, 0, 0, 0, 0, 0, 0, 0, 0, 0, 0, 0
        DC8 0, 0, 0, 0, 0, 0, 0, 0, 0, 0, 0, 0, 0, 0, 0, 0, 0, 0, 0, 0, 0, 0, 0
        DC8 0, 0, 0, 0, 0, 0, 0, 0, 0, 0, 0, 0, 0, 0, 0, 0, 0, 0, 0, 0, 0, 0, 0
        DC8 0, 0, 0, 0, 0, 0, 0, 0, 0, 0, 0, 0, 0, 0, 0, 0, 0, 0, 0, 0, 0, 0, 0
        DC8 0, 0, 0, 0, 0, 0, 0, 0, 0, 0, 0, 0, 0, 0, 0, 0, 0, 0, 0, 0, 0, 0, 0
        DC8 0, 0, 0, 0, 0, 0, 0, 0, 0, 0, 0, 0, 0, 0, 0, 0, 0, 0, 0, 0, 0, 0, 0
        DC8 0, 0, 0, 0, 0, 0, 0, 0, 0, 0, 0, 0, 0, 0, 0, 0, 0, 0, 0, 0, 0, 0, 0
        DC8 0, 0, 0, 0, 0, 0, 0, 0, 0, 0, 0, 0, 0, 0, 0, 0, 0, 0, 0, 0, 0, 0, 0
        DC8 0, 0, 0, 0, 0, 0, 0, 0, 0, 0, 0, 0, 0, 0, 0, 0, 0, 0, 0, 0, 0, 0, 0
        DC8 0, 0, 0, 0, 0, 0, 0, 0, 0, 0, 0, 0, 0, 0, 0, 0, 0, 0, 0, 0, 0, 0, 0
        DC8 0, 0, 0, 0, 0, 0, 0, 0, 0, 0, 0, 0, 0, 0, 0, 0, 0, 0, 0, 0, 0, 0, 0
        DC8 0, 0, 0, 0, 0, 0, 0, 0, 0, 0, 0, 0, 0, 0, 0, 0, 0, 0, 0, 0, 0, 0, 0
        DC8 0, 0, 0, 0, 0, 0, 0, 0, 0, 0, 0, 0, 0, 0, 0, 0, 0, 0, 0, 0, 0, 0, 0
        DC8 0, 0, 0, 0, 0, 0, 0, 0, 0, 0, 0, 0, 0, 0, 0, 0, 0, 0, 0, 0, 0, 0, 0
        DC8 0, 0, 0, 0, 0, 0, 0, 0, 0, 0, 0, 0, 0, 0, 0, 0, 0, 0, 0, 0, 0, 0, 0
        DC8 0, 0, 0, 0, 0, 0, 0, 0, 0, 0, 0, 0, 0, 0, 0, 0, 0, 0, 0, 0, 0, 0, 0
        DC8 0, 0, 0, 0, 0, 0, 0, 0, 0, 0, 0, 0, 0, 0, 0, 0, 0, 0, 0, 0, 0, 0, 0
        DC8 0, 0, 0, 0, 0, 0, 0, 0, 0, 0, 0, 0, 0, 0, 0, 0, 0, 0, 0, 0, 0, 0, 0
        DC8 0, 0, 0, 0, 0, 0, 0, 0, 0, 0, 0, 0, 0, 0, 0, 0, 0, 0, 0, 0, 0, 0, 0
        DC8 0, 0, 0, 0, 0, 0, 0, 0, 0, 0, 0, 0, 0, 0, 0, 0, 0, 0, 0, 0, 0, 0, 0
        DC8 0, 0, 0, 0, 0, 0, 0, 0, 0, 0, 0, 0, 0, 0, 0, 0, 0, 0, 0, 0, 0, 0, 0
        DC8 0, 0, 0, 0, 0, 0, 0, 0, 0, 0, 0, 0, 0, 0, 0, 0, 0, 0, 0, 0, 0, 0, 0
        DC8 0, 0, 0, 0, 0, 0, 0, 0, 0, 0, 0, 0, 0, 0, 0, 0, 0, 0, 0, 0, 0, 0, 0
        DC8 0, 0, 0, 0, 0, 0, 0, 0, 0, 0, 0, 0, 0, 0, 0, 0, 0, 0, 0, 0, 0, 0, 0
        DC8 0, 0, 0, 0, 0, 0, 0, 0, 0, 0, 0, 0, 0, 0, 0, 0, 0, 0, 0, 0, 0, 0, 0
        DC8 0, 0, 0, 0, 0, 0, 0, 0, 0, 0, 0, 0, 0, 0, 0, 0, 0, 0, 0, 0, 0, 0, 0
        DC8 0, 0, 0, 0, 0, 0, 0, 0, 0, 0, 0, 0, 0, 0, 0, 0, 0, 0, 0, 0, 0, 0, 0
        DC8 0, 0, 0, 0, 0, 0, 0, 0, 0, 0, 0, 0, 0, 0, 0, 0, 0, 0, 0, 0, 0, 0, 0
        DC8 0, 0, 0, 0, 0, 0, 0, 0, 0, 0, 0, 0, 0, 0, 0, 0, 0, 0, 0, 0, 0, 0, 0
        DC8 0, 0, 0, 0, 0, 0, 0, 0, 0, 0, 0, 0, 0, 0, 0, 0, 0, 0, 0, 0, 0, 0, 0
        DC8 0, 0, 0, 0, 0, 0, 0, 0, 0, 0, 0, 0, 0, 0, 0, 0, 0, 0, 0, 0, 0, 0, 0
        DC8 0, 0, 0, 0, 0, 0, 0, 0, 0, 0, 0, 0, 0, 0, 0, 0, 0, 0, 0, 0, 0, 0, 0
        DC8 0, 0, 0, 0, 0, 0, 0, 0, 0, 0, 0, 0, 0, 0, 0, 0, 0, 0, 0, 0, 0, 0, 0
        DC8 0, 0, 0, 0, 0, 0, 0, 0, 0, 0, 0, 0, 0, 0, 0, 0, 0, 0, 0, 0, 0, 0, 0
        DC8 0, 0, 0, 0, 0, 0, 0, 0, 0, 0, 0, 0, 0, 0, 0, 0, 0, 0, 0, 0, 0, 0, 0
        DC8 0, 0, 0, 0, 0, 0, 0, 0, 0, 0, 0, 0, 0, 0, 0, 0, 0, 0, 0, 0, 0, 0, 0
        DC8 0, 0, 0, 0, 0, 0, 0, 0, 0, 0, 0, 0, 0, 0, 0, 0, 0, 0, 0, 0, 0, 0, 0
        DC8 0, 0, 0, 0, 0, 0, 0, 0, 0, 0, 0, 0, 0, 0, 0, 0, 0, 0, 0, 0, 0, 0, 0
        DC8 0, 0, 0, 0, 0, 0, 0, 0, 0, 0, 0, 0, 0, 0, 0, 0, 0, 0, 0, 0, 0, 0, 0
        DC8 0, 0, 0, 0, 0, 0, 0, 0, 0, 0, 0, 0, 0, 0, 0, 0, 0, 0, 0, 0, 0, 0, 0
        DC8 0, 0, 0, 0, 0, 0, 0, 0, 0, 0, 0, 0, 0, 0, 0, 0, 0, 0, 0, 0, 0, 0, 0
        DC8 0, 0, 0, 0, 0, 0, 0, 0, 0, 0, 0, 0, 0, 0, 0, 0, 0, 0, 0, 0, 0, 0, 0
        DC8 0, 0, 0, 0, 0, 0, 0, 0, 0, 0, 0, 0, 0, 0, 0, 0, 0, 0, 0, 0, 0, 0, 0
        DC8 0, 0, 0, 0, 0, 0, 0, 0, 0, 0, 0, 0, 0, 0, 0, 0, 0, 0, 0, 0, 0, 0, 0
        DC8 0, 0, 0, 0, 0, 0, 0, 0, 0, 0, 0, 0, 0, 0, 0, 0, 0, 0, 0, 0, 0, 0, 0
        DC8 0, 0, 0, 0, 0, 0, 0, 0, 0, 0, 0, 0, 0, 0, 0, 0, 0, 0, 0, 0, 0, 0, 0
        DC8 0, 0, 0, 0, 0, 0, 0, 0, 0, 0, 0, 0, 0, 0, 0, 0, 0, 0, 0, 0, 0, 0, 0
        DC8 0, 0, 0, 0, 0, 0, 0, 0, 0, 0, 0, 0, 0, 0, 0, 0, 0, 0, 0, 0, 0, 0, 0
        DC8 0, 0, 0, 0, 0, 0, 0, 0, 0, 0, 0, 0, 0, 0, 0, 0, 0, 0, 0, 0, 0, 0, 0
        DC8 0, 0, 0, 0, 0, 0, 0, 0, 0, 0, 0, 0, 0, 0, 0, 0, 0, 0, 0, 0, 0, 0, 0
        DC8 0, 0, 0, 0, 0, 0, 0, 0, 0, 0, 0, 0, 0, 0, 0, 0, 0, 0, 0, 0, 0, 0, 0
        DC8 0, 0, 0, 0, 0, 0, 0, 0, 0, 0, 0, 0, 0, 0, 0, 0, 0, 0, 0, 0, 0, 0, 0
        DC8 0, 0, 0, 0, 0, 0, 0, 0, 0, 0, 0, 0, 0, 0, 0, 0, 0, 0, 0, 0, 0, 0, 0
        DC8 0, 0, 0, 0, 0, 0, 0, 0, 0, 0, 0, 0, 0, 0, 0, 0, 0, 0, 0, 0, 0, 0, 0
        DC8 0, 0, 0, 0, 0, 0, 0, 0, 0, 0, 0, 0, 0, 0, 0, 0, 0, 0, 0, 0, 0, 0, 0
        DC8 0, 0, 0, 0, 0, 0, 0, 0, 0, 0, 0, 0, 0, 0, 0, 0, 0, 0, 0, 0, 0, 0, 0
        DC8 0, 0, 0, 0, 0, 0, 0, 0, 0, 0, 0, 0, 0, 0, 0, 0, 0, 0, 0, 0, 0, 0, 0
        DC8 0, 0, 0, 0, 0, 0, 0, 0, 0, 0, 0, 0, 0, 0, 0, 0, 0, 0, 0, 0, 0, 0, 0
        DC8 0, 0, 0, 0, 0, 0, 0, 0, 0, 0, 0, 0, 0, 0, 0, 0, 0, 0, 0, 0, 0, 0, 0
        DC8 0, 0, 0, 0, 0, 0, 0, 0, 0, 0, 0, 0, 0, 0, 0, 0, 0, 0, 0, 0, 0, 0, 0
        DC8 0, 0, 0, 0, 0, 0, 0, 0, 0, 0, 0, 0, 0, 0, 0, 0, 0, 0, 0, 0, 0, 0, 0
        DC8 0, 0, 0, 0, 0, 0, 0, 0, 0, 0, 0, 0, 0, 0, 0, 0, 0, 0, 0, 0, 0, 0, 0
        DC8 0, 0, 0, 0, 0, 0, 0, 0, 0, 0, 0, 0, 0, 0, 0, 0, 0, 0, 0, 0, 0, 0, 0
        DC8 0, 0, 0, 0, 0, 0, 0, 0, 0, 0, 0, 0, 0, 0, 0, 0, 0, 0, 0, 0, 0, 0, 0
        DC8 0, 0, 0, 0, 0, 0, 0, 0, 0, 0, 0, 0, 0, 0, 0, 0, 0, 0, 0, 0, 0, 0, 0
        DC8 0, 0, 0, 0, 0, 0, 0, 0, 0, 0, 0, 0, 0, 0, 0, 0, 0, 0, 0, 0, 0, 0, 0
        DC8 0, 0, 0, 0, 0, 0, 0, 0, 0, 0, 0, 0, 0, 0, 0, 0, 0, 0, 0, 0, 0, 0, 0
        DC8 0, 0, 0, 0, 0, 0, 0, 0, 0, 0, 0, 0, 0, 0, 0, 0, 0, 0, 0, 0, 0, 0, 0
        DC8 0, 0, 0, 0, 0, 0, 0, 0, 0, 0, 0, 0, 0, 0, 0, 0, 0, 0, 0, 0, 0, 0, 0
        DC8 0, 0, 0, 0, 0, 0, 0, 0, 0, 0, 0, 0, 0, 0, 0, 0, 0, 0, 0, 0, 0, 0, 0
        DC8 0, 0, 0, 0, 0, 0, 0, 0, 0, 0, 0, 0, 0, 0, 0, 0, 0, 0, 0, 0, 0, 0, 0
        DC8 0, 0, 0, 0, 0, 0, 0, 0, 0, 0, 0, 0, 0, 0, 0, 0, 0, 0, 0, 0, 0, 0, 0
        DC8 0, 0, 0, 0, 0, 0, 0, 0, 0, 0, 0, 0, 0, 0, 0, 0, 0, 0, 0, 0, 0, 0, 0
        DC8 0, 0, 0, 0, 0, 0, 0, 0, 0, 0, 0, 0, 0, 0, 0, 0, 0, 0, 0, 0, 0, 0, 0
        DC8 0, 0, 0, 0, 0, 0, 0, 0, 0, 0, 0, 0, 0, 0, 0, 0, 0, 0, 0, 0, 0, 0, 0
        DC8 0, 0, 0, 0, 0, 0, 0, 0, 0, 0, 0, 0, 0, 0, 0, 0, 0, 0, 0, 0, 0, 0, 0
        DC8 0, 0, 0, 0, 0, 0, 0, 0, 0, 0, 0, 0, 0, 0, 0, 0, 0, 0, 0, 0, 0, 0, 0
        DC8 0, 0, 0, 0, 0, 0, 0, 0, 0, 0, 0, 0, 0, 0, 0, 0, 0, 0, 0, 0, 0, 0, 0
        DC8 0, 0, 0, 0, 0, 0, 0, 0, 0, 0, 0, 0, 0, 0, 0, 0, 0, 0, 0, 0, 0, 0, 0
        DC8 0, 0, 0, 0, 0, 0, 0, 0, 0, 0, 0, 0, 0, 0, 0, 0, 0, 0, 0, 0, 0, 0, 0
        DC8 0, 0, 0, 0, 0, 0, 0, 0, 0, 0, 0, 0, 0, 0, 0, 0, 0, 0, 0, 0, 0, 0, 0
        DC8 0, 0, 0, 0, 0, 0, 0, 0, 0, 0, 0, 0, 0, 0, 0, 0, 0, 0, 0, 0, 0, 0, 0
        DC8 0, 0, 0, 0, 0, 0, 0, 0, 0, 0, 0, 0, 0, 0, 0, 0, 0, 0, 0, 0, 0, 0, 0
        DC8 0, 0, 0, 0, 0, 0, 0, 0, 0, 0, 0, 0, 0, 0, 0, 0, 0, 0, 0, 0, 0, 0, 0
        DC8 0, 0, 0, 0, 0, 0, 0, 0, 0, 0, 0, 0, 0, 0, 0, 0, 0, 0, 0, 0, 0, 0, 0
        DC8 0, 0, 0, 0, 0, 0, 0, 0, 0, 0, 0, 0, 0, 0, 0, 0, 0, 0, 0, 0, 0, 0, 0
        DC8 0, 0, 0, 0, 0, 0, 0, 0, 0, 0, 0, 0, 0, 0, 0, 0, 0, 0, 0, 0, 0, 0, 0
        DC8 0, 0, 0, 0, 0, 0, 0, 0, 0, 0, 0, 0, 0, 0, 0, 0, 0, 0, 0, 0, 0, 0, 0
        DC8 0, 0, 0, 0, 0, 0, 0, 0, 0, 0, 0, 0, 0, 0, 0, 0, 0, 0, 0, 0, 0, 0, 0
        DC8 0, 0, 0, 0, 0, 0, 0, 0, 0, 0, 0, 0, 0, 0, 0, 0, 0, 0, 0, 0, 0, 0, 0
        DC8 0, 0, 0, 0, 0, 0, 0, 0, 0, 0, 0, 0, 0, 0, 0, 0, 0, 0, 0, 0, 0, 0, 0
        DC8 0, 0, 0, 0, 0, 0, 0, 0, 0, 0, 0, 0, 0, 0, 0, 0, 0, 0, 0, 0, 0, 0, 0
        DC8 0, 0, 0, 0, 0, 0, 0, 0, 0, 0, 0, 0, 0, 0, 0, 0, 0, 0, 0, 0, 0, 0, 0
        DC8 0, 0, 0, 0, 0, 0, 0, 0, 0, 0, 0, 0, 0, 0, 0, 0, 0, 0, 0, 0, 0, 0, 0
        DC8 0, 0, 0, 0, 0, 0, 0, 0, 0, 0, 0, 0, 0, 0, 0, 0, 0, 0, 0, 0, 0, 0, 0
        DC8 0, 0, 0, 0, 0, 0, 0, 0, 0, 0, 0, 0, 0, 0, 0, 0, 0, 0, 0, 0, 0, 0, 0
        DC8 0, 0, 0, 0, 0, 0, 0, 0, 0, 0, 0, 0, 0, 0, 0, 0, 0, 0, 0, 0, 0, 0, 0
        DC8 0, 0, 0, 0, 0, 0, 0, 0, 0, 0, 0, 0, 0, 0, 0, 0, 0, 0, 0, 0, 0, 0, 0
        DC8 0, 0, 0, 0, 0, 0, 0, 0, 0, 0, 0, 0, 0, 0, 0, 0, 0, 0, 0, 0, 0, 0, 0
        DC8 0, 0, 0, 0, 0, 0, 0, 0, 0, 0, 0, 0, 0, 0, 0, 0, 0, 0, 0, 0, 0, 0, 0
        DC8 0, 0, 0, 0, 0, 0, 0, 0, 0, 0, 0, 0, 0, 0, 0, 0, 0, 0, 0, 0, 0, 0, 0
        DC8 0, 0, 0, 0, 0, 0, 0, 0, 0, 0, 0, 0, 0, 0, 0, 0, 0, 0, 0, 0, 0, 0, 0
        DC8 0, 0, 0, 0, 0, 0, 0, 0, 0, 0, 0, 0, 0, 0, 0, 0, 0, 0, 0, 0, 0, 0, 0
        DC8 0, 0, 0, 0, 0, 0, 0, 0, 0, 0, 0, 0, 0, 0, 0, 0, 0, 0, 0, 0, 0, 0, 0
        DC8 0, 0, 0, 0, 0, 0, 0, 0, 0, 0, 0, 0, 0, 0, 0, 0, 0, 0, 0, 0, 0, 0, 0
        DC8 0, 0, 0, 0, 0, 0, 0, 0, 0, 0, 0, 0, 0, 0, 0, 0, 0, 0, 0, 0, 0, 0, 0
        DC8 0, 0, 0, 0, 0, 0, 0, 0, 0, 0, 0, 0, 0, 0, 0, 0, 0, 0, 0, 0, 0, 0, 0
        DC8 0, 0, 0, 0, 0, 0, 0, 0, 0, 0, 0, 0, 0, 0, 0, 0, 0, 0, 0, 0, 0, 0, 0
        DC8 0, 0, 0, 0, 0, 0, 0, 0, 0, 0, 0, 0, 0, 0, 0, 0, 0, 0, 0, 0, 0, 0, 0
        DC8 0, 0, 0, 0, 0, 0, 0, 0, 0, 0, 0, 0, 0, 0, 0, 0, 0, 0, 0, 0, 0, 0, 0
        DC8 0, 0, 0, 0, 0, 0, 0, 0, 0, 0, 0, 0, 0, 0, 0, 0, 0, 0, 0, 0, 0, 0, 0
        DC8 0, 0, 0, 0, 0, 0, 0, 0, 0, 0, 0, 0, 0, 0, 0, 0, 0, 0, 0, 0, 0, 0, 0
        DC8 0, 0, 0, 0, 0, 0, 0, 0, 0, 0, 0, 0, 0, 0, 0, 0, 0, 0, 0, 0, 0, 0, 0
        DC8 0, 0, 0, 0, 0, 0, 0, 0, 0, 0, 0, 0, 0, 0, 0, 0, 0, 0, 0, 0, 0, 0, 0
        DC8 0, 0, 0, 0, 0, 0, 0, 0, 0, 0, 0, 0, 0, 0, 0, 0, 0, 0, 0, 0, 0, 0, 0
        DC8 0, 0, 0, 0, 0, 0, 0, 0, 0, 0, 0, 0, 0, 0, 0, 0, 0, 0, 0, 0, 0, 0, 0
        DC8 0, 0, 0, 0, 0, 0, 0, 0, 0, 0, 0, 0, 0, 0, 0, 0, 0, 0, 0, 0, 0, 0, 0
        DC8 0, 0, 0, 0, 0, 0, 0, 0, 0, 0, 0, 0, 0, 0, 0, 0, 0, 0, 0, 0, 0, 0, 0
        DC8 0, 0, 0, 0, 0, 0, 0, 0, 0, 0, 0, 0, 0, 0, 0, 0, 0, 0, 0, 0, 0, 0, 0
        DC8 0, 0, 0, 0, 0, 0, 0, 0, 0, 0, 0, 0, 0, 0, 0, 0, 0, 0, 0, 0, 0, 0, 0
        DC8 0, 0, 0, 0, 0, 0, 0, 0, 0, 0, 0, 0, 0, 0, 0, 0, 0, 0, 0, 0, 0, 0, 0
        DC8 0, 0, 0, 0, 0, 0, 0, 0, 0, 0, 0, 0, 0, 0, 0, 0, 0, 0, 0, 0, 0, 0, 0
        DC8 0, 0, 0, 0, 0, 0, 0, 0, 0, 0, 0, 0, 0, 0, 0, 0, 0, 0, 0, 0, 0, 0, 0
        DC8 0, 0, 0, 0, 0, 0, 0, 0, 0, 0, 0, 0, 0, 0, 0, 0, 0, 0, 0, 0, 0, 0, 0
        DC8 0, 0, 0, 0, 0, 0, 0, 0, 0, 0, 0, 0, 0, 0, 0, 0, 0, 0, 0, 0, 0, 0, 0
        DC8 0, 0, 0, 0, 0, 0, 0, 0, 0, 0, 0, 0, 0, 0, 0, 0, 0, 0, 0, 0, 0, 0, 0
        DC8 0, 0, 0, 0, 0, 0, 0, 0, 0, 0, 0, 0, 0, 0, 0, 0, 0, 0, 0, 0, 0, 0, 0
        DC8 0, 0, 0, 0, 0, 0, 0, 0, 0, 0, 0, 0, 0, 0, 0, 0, 0, 0, 0, 0, 0, 0, 0
        DC8 0, 0, 0, 0, 0, 0, 0, 0, 0, 0, 0, 0, 0, 0, 0, 0, 0, 0, 0, 0, 0, 0, 0
        DC8 0, 0, 0, 0, 0, 0, 0, 0, 0, 0, 0, 0, 0, 0, 0, 0, 0, 0, 0, 0, 0, 0, 0
        DC8 0, 0, 0, 0, 0, 0, 0, 0, 0, 0, 0, 0, 0, 0, 0, 0, 0, 0, 0, 0, 0, 0, 0
        DC8 0, 0, 0, 0, 0, 0, 0, 0, 0, 0, 0, 0, 0, 0, 0, 0, 0, 0, 0, 0, 0, 0, 0
        DC8 0, 0, 0, 0, 0, 0, 0, 0, 0, 0, 0, 0, 0, 0, 0, 0, 0, 0, 0, 0, 0, 0, 0
        DC8 0, 0, 0, 0, 0, 0, 0, 0, 0, 0, 0, 0, 0, 0, 0, 0, 0, 0, 0, 0, 0, 0, 0
        DC8 0, 0, 0, 0, 0, 0, 0, 0, 0, 0, 0, 0, 0, 0, 0, 0, 0, 0, 0, 0, 0, 0, 0
        DC8 0, 0, 0, 0, 0, 0, 0, 0, 0, 0, 0, 0, 0, 0, 0, 0, 0, 0, 0, 0, 0, 0, 0
        DC8 0, 0, 0, 0, 0, 0, 0, 0, 0, 0, 0, 0, 0, 0, 0, 0, 0, 0, 0, 0, 0, 0, 0
        DC8 0, 0, 0, 0, 0, 0, 0, 0, 0, 0, 0, 0, 0, 0, 0, 0, 0, 0, 0, 0, 0, 0, 0
        DC8 0, 0, 0, 0, 0, 0, 0, 0, 0, 0, 0, 0, 0, 0, 0, 0, 0, 0, 0, 0, 0, 0, 0
        DC8 0, 0, 0, 0, 0, 0, 0, 0, 0, 0, 0, 0, 0, 0, 0, 0, 0, 0, 0, 0, 0, 0, 0
        DC8 0, 0, 0, 0, 0, 0, 0, 0, 0, 0, 0, 0, 0, 0, 0, 0, 0, 0, 0, 0, 0, 0, 0
        DC8 0, 0, 0, 0, 0, 0, 0, 0, 0, 0, 0, 0, 0, 0, 0, 0, 0, 0, 0, 0, 0, 0, 0
        DC8 0, 0, 0, 0, 0, 0, 0, 0, 0, 0, 0, 0, 0, 0, 0, 0, 0, 0, 0, 0, 0, 0, 0
        DC8 0, 0, 0, 0, 0, 0, 0, 0, 0, 0, 0, 0, 0, 0, 0, 0, 0, 0, 0, 0, 0, 0, 0
        DC8 0, 0, 0, 0, 0, 0, 0, 0, 0, 0, 0, 0, 0, 0, 0, 0, 0, 0, 0, 0, 0, 0, 0
        DC8 0, 0, 0, 0, 0, 0, 0, 0, 0, 0, 0, 0, 0, 0, 0, 0, 0, 0, 0, 0, 0, 0, 0
        DC8 0, 0, 0, 0, 0, 0, 0, 0, 0, 0, 0, 0, 0, 0, 0, 0, 0, 0, 0, 0, 0, 0, 0
        DC8 0, 0, 0, 0, 0, 0, 0, 0, 0, 0, 0, 0, 0, 0, 0, 0, 0, 0, 0, 0, 0, 0, 0
        DC8 0, 0, 0, 0, 0, 0, 0, 0, 0, 0, 0, 0, 0, 0, 0, 0, 0, 0, 0, 0, 0, 0, 0
        DC8 0, 0, 0, 0, 0, 0, 0, 0, 0, 0, 0, 0, 0, 0, 0, 0, 0, 0, 0, 0, 0, 0, 0
        DC8 0, 0, 0, 0, 0, 0, 0, 0, 0, 0, 0, 0, 0, 0, 0, 0, 0, 0, 0, 0, 0, 0, 0
        DC8 0, 0, 0, 0, 0, 0, 0, 0, 0, 0, 0, 0, 0, 0, 0, 0, 0, 0, 0, 0, 0, 0, 0
        DC8 0, 0, 0, 0, 0, 0, 0, 0, 0, 0, 0, 0, 0, 0, 0, 0, 0, 0, 0, 0, 0, 0, 0
        DC8 0, 0, 0, 0, 0, 0, 0, 0, 0, 0, 0, 0, 0, 0, 0, 0, 0, 0, 0, 0, 0, 0, 0
        DC8 0, 0, 0, 0, 0, 0, 0, 0, 0, 0, 0, 0, 0, 0, 0, 0, 0, 0, 0, 0, 0, 0, 0
        DC8 0, 0, 0, 0, 0, 0, 0, 0, 0, 0, 0, 0, 0, 0, 0, 0, 0, 0, 0, 0, 0, 0, 0
        DC8 0, 0, 0, 0, 0, 0, 0, 0, 0, 0, 0, 0, 0, 0, 0, 0, 0, 0, 0, 0, 0, 0, 0
        DC8 0, 0, 0, 0, 0, 0, 0, 0, 0, 0, 0, 0, 0, 0, 0, 0, 0, 0, 0, 0, 0, 0, 0
        DC8 0, 0, 0, 0, 0, 0, 0, 0, 0, 0, 0, 0, 0, 0, 0, 0, 0, 0, 0, 0, 0, 0, 0
        DC8 0, 0, 0, 0, 0, 0, 0, 0, 0, 0, 0, 0, 0, 0, 0, 0, 0, 0, 0, 0, 0, 0, 0
        DC8 0, 0, 0, 0, 0, 0, 0, 0, 0, 0, 0, 0, 0, 0, 0, 0, 0, 0, 0, 0, 0, 0, 0
        DC8 0, 0, 0, 0, 0, 0, 0, 0, 0, 0, 0, 0, 0, 0, 0, 0, 0, 0, 0, 0, 0, 0, 0
        DC8 0, 0, 0, 0, 0, 0, 0, 0, 0, 0, 0, 0, 0, 0, 0, 0, 0, 0, 0, 0, 0, 0, 0
        DC8 0, 0, 0, 0, 0, 0, 0, 0, 0, 0, 0, 0, 0, 0, 0, 0, 0, 0, 0, 0, 0, 0, 0
        DC8 0, 0, 0, 0, 0, 0, 0, 0, 0, 0, 0, 0, 0, 0, 0, 0, 0, 0, 0, 0, 0, 0, 0
        DC8 0, 0, 0, 0, 0, 0, 0, 0, 0, 0, 0, 0, 0, 0, 0, 0, 0, 0, 0, 0, 0, 0, 0
        DC8 0, 0, 0, 0, 0, 0, 0, 0, 0, 0, 0, 0, 0, 0, 0, 0, 0, 0, 0, 0, 0, 0, 0
        DC8 0, 0, 0, 0, 0, 0, 0, 0, 0, 0, 0, 0, 0, 0, 0, 0, 0, 0, 0, 0, 0, 0, 0
        DC8 0, 0, 0, 0, 0, 0, 0, 0, 0, 0, 0, 0, 0, 0, 0, 0, 0, 0, 0, 0, 0, 0, 0
        DC8 0, 0, 0, 0, 0, 0, 0, 0, 0, 0, 0, 0, 0, 0, 0, 0, 0, 0, 0, 0, 0, 0, 0
        DC8 0, 0, 0, 0, 0, 0, 0, 0, 0, 0, 0, 0, 0, 0, 0, 0, 0, 0, 0, 0, 0, 0, 0
        DC8 0, 0, 0, 0, 0, 0, 0, 0, 0, 0, 0, 0, 0, 0, 0, 0, 0, 0, 0, 0, 0, 0, 0
        DC8 0, 0, 0, 0, 0, 0, 0, 0, 0, 0, 0, 0, 0, 0, 0, 0, 0, 0, 0, 0, 0, 0, 0
        DC8 0, 0, 0, 0, 0, 0, 0, 0, 0, 0, 0, 0, 0, 0, 0, 0, 0, 0, 0, 0, 0, 0, 0
        DC8 0, 0, 0, 0, 0, 0, 0, 0, 0, 0, 0, 0, 0, 0, 0, 0, 0, 0, 0, 0, 0, 0, 0
        DC8 0, 0, 0, 0, 0, 0, 0, 0, 0, 0, 0, 0, 0, 0, 0, 0, 0, 0, 0, 0, 0, 0, 0
        DC8 0, 0, 0, 0, 0, 0, 0, 0, 0, 0, 0, 0, 0, 0, 0, 0, 0, 0, 0, 0, 0, 0, 0
        DC8 0, 0, 0, 0, 0, 0, 0, 0, 0, 0, 0, 0, 0, 0, 0, 0, 0, 0, 0, 0, 0, 0, 0
        DC8 0, 0, 0, 0, 0, 0, 0, 0, 0, 0, 0, 0, 0, 0, 0, 0, 0, 0, 0, 0, 0, 0, 0
        DC8 0, 0, 0, 0, 0, 0, 0, 0, 0, 0, 0, 0, 0, 0, 0, 0, 0, 0, 0, 0, 0, 0, 0
        DC8 0, 0, 0, 0, 0, 0, 0, 0, 0, 0, 0, 0, 0, 0, 0, 0, 0, 0, 0, 0, 0, 0, 0
        DC8 0, 0, 0, 0, 0, 0, 0, 0, 0, 0, 0, 0, 0, 0, 0, 0, 0, 0, 0, 0, 0, 0, 0
        DC8 0, 0, 0, 0, 0, 0, 0, 0, 0, 0, 0, 0, 0, 0, 0, 0, 0, 0, 0, 0, 0, 0, 0
        DC8 0, 0, 0, 0, 0, 0, 0, 0, 0, 0, 0, 0, 0, 0, 0, 0, 0, 0, 0, 0, 0, 0, 0
        DC8 0, 0, 0, 0, 0, 0, 0, 0, 0, 0, 0, 0, 0, 0, 0, 0, 0, 0, 0, 0, 0, 0, 0
        DC8 0, 0, 0, 0, 0, 0, 0, 0, 0, 0, 0, 0, 0, 0, 0, 0, 0, 0, 0, 0, 0, 0, 0
        DC8 0, 0, 0, 0, 0, 0, 0, 0, 0, 0, 0, 0, 0, 0, 0, 0, 0, 0, 0, 0, 0, 0, 0
        DC8 0, 0, 0, 0, 0, 0, 0, 0, 0, 0, 0, 0, 0, 0, 0, 0, 0, 0, 0, 0, 0, 0, 0
        DC8 0, 0, 0, 0, 0, 0, 0, 0, 0, 0, 0, 0, 0, 0, 0, 0, 0, 0, 0, 0, 0, 0, 0
        DC8 0, 0, 0, 0, 0, 0, 0, 0, 0, 0, 0, 0, 0, 0, 0, 0, 0, 0, 0, 0, 0, 0, 0
        DC8 0, 0, 0, 0, 0, 0, 0, 0, 0, 0, 0, 0, 0, 0, 0, 0, 0, 0, 0, 0, 0, 0, 0
        DC8 0, 0, 0, 0, 0, 0, 0, 0, 0, 0, 0, 0, 0, 0, 0, 0, 0, 0, 0, 0, 0, 0, 0
        DC8 0, 0, 0, 0, 0, 0, 0, 0, 0, 0, 0, 0, 0, 0, 0, 0, 0, 0, 0, 0, 0, 0, 0
        DC8 0, 0, 0, 0, 0, 0, 0, 0, 0, 0, 0, 0, 0, 0, 0, 0, 0, 0, 0, 0, 0, 0, 0
        DC8 0, 0, 0, 0, 0, 0, 0, 0, 0, 0, 0, 0, 0, 0, 0, 0, 0, 0, 0, 0, 0, 0, 0
        DC8 0, 0, 0, 0, 0, 0, 0, 0, 0, 0, 0, 0, 0, 0, 0, 0, 0, 0, 0, 0, 0, 0, 0
        DC8 0, 0, 0, 0, 0, 0, 0, 0, 0, 0, 0, 0, 0, 0, 0, 0, 0, 0, 0, 0, 0, 0, 0
        DC8 0, 0, 0, 0, 0, 0, 0, 0, 0, 0, 0, 0, 0, 0, 0, 0, 0, 0, 0, 0, 0, 0, 0
        DC8 0, 0, 0, 0, 0, 0, 0, 0, 0, 0, 0, 0, 0, 0, 0, 0, 0, 0, 0, 0, 0, 0, 0
        DC8 0, 0, 0, 0, 0, 0, 0, 0, 0, 0, 0, 0, 0, 0, 0, 0, 0, 0, 0, 0, 0, 0, 0
        DC8 0, 0, 0, 0, 0, 0, 0, 0, 0, 0, 0, 0, 0, 0, 0, 0, 0, 0, 0, 0, 0, 0, 0
        DC8 0, 0, 0, 0, 0, 0, 0, 0, 0, 0, 0, 0, 0, 0, 0, 0, 0, 0, 0, 0, 0, 0, 0
        DC8 0, 0, 0, 0, 0, 0, 0, 0, 0, 0, 0, 0, 0, 0, 0, 0, 0, 0, 0, 0, 0, 0, 0
        DC8 0, 0, 0, 0, 0, 0, 0, 0, 0, 0, 0, 0, 0, 0, 0, 0, 0, 0, 0, 0, 0, 0, 0
        DC8 0, 0, 0, 0, 0, 0, 0, 0, 0, 0, 0, 0, 0, 0, 0, 0, 0, 0, 0, 0, 0, 0, 0
        DC8 0, 0, 0, 0, 0, 0, 0, 0, 0, 0, 0, 0, 0, 0, 0, 0, 0, 0, 0, 0, 0, 0, 0
        DC8 0, 0, 0, 0, 0, 0, 0, 0, 0, 0, 0, 0, 0, 0, 0, 0, 0, 0, 0, 0, 0, 0, 0
        DC8 0, 0, 0, 0, 0, 0, 0, 0, 0, 0, 0, 0, 0, 0, 0, 0, 0, 0, 0, 0, 0, 0, 0
        DC8 0, 0, 0, 0, 0, 0, 0, 0, 0, 0, 0, 0, 0, 0, 0, 0, 0, 0, 0, 0, 0, 0, 0
        DC8 0, 0, 0, 0, 0, 0, 0, 0, 0, 0, 0, 0, 0, 0, 0, 0, 0, 0, 0, 0, 0, 0, 0
        DC8 0, 0, 0, 0, 0, 0, 0, 0, 0, 0, 0, 0, 0, 0, 0, 0, 0, 0, 0, 0, 0, 0, 0
        DC8 0, 0, 0, 0, 0, 0, 0, 0, 0, 0, 0, 0, 0, 0, 0, 0, 0, 0, 0, 0, 0, 0, 0
        DC8 0, 0, 0, 0, 0, 0, 0, 0, 0, 0, 0, 0, 0, 0, 0, 0, 0, 0, 0, 0, 0, 0, 0
        DC8 0, 0, 0, 0, 0, 0, 0, 0, 0, 0, 0, 0, 0, 0, 0, 0, 0, 0, 0, 0, 0, 0, 0
        DC8 0, 0, 0, 0, 0, 0, 0, 0, 0, 0, 0, 0, 0, 0, 0, 0, 0, 0, 0, 0, 0, 0, 0
        DC8 0, 0, 0, 0, 0, 0, 0, 0, 0, 0, 0, 0, 0, 0, 0, 0, 0, 0, 0, 0, 0, 0, 0
        DC8 0, 0, 0, 0, 0, 0, 0, 0, 0, 0, 0, 0, 0, 0, 0, 0, 0, 0, 0, 0, 0, 0, 0
        DC8 0, 0, 0, 0, 0, 0, 0, 0, 0, 0, 0, 0, 0, 0, 0, 0, 0, 0, 0, 0, 0, 0, 0
        DC8 0, 0, 0, 0, 0, 0, 0, 0, 0, 0, 0, 0, 0, 0, 0, 0, 0, 0, 0, 0, 0, 0, 0
        DC8 0, 0, 0, 0, 0, 0, 0, 0, 0, 0, 0, 0, 0, 0, 0, 0, 0, 0, 0, 0, 0, 0, 0
        DC8 0, 0, 0, 0, 0, 0, 0, 0, 0, 0, 0, 0, 0, 0, 0, 0, 0, 0, 0, 0, 0, 0, 0
        DC8 0, 0, 0, 0, 0, 0, 0, 0, 0, 0, 0, 0, 0, 0, 0, 0, 0, 0, 0, 0, 0, 0, 0
        DC8 0, 0, 0, 0, 0, 0, 0, 0, 0, 0, 0, 0, 0, 0, 0, 0, 0, 0, 0, 0, 0, 0, 0
        DC8 0, 0, 0, 0, 0, 0, 0, 0, 0, 0, 0, 0, 0, 0, 0, 0, 0, 0, 0, 0, 0, 0, 0
        DC8 0, 0, 0, 0, 0, 0, 0, 0, 0, 0, 0, 0, 0, 0, 0, 0, 0, 0, 0, 0, 0, 0, 0
        DC8 0, 0, 0, 0, 0, 0, 0, 0, 0, 0, 0, 0, 0, 0, 0, 0, 0, 0, 0, 0, 0, 0, 0
        DC8 0, 0, 0, 0, 0, 0, 0, 0, 0, 0, 0, 0, 0, 0, 0, 0, 0, 0, 0, 0, 0, 0, 0
        DC8 0, 0, 0, 0, 0, 0, 0, 0, 0, 0, 0, 0, 0, 0, 0, 0, 0, 0, 0, 0, 0, 0, 0
        DC8 0, 0, 0, 0, 0, 0, 0, 0, 0, 0, 0, 0, 0, 0, 0, 0, 0, 0, 0, 0, 0, 0, 0
        DC8 0, 0, 0, 0, 0, 0, 0, 0, 0, 0, 0, 0, 0, 0, 0, 0, 0, 0, 0, 0, 0, 0, 0
        DC8 0, 0, 0, 0, 0, 0, 0, 0, 0, 0, 0, 0, 0, 0, 0, 0, 0, 0, 0, 0, 0, 0, 0
        DC8 0, 0, 0, 0, 0, 0, 0, 0, 0, 0, 0, 0, 0, 0, 0, 0, 0, 0, 0, 0, 0, 0, 0
        DC8 0, 0, 0, 0, 0, 0, 0, 0, 0, 0, 0, 0, 0, 0, 0, 0, 0, 0, 0, 0, 0, 0, 0
        DC8 0, 0, 0, 0, 0, 0, 0, 0, 0, 0, 0, 0, 0, 0, 0, 0, 0, 0, 0, 0, 0, 0, 0
        DC8 0, 0, 0, 0, 0, 0, 0, 0, 0, 0, 0, 0, 0, 0, 0, 0, 0, 0, 0, 0, 0, 0, 0
        DC8 0, 0, 0, 0, 0, 0, 0, 0, 0, 0, 0, 0, 0, 0, 0, 0, 0, 0, 0, 0, 0, 0, 0
        DC8 0, 0, 0, 0, 0, 0, 0, 0, 0, 0, 0, 0, 0, 0, 0, 0, 0, 0, 0, 0, 0, 0, 0
        DC8 0, 0, 0, 0, 0, 0, 0, 0, 0, 0, 0, 0, 0, 0, 0, 0, 0, 0, 0, 0, 0, 0, 0
        DC8 0, 0, 0, 0, 0, 0, 0, 0, 0, 0, 0, 0, 0, 0, 0, 0, 0, 0, 0, 0, 0, 0, 0
        DC8 0, 0, 0, 0, 0, 0, 0, 0, 0, 0, 0, 0, 0, 0, 0, 0, 0, 0, 0, 0, 0, 0, 0
        DC8 0, 0, 0, 0, 0, 0, 0, 0, 0, 0, 0, 0, 0, 0, 0, 0, 0, 0, 0, 0, 0, 0, 0
        DC8 0, 0, 0, 0, 0, 0, 0, 0, 0, 0, 0, 0, 0, 0, 0, 0, 0, 0, 0, 0, 0, 0, 0
        DC8 0, 0, 0, 0, 0, 0, 0, 0, 0, 0, 0, 0, 0, 0, 0, 0, 0, 0, 0, 0, 0, 0, 0
        DC8 0, 0, 0, 0, 0, 0, 0, 0, 0, 0, 0, 0, 0, 0, 0, 0, 0, 0, 0, 0, 0, 0, 0
        DC8 0, 0, 0, 0, 0, 0, 0, 0, 0, 0, 0, 0, 0, 0, 0, 0, 0, 0, 0, 0, 0, 0, 0
        DC8 0, 0, 0, 0, 0, 0, 0, 0, 0, 0, 0, 0, 0, 0, 0, 0, 0, 0, 0, 0, 0, 0, 0
        DC8 0, 0, 0, 0, 0, 0, 0, 0, 0, 0, 0, 0, 0, 0, 0, 0, 0, 0, 0, 0, 0, 0, 0
        DC8 0, 0, 0, 0, 0, 0, 0, 0, 0, 0, 0, 0, 0, 0, 0, 0, 0, 0, 0, 0, 0, 0, 0
        DC8 0, 0, 0, 0, 0, 0, 0, 0, 0, 0, 0, 0, 0, 0, 0, 0, 0, 0, 0, 0, 0, 0, 0
        DC8 0, 0, 0, 0, 0, 0, 0, 0, 0, 0, 0, 0, 0, 0, 0, 0, 0, 0, 0, 0, 0, 0, 0
        DC8 0, 0, 0, 0, 0, 0, 0, 0, 0, 0, 0, 0, 0, 0, 0, 0, 0, 0, 0, 0, 0, 0, 0
        DC8 0, 0, 0, 0, 0, 0, 0, 0, 0, 0, 0, 0, 0, 0, 0, 0, 0, 0, 0, 0, 0, 0, 0
        DC8 0, 0, 0, 0, 0, 0, 0, 0, 0, 0, 0, 0, 0, 0, 0, 0, 0, 0, 0, 0, 0, 0, 0
        DC8 0, 0, 0, 0, 0, 0, 0, 0, 0, 0, 0, 0, 0, 0, 0, 0, 0, 0, 0, 0, 0, 0, 0
        DC8 0, 0, 0, 0, 0, 0, 0, 0, 0, 0, 0, 0, 0, 0, 0, 0, 0, 0, 0, 0, 0, 0, 0
        DC8 0, 0, 0, 0, 0, 0, 0, 0, 0, 0, 0, 0, 0, 0, 0, 0, 0, 0, 0, 0, 0, 0, 0
        DC8 0, 0, 0, 0, 0, 0, 0, 0, 0, 0, 0, 0, 0, 0, 0, 0, 0, 0, 0, 0, 0, 0, 0
        DC8 0, 0, 0, 0, 0, 0, 0, 0, 0, 0, 0, 0, 0, 0, 0, 0, 0, 0, 0, 0, 0, 0, 0
        DC8 0, 0, 0, 0, 0, 0, 0, 0, 0, 0, 0, 0, 0, 0, 0, 0, 0, 0, 0, 0, 0, 0, 0
        DC8 0, 0, 0, 0, 0, 0, 0, 0, 0, 0, 0, 0, 0, 0, 0, 0, 0, 0, 0, 0, 0, 0, 0
        DC8 0, 0, 0, 0, 0, 0, 0, 0, 0, 0, 0, 0, 0, 0, 0, 0, 0, 0, 0, 0, 0, 0, 0
        DC8 0, 0, 0, 0, 0, 0, 0, 0, 0, 0, 0, 0, 0, 0, 0, 0, 0, 0, 0, 0, 0, 0, 0
        DC8 0, 0, 0, 0, 0, 0, 0, 0, 0, 0, 0, 0, 0, 0, 0, 0, 0, 0, 0, 0, 0, 0, 0
        DC8 0, 0, 0, 0, 0, 0, 0, 0, 0, 0, 0, 0, 0, 0, 0, 0, 0, 0, 0, 0, 0, 0, 0
        DC8 0, 0, 0, 0, 0, 0, 0, 0, 0, 0, 0, 0, 0, 0, 0, 0, 0, 0, 0, 0, 0, 0, 0
        DC8 0, 0, 0, 0, 0, 0, 0, 0, 0, 0, 0, 0, 0, 0, 0, 0, 0, 0, 0, 0, 0, 0, 0
        DC8 0, 0, 0, 0, 0, 0, 0, 0, 0, 0, 0, 0, 0, 0, 0, 0, 0, 0, 0, 0, 0, 0, 0
        DC8 0, 0, 0, 0, 0, 0, 0, 0, 0, 0, 0, 0, 0, 0, 0, 0, 0, 0, 0, 0, 0, 0, 0
        DC8 0, 0, 0, 0, 0, 0, 0, 0, 0, 0, 0, 0, 0, 0, 0, 0, 0, 0, 0, 0, 0, 0, 0
        DC8 0, 0, 0, 0, 0, 0, 0, 0, 0, 0, 0, 0, 0, 0, 0, 0, 0, 0, 0, 0, 0, 0, 0
        DC8 0, 0, 0, 0, 0, 0, 0, 0, 0, 0, 0, 0, 0, 0, 0, 0, 0, 0, 0, 0, 0, 0, 0
        DC8 0, 0, 0, 0, 0, 0, 0, 0, 0, 0, 0, 0, 0, 0, 0, 0, 0, 0, 0, 0, 0, 0, 0
        DC8 0, 0, 0, 0, 0, 0, 0, 0, 0, 0, 0, 0, 0, 0, 0, 0, 0, 0, 0, 0, 0, 0, 0
        DC8 0, 0, 0, 0, 0, 0, 0, 0, 0, 0, 0, 0, 0, 0, 0, 0, 0, 0, 0, 0, 0, 0, 0
        DC8 0, 0, 0, 0, 0, 0, 0, 0, 0, 0, 0, 0, 0, 0, 0, 0, 0, 0, 0, 0, 0, 0, 0
        DC8 0, 0, 0, 0, 0, 0, 0, 0, 0, 0, 0, 0, 0, 0, 0, 0, 0, 0, 0, 0, 0, 0, 0
        DC8 0, 0, 0, 0, 0, 0, 0, 0, 0, 0, 0, 0, 0, 0, 0, 0, 0, 0, 0, 0, 0, 0, 0
        DC8 0, 0, 0, 0, 0, 0, 0, 0, 0, 0, 0, 0, 0, 0, 0, 0, 0, 0, 0, 0, 0, 0, 0
        DC8 0, 0, 0, 0, 0, 0, 0, 0, 0, 0, 0, 0, 0, 0, 0, 0, 0, 0, 0, 0, 0, 0, 0
        DC8 0, 0, 0, 0, 0, 0, 0, 0, 0, 0, 0, 0, 0, 0, 0, 0, 0, 0, 0, 0, 0, 0, 0
        DC8 0, 0, 0, 0, 0, 0, 0, 0, 0, 0, 0, 0, 0, 0, 0, 0, 0, 0, 0, 0, 0, 0, 0
        DC8 0, 0, 0, 0, 0, 0, 0, 0, 0, 0, 0, 0, 0, 0, 0, 0, 0, 0, 0, 0, 0, 0, 0
        DC8 0, 0, 0, 0, 0, 0, 0, 0, 0, 0, 0, 0, 0, 0, 0, 0, 0, 0, 0, 0, 0, 0, 0
        DC8 0, 0, 0, 0, 0, 0, 0, 0, 0, 0, 0, 0, 0, 0, 0, 0, 0, 0, 0, 0, 0, 0, 0
        DC8 0, 0, 0, 0, 0, 0, 0, 0, 0, 0, 0, 0, 0, 0, 0, 0, 0, 0, 0, 0, 0, 0, 0
        DC8 0, 0, 0, 0, 0, 0, 0, 0, 0, 0, 0, 0, 0, 0, 0, 0, 0, 0, 0, 0, 0, 0, 0
        DC8 0, 0, 0, 0, 0, 0, 0, 0, 0, 0, 0, 0, 0, 0, 0, 0, 0, 0, 0, 0, 0, 0, 0
        DC8 0, 0, 0, 0, 0, 0, 0, 0, 0, 0, 0, 0, 0, 0, 0, 0, 0, 0, 0, 0, 0, 0, 0
        DC8 0, 0, 0, 0, 0, 0, 0, 0, 0, 0, 0, 0, 0, 0, 0, 0, 0, 0, 0, 0, 0, 0, 0
        DC8 0, 0, 0, 0, 0, 0, 0, 0, 0, 0, 0, 0, 0, 0, 0, 0, 0, 0, 0, 0, 0, 0, 0
        DC8 0, 0, 0, 0, 0, 0, 0, 0, 0, 0, 0, 0, 0, 0, 0, 0, 0, 0, 0, 0, 0, 0, 0
        DC8 0, 0, 0, 0, 0, 0, 0, 0, 0, 0, 0, 0, 0, 0, 0, 0, 0, 0, 0, 0, 0, 0, 0
        DC8 0, 0, 0, 0, 0, 0, 0, 0, 0, 0, 0, 0, 0, 0, 0, 0, 0, 0, 0, 0, 0, 0, 0
        DC8 0, 0, 0, 0, 0, 0, 0, 0, 0, 0, 0, 0, 0, 0, 0, 0, 0, 0, 0, 0, 0, 0, 0
        DC8 0, 0, 0, 0, 0, 0, 0, 0, 0, 0, 0, 0, 0, 0, 0, 0, 0, 0, 0, 0, 0, 0, 0
        DC8 0, 0, 0, 0, 0, 0, 0, 0, 0, 0, 0, 0, 0, 0, 0, 0, 0, 0, 0, 0, 0, 0, 0
        DC8 0, 0, 0, 0, 0, 0, 0, 0, 0, 0, 0, 0, 0, 0, 0, 0, 0, 0, 0, 0, 0, 0, 0
        DC8 0, 0, 0, 0, 0, 0, 0, 0, 0, 0, 0, 0, 0, 0, 0, 0, 0, 0, 0, 0, 0, 0, 0
        DC8 0, 0, 0, 0, 0, 0, 0, 0, 0, 0, 0, 0, 0, 0, 0, 0, 0, 0, 0, 0, 0, 0, 0
        DC8 0, 0, 0, 0, 0, 0, 0, 0, 0, 0, 0, 0, 0, 0, 0, 0, 0, 0, 0, 0, 0, 0, 0
        DC8 0, 0, 0, 0, 0, 0, 0, 0, 0, 0, 0, 0, 0, 0, 0, 0, 0, 0, 0, 0, 0, 0, 0
        DC8 0, 0, 0, 0, 0, 0, 0, 0, 0, 0, 0, 0, 0, 0, 0, 0, 0, 0, 0, 0, 0, 0, 0
        DC8 0, 0, 0, 0, 0, 0, 0, 0, 0, 0, 0, 0, 0, 0, 0, 0, 0, 0, 0, 0, 0, 0, 0
        DC8 0, 0, 0, 0, 0, 0, 0, 0, 0, 0, 0, 0, 0, 0, 0, 0, 0, 0, 0, 0, 0, 0, 0
        DC8 0, 0, 0, 0, 0, 0, 0, 0, 0, 0, 0, 0, 0, 0, 0, 0, 0, 0, 0, 0, 0, 0, 0
        DC8 0, 0, 0, 0, 0, 0, 0, 0, 0, 0, 0, 0, 0, 0, 0, 0, 0, 0, 0, 0, 0, 0, 0
        DC8 0, 0, 0, 0, 0, 0, 0, 0, 0, 0, 0, 0, 0, 0, 0, 0, 0, 0, 0, 0, 0, 0, 0
        DC8 0, 0, 0, 0, 0, 0, 0, 0, 0, 0, 0, 0, 0, 0, 0, 0, 0, 0, 0, 0, 0, 0, 0
        DC8 0, 0, 0, 0, 0, 0, 0, 0, 0, 0, 0, 0, 0, 0, 0, 0, 0, 0, 0, 0, 0, 0, 0
        DC8 0, 0, 0, 0, 0, 0, 0, 0, 0, 0, 0, 0, 0, 0, 0, 0, 0, 0, 0, 0, 0, 0, 0
        DC8 0, 0, 0, 0, 0, 0, 0, 0, 0, 0, 0, 0, 0, 0, 0, 0, 0, 0, 0, 0, 0, 0, 0
        DC8 0, 0, 0, 0, 0, 0, 0, 0, 0, 0, 0, 0, 0, 0, 0, 0, 0, 0, 0, 0, 0, 0, 0
        DC8 0, 0, 0, 0, 0, 0, 0, 0, 0, 0, 0, 0, 0, 0, 0, 0, 0, 0, 0, 0, 0, 0, 0
        DC8 0, 0, 0, 0, 0, 0, 0, 0, 0, 0, 0, 0, 0, 0, 0, 0, 0, 0, 0, 0, 0, 0, 0
        DC8 0, 0, 0, 0, 0, 0, 0, 0, 0, 0, 0, 0, 0, 0, 0, 0, 0, 0, 0, 0, 0, 0, 0
        DC8 0, 0, 0, 0, 0, 0, 0, 0, 0, 0, 0, 0, 0, 0, 0, 0, 0, 0, 0, 0, 0, 0, 0
        DC8 0, 0, 0, 0, 0, 0, 0, 0, 0, 0, 0, 0, 0, 0, 0, 0, 0, 0, 0, 0, 0, 0, 0
        DC8 0, 0, 0, 0, 0, 0, 0, 0, 0, 0, 0, 0, 0, 0, 0, 0, 0, 0, 0, 0, 0, 0, 0
        DC8 0, 0, 0, 0, 0, 0, 0, 0, 0, 0, 0, 0, 0, 0, 0, 0, 0, 0, 0, 0, 0, 0, 0
        DC8 0, 0, 0, 0, 0, 0, 0, 0, 0, 0, 0, 0, 0, 0, 0, 0, 0, 0, 0, 0, 0, 0, 0
        DC8 0, 0, 0, 0, 0, 0, 0, 0, 0, 0, 0, 0, 0, 0, 0, 0, 0, 0, 0, 0, 0, 0, 0
        DC8 0, 0, 0, 0, 0, 0, 0, 0, 0, 0, 0, 0, 0, 0, 0, 0, 0, 0, 0, 0, 0, 0, 0
        DC8 0, 0, 0, 0, 0, 0, 0, 0, 0, 0, 0, 0, 0, 0, 0, 0, 0, 0, 0, 0, 0, 0, 0
        DC8 0, 0, 0, 0, 0, 0, 0, 0, 0, 0, 0, 0, 0, 0, 0, 0, 0, 0, 0, 0, 0, 0, 0
        DC8 0, 0, 0, 0, 0, 0, 0, 0, 0, 0, 0, 0, 0, 0, 0, 0, 0, 0, 0, 0, 0, 0, 0
        DC8 0, 0, 0, 0, 0, 0, 0, 0, 0, 0, 0, 0, 0, 0, 0, 0, 0, 0, 0, 0, 0, 0, 0
        DC8 0, 0, 0, 0, 0, 0, 0, 0, 0, 0, 0, 0, 0, 0, 0, 0, 0, 0, 0, 0, 0, 0, 0
        DC8 0, 0, 0, 0, 0, 0, 0, 0, 0, 0, 0, 0, 0, 0, 0, 0, 0, 0, 0, 0, 0, 0, 0
        DC8 0, 0, 0, 0, 0, 0, 0, 0, 0, 0, 0, 0, 0, 0, 0, 0, 0, 0, 0, 0, 0, 0, 0
        DC8 0, 0, 0, 0, 0, 0, 0, 0, 0, 0, 0, 0, 0, 0, 0, 0, 0, 0, 0, 0, 0, 0, 0
        DC8 0, 0, 0, 0, 0, 0, 0, 0, 0, 0, 0, 0, 0, 0, 0, 0, 0, 0, 0, 0, 0, 0, 0
        DC8 0, 0, 0, 0, 0, 0, 0, 0, 0, 0, 0, 0, 0, 0, 0, 0, 0, 0, 0, 0, 0, 0, 0
        DC8 0, 0, 0, 0, 0, 0, 0, 0, 0, 0, 0, 0, 0, 0, 0, 0, 0, 0, 0, 0, 0, 0, 0
        DC8 0, 0, 0, 0, 0, 0, 0, 0, 0, 0, 0, 0, 0, 0, 0, 0, 0, 0, 0, 0, 0, 0, 0
        DC8 0, 0, 0, 0, 0, 0, 0, 0, 0, 0, 0, 0, 0, 0, 0, 0, 0, 0, 0, 0, 0, 0, 0
        DC8 0, 0, 0, 0, 0, 0, 0, 0, 0, 0, 0, 0, 0, 0, 0, 0, 0, 0, 0, 0, 0, 0, 0
        DC8 0, 0, 0, 0, 0, 0, 0, 0, 0, 0, 0, 0, 0, 0, 0, 0, 0, 0, 0, 0, 0, 0, 0
        DC8 0, 0, 0, 0, 0, 0, 0, 0, 0, 0, 0, 0, 0, 0, 0, 0, 0, 0, 0, 0, 0, 0, 0
        DC8 0, 0, 0, 0, 0, 0, 0, 0, 0, 0, 0, 0, 0, 0, 0, 0, 0, 0, 0, 0, 0, 0, 0
        DC8 0, 0, 0, 0, 0, 0, 0, 0, 0, 0, 0, 0, 0, 0, 0, 0, 0, 0, 0, 0, 0, 0, 0
        DC8 0, 0, 0, 0, 0, 0, 0, 0, 0, 0, 0, 0, 0, 0, 0, 0, 0, 0, 0, 0, 0, 0, 0
        DC8 0, 0, 0, 0, 0, 0, 0, 0, 0, 0, 0, 0, 0, 0, 0, 0, 0, 0, 0, 0, 0, 0, 0
        DC8 0, 0, 0, 0, 0, 0, 0, 0, 0, 0, 0, 0, 0, 0, 0, 0, 0, 0, 0, 0, 0, 0, 0
        DC8 0, 0, 0, 0, 0, 0, 0, 0, 0, 0, 0, 0, 0, 0, 0, 0, 0, 0, 0, 0, 0, 0, 0
        DC8 0, 0, 0, 0, 0, 0, 0, 0, 0, 0, 0, 0, 0, 0, 0, 0, 0, 0, 0, 0, 0, 0, 0
        DC8 0, 0, 0, 0, 0, 0, 0, 0, 0, 0, 0, 0, 0, 0, 0, 0, 0, 0, 0, 0, 0, 0, 0
        DC8 0, 0, 0, 0, 0, 0, 0, 0, 0, 0, 0, 0, 0, 0, 0, 0, 0, 0, 0, 0, 0, 0, 0
        DC8 0, 0, 0, 0, 0, 0, 0, 0, 0, 0, 0, 0, 0, 0, 0, 0, 0, 0, 0, 0, 0, 0, 0
        DC8 0, 0, 0, 0, 0, 0, 0, 0, 0, 0, 0, 0, 0, 0, 0, 0, 0, 0, 0, 0, 0, 0, 0
        DC8 0, 0, 0, 0, 0, 0, 0, 0, 0, 0, 0, 0, 0, 0, 0, 0, 0, 0, 0, 0, 0, 0, 0
        DC8 0, 0, 0, 0, 0, 0, 0, 0, 0, 0, 0, 0, 0, 0, 0, 0, 0, 0, 0, 0, 0, 0, 0
        DC8 0, 0, 0, 0, 0, 0, 0, 0, 0, 0, 0, 0, 0
        DATA32
        DC32 1
        DATA8
        DC8 0, 0, 0, 0
        DATA32
        DC32 0

        SECTION `.bss`:DATA:REORDER:NOROOT(3)
        SECTION_GROUP bme280
        DATA
// __absolute BME280Driver<spi1Transceiver, PinCSforBME280> bme280
bme280:
        DS8 80

        SECTION `.data`:DATA:REORDER:NOROOT(2)
        DATA
// __absolute Unit temperatureUnits[3]
temperatureUnits:
        DATA32
        DC32 0, 2, 1

        SECTION `.text`:CODE:NOROOT(2)
          CFI Block cfiBlock1 Using cfiCommon0
          CFI Function _Z7fcnTempv
        THUMB
// __interwork __vfp double fcnTemp()
_Z7fcnTempv:
        PUSH     {R7,LR}
          CFI R14 Frame(CFA, -4)
          CFI CFA R13+8
        LDR.N    R0,??DataTable7_3
          CFI FunCall _ZN12BME280DriverIL_Z15spi1TransceiverE3PinI4PortI5GPIOBELh10EEE14GetTemperatureEv
        BL       _ZN12BME280DriverIL_Z15spi1TransceiverE3PinI4PortI5GPIOBELh10EEE14GetTemperatureEv
        POP      {R0,PC}          ;; return
          CFI EndBlock cfiBlock1

        SECTION `.text`:CODE:NOROOT(2)
          CFI Block cfiBlock2 Using cfiCommon0
          CFI Function _Z8fcnPressv
        THUMB
// __interwork __vfp double fcnPress()
_Z8fcnPressv:
        PUSH     {R7,LR}
          CFI R14 Frame(CFA, -4)
          CFI CFA R13+8
        LDR.N    R0,??DataTable7_3
          CFI FunCall _ZN12BME280DriverIL_Z15spi1TransceiverE3PinI4PortI5GPIOBELh10EEE11GetPressureEv
        BL       _ZN12BME280DriverIL_Z15spi1TransceiverE3PinI4PortI5GPIOBELh10EEE11GetPressureEv
        POP      {R0,PC}          ;; return
          CFI EndBlock cfiBlock2

        SECTION `.text`:CODE:NOROOT(2)
          CFI Block cfiBlock3 Using cfiCommon0
          CFI Function _Z6fcnHumv
        THUMB
// __interwork __vfp double fcnHum()
_Z6fcnHumv:
        PUSH     {R7,LR}
          CFI R14 Frame(CFA, -4)
          CFI CFA R13+8
        LDR.N    R0,??DataTable7_3
          CFI FunCall _ZN12BME280DriverIL_Z15spi1TransceiverE3PinI4PortI5GPIOBELh10EEE11GetHumidityEv
        BL       _ZN12BME280DriverIL_Z15spi1TransceiverE3PinI4PortI5GPIOBELh10EEE11GetHumidityEv
        POP      {R0,PC}          ;; return
          CFI EndBlock cfiBlock3

        SECTION `.text`:CODE:NOROOT(2)
          CFI Block cfiBlock4 Using cfiCommon0
          CFI Function _Z7fcnDewPv
        THUMB
// __interwork __vfp double fcnDewP()
_Z7fcnDewPv:
        PUSH     {R7,LR}
          CFI R14 Frame(CFA, -4)
          CFI CFA R13+8
        LDR.N    R0,??DataTable7_3
          CFI FunCall _ZN12BME280DriverIL_Z15spi1TransceiverE3PinI4PortI5GPIOBELh10EEE11GetDewPointEv
        BL       _ZN12BME280DriverIL_Z15spi1TransceiverE3PinI4PortI5GPIOBELh10EEE11GetDewPointEv
        POP      {R0,PC}          ;; return
          CFI EndBlock cfiBlock4

        SECTION `.bss`:DATA:REORDER:NOROOT(2)
        SECTION_GROUP temperature
        DATA
// __absolute Temperature temperature
temperature:
        DS8 44

        SECTION `.bss`:DATA:REORDER:NOROOT(2)
        SECTION_GROUP pressure
        DATA
// __absolute Measurement pressure
pressure:
        DS8 44

        SECTION `.bss`:DATA:REORDER:NOROOT(2)
        SECTION_GROUP humidity
        DATA
// __absolute Measurement humidity
humidity:
        DS8 44

        SECTION `.bss`:DATA:REORDER:NOROOT(2)
        SECTION_GROUP dewPoint
        DATA
// __absolute Temperature dewPoint
dewPoint:
        DS8 44

        SECTION `.data`:DATA:REORDER:NOROOT(2)
        SECTION_GROUP measurements
        DATA
// __absolute Measurement *measurements[4]
measurements:
        DATA32
        DC32 temperature, pressure, humidity, dewPoint

        SECTION `.data`:DATA:REORDER:NOROOT(2)
        SECTION_GROUP userUnits
        DATA
// __absolute Unit userUnits[4]
userUnits:
        DATA32
        DC32 1, 3, 4, 1

        SECTION `.rodata`:CONST:REORDER:NOROOT(3)
        DATA
?_15:
        DATA64
        DC64 1'000

        SECTION `.rodata`:CONST:REORDER:NOROOT(3)
        DATA
?_16:
        DATA64
        DC64 100

        SECTION `.bss`:DATA:REORDER:NOROOT(2)
        SECTION_GROUP _ZZN15MeasurementTaskIL_Z5eventEE11UnitsUpdateEvE7counter
        DATA
// __absolute int counter
_ZZN15MeasurementTaskIL_Z5eventEE11UnitsUpdateEvE7counter:
        DS8 4

        SECTION `.text`:CODE:NOROOT(2)
          CFI Block cfiBlock5 Using cfiCommon0
          CFI Function SysCtlDelay
          CFI NoCalls
        THUMB
// __interwork __vfp void SysCtlDelay(unsigned long)
SysCtlDelay:
        subs    r0, #1
        bne.n   SysCtlDelay
        bx      lr
        BX       LR               ;; return
          CFI EndBlock cfiBlock5

        SECTION `.text`:CODE:NOROOT(1)
          CFI Block cfiBlock6 Using cfiCommon0
          CFI Function _Z8Delay_msy
        THUMB
// __interwork __vfp void Delay_ms(uint64_t)
_Z8Delay_msy:
        PUSH     {R3-R5,LR}
          CFI R14 Frame(CFA, -4)
          CFI R5 Frame(CFA, -8)
          CFI R4 Frame(CFA, -12)
          CFI CFA R13+16
        MOVS     R4,R0
        MOVS     R5,R1
        LDR.N    R0,??DataTable7_31
        LDR      R2,[R0, #+0]
        MOVS     R3,#+0
        UMULL    R0,R1,R2,R4
        MLA      R1,R2,R5,R1
        MLA      R1,R3,R4,R1
        MOVW     R2,#+3000
        MOVS     R3,#+0
          CFI FunCall __aeabi_uldivmod
        BL       __aeabi_uldivmod
          CFI FunCall SysCtlDelay
        BL       SysCtlDelay
        POP      {R0,R4,R5,PC}    ;; return
          CFI EndBlock cfiBlock6

        SECTION `.rodata`:CONST:REORDER:NOROOT(2)
        DATA
// static __absolute unsigned char const EPD_4IN2_lut_vcom0[44]
EPD_4IN2_lut_vcom0:
        DATA8
        DC8 0, 23, 0, 0, 0, 2, 0, 23, 23, 0, 0, 2, 0, 10, 1, 0, 0, 1, 0, 14, 14
        DC8 0, 0, 2, 0, 0, 0, 0, 0, 0, 0, 0, 0, 0, 0, 0, 0, 0, 0, 0, 0, 0, 0, 0

        SECTION `.rodata`:CONST:REORDER:NOROOT(2)
        DATA
// static __absolute unsigned char const EPD_4IN2_lut_vcom0_quick[44]
EPD_4IN2_lut_vcom0_quick:
        DATA8
        DC8 0, 14, 14, 0, 0, 2, 0, 0, 0, 0, 0, 0, 0, 0, 0, 0, 0, 0, 0, 0, 0, 0
        DC8 0, 0, 0, 0, 0, 0, 0, 0, 0, 0, 0, 0, 0, 0, 0, 0, 0, 0, 0, 0, 0, 0

        SECTION `.rodata`:CONST:REORDER:NOROOT(2)
        DATA
// static __absolute unsigned char const EPD_4IN2_lut_ww[42]
EPD_4IN2_lut_ww:
        DATA8
        DC8 64, 23, 0, 0, 0, 2, 144, 23, 23, 0, 0, 2, 64, 10, 1, 0, 0, 1, 160
        DC8 14, 14, 0, 0, 2, 0, 0, 0, 0, 0, 0, 0, 0, 0, 0, 0, 0, 0, 0, 0, 0, 0
        DC8 0, 0, 0

        SECTION `.rodata`:CONST:REORDER:NOROOT(2)
        DATA
// static __absolute unsigned char const EPD_4IN2_lut_ww_quick[42]
EPD_4IN2_lut_ww_quick:
        DATA8
        DC8 160, 14, 0, 0, 0, 2, 0, 0, 0, 0, 0, 0, 0, 0, 0, 0, 0, 0, 0, 0, 0, 0
        DC8 0, 0, 0, 0, 0, 0, 0, 0, 0, 0, 0, 0, 0, 0, 0, 0, 0, 0, 0, 0, 0, 0

        SECTION `.rodata`:CONST:REORDER:NOROOT(2)
        DATA
// static __absolute unsigned char const EPD_4IN2_lut_bw[42]
EPD_4IN2_lut_bw:
        DATA8
        DC8 64, 23, 0, 0, 0, 2, 144, 23, 23, 0, 0, 2, 64, 10, 1, 0, 0, 1, 160
        DC8 14, 14, 0, 0, 2, 0, 0, 0, 0, 0, 0, 0, 0, 0, 0, 0, 0, 0, 0, 0, 0, 0
        DC8 0, 0, 0

        SECTION `.rodata`:CONST:REORDER:NOROOT(2)
        DATA
// static __absolute unsigned char const EPD_4IN2_lut_bw_quick[42]
EPD_4IN2_lut_bw_quick:
        DATA8
        DC8 160, 14, 0, 0, 0, 2, 0, 0, 0, 0, 0, 0, 0, 0, 0, 0, 0, 0, 0, 0, 0, 0
        DC8 0, 0, 0, 0, 0, 0, 0, 0, 0, 0, 0, 0, 0, 0, 0, 0, 0, 0, 0, 0, 0, 0

        SECTION `.rodata`:CONST:REORDER:NOROOT(2)
        DATA
// static __absolute unsigned char const EPD_4IN2_lut_wb[42]
EPD_4IN2_lut_wb:
        DATA8
        DC8 128, 23, 0, 0, 0, 2, 144, 23, 23, 0, 0, 2, 128, 10, 1, 0, 0, 1, 80
        DC8 14, 14, 0, 0, 2, 0, 0, 0, 0, 0, 0, 0, 0, 0, 0, 0, 0, 0, 0, 0, 0, 0
        DC8 0, 0, 0

        SECTION `.rodata`:CONST:REORDER:NOROOT(2)
        DATA
// static __absolute unsigned char const EPD_4IN2_lut_wb_quick[42]
EPD_4IN2_lut_wb_quick:
        DATA8
        DC8 80, 14, 0, 0, 0, 2, 0, 0, 0, 0, 0, 0, 0, 0, 0, 0, 0, 0, 0, 0, 0, 0
        DC8 0, 0, 0, 0, 0, 0, 0, 0, 0, 0, 0, 0, 0, 0, 0, 0, 0, 0, 0, 0, 0, 0

        SECTION `.rodata`:CONST:REORDER:NOROOT(2)
        DATA
// static __absolute unsigned char const EPD_4IN2_lut_bb[42]
EPD_4IN2_lut_bb:
        DATA8
        DC8 128, 23, 0, 0, 0, 2, 144, 23, 23, 0, 0, 2, 128, 10, 1, 0, 0, 1, 80
        DC8 14, 14, 0, 0, 2, 0, 0, 0, 0, 0, 0, 0, 0, 0, 0, 0, 0, 0, 0, 0, 0, 0
        DC8 0, 0, 0

        SECTION `.rodata`:CONST:REORDER:NOROOT(2)
        DATA
// static __absolute unsigned char const EPD_4IN2_lut_bb_quick[42]
EPD_4IN2_lut_bb_quick:
        DATA8
        DC8 80, 14, 0, 0, 0, 2, 0, 0, 0, 0, 0, 0, 0, 0, 0, 0, 0, 0, 0, 0, 0, 0
        DC8 0, 0, 0, 0, 0, 0, 0, 0, 0, 0, 0, 0, 0, 0, 0, 0, 0, 0, 0, 0, 0, 0

        SECTION `.bss`:DATA:REORDER:NOROOT(0)
        SECTION_GROUP eInkDisplay
        DATA
// __absolute EPDDriver<spi2Transceiver, PinCSforEPD, PinDCforEPD, PinRSTforEPD, PinBSYforEPD> eInkDisplay
eInkDisplay:
        DS8 1

        SECTION `.rodata`:CONST:REORDER:NOROOT(2)
        DATA
// static __absolute uint8_t const segoeUISemibold_24ptBitmaps[7293]
segoeUISemibold_24ptBitmaps:
        DATA8
        DC8 0, 0, 0, 248, 248, 248, 248, 248, 248, 248, 248, 248, 248, 248, 248
        DC8 248, 248, 248, 248, 0, 0, 0, 120, 252, 252, 120, 0, 0, 0, 0, 0, 0
        DC8 0, 0, 0, 0, 0, 0, 0, 255, 192, 255, 192, 255, 192, 255, 192, 255
        DC8 192, 255, 192, 115, 128, 0, 0, 0, 0, 0, 0, 0, 0, 0, 0, 0, 0, 0, 0
        DC8 0, 0, 0, 0, 0, 0, 0, 0, 0, 0, 0, 0, 0, 0, 0, 0, 0, 0, 0, 0, 0, 0, 0
        DC8 0, 0, 0, 0, 0, 0, 0, 0, 0, 0, 0, 0, 0, 0, 0, 0, 0, 0, 3, 207, 0, 3
        DC8 207, 0, 3, 142, 0, 3, 142, 0, 3, 142, 0, 7, 158, 0, 127, 255, 192
        DC8 127, 255, 192, 7, 28, 0, 15, 28, 0, 15, 60, 0, 15, 60, 0, 14, 56, 0
        DC8 255, 255, 128, 255, 255, 128, 30, 120, 0, 28, 112, 0, 28, 112, 0
        DC8 28, 112, 0, 60, 240, 0, 60, 240, 0, 0, 0, 0, 0, 0, 0, 0, 0, 0, 0, 0
        DC8 0, 0, 0, 0, 0, 0, 0, 0, 0, 0, 0, 0, 0, 0, 0, 0, 3, 128, 3, 128, 3
        DC8 128, 15, 248, 63, 252, 127, 252, 127, 140, 251, 128, 251, 128, 251
        DC8 128, 251, 128, 255, 128, 127, 128, 63, 128, 31, 224, 7, 248, 3, 252
        DC8 3, 252, 3, 190, 3, 190, 3, 190, 195, 190, 243, 252, 255, 252, 255
        DC8 248, 63, 224, 3, 128, 3, 128, 3, 128, 0, 0, 0, 0, 0, 0, 0, 0, 0, 0
        DC8 0, 0, 0, 0, 0, 0, 0, 0, 0, 0, 31, 128, 60, 0, 63, 224, 56, 0, 121
        DC8 224, 112, 0, 240, 240, 240, 0, 240, 240, 224, 0, 240, 241, 192, 0
        DC8 240, 241, 192, 0, 240, 243, 128, 0, 240, 247, 128, 0, 121, 231, 0
        DC8 0, 63, 206, 0, 0, 31, 158, 252, 0, 0, 29, 255, 0, 0, 59, 207, 0, 0
        DC8 127, 135, 128, 0, 119, 135, 128, 0, 231, 135, 128, 0, 231, 135, 128
        DC8 1, 199, 135, 128, 3, 199, 135, 128, 3, 131, 207, 0, 7, 1, 254, 0
        DC8 15, 0, 252, 0, 0, 0, 0, 0, 0, 0, 0, 0, 0, 0, 0, 0, 0, 0, 0, 0, 0, 0
        DC8 0, 0, 0, 0, 0, 0, 0, 0, 0, 0, 0, 0, 0, 0, 0, 0, 0, 0, 0, 3, 240, 0
        DC8 15, 252, 0, 15, 252, 0, 31, 62, 0, 30, 30, 0, 30, 30, 60, 30, 30
        DC8 60, 15, 60, 60, 15, 248, 60, 7, 240, 60, 15, 248, 60, 63, 252, 120
        DC8 126, 62, 120, 124, 31, 112, 248, 15, 240, 248, 7, 224, 248, 7, 224
        DC8 248, 3, 192, 252, 7, 224, 126, 31, 240, 127, 254, 255, 63, 252, 127
        DC8 15, 240, 63, 0, 0, 0, 0, 0, 0, 0, 0, 0, 0, 0, 0, 0, 0, 0, 0, 0, 0
        DC8 0, 0, 0, 0, 0, 0, 248, 248, 248, 248, 248, 248, 112, 0, 0, 0, 0, 0
        DC8 0, 0, 0, 0, 0, 0, 0, 0, 0, 0, 0, 0, 0, 0, 0, 0, 0, 0, 0, 0, 0, 0, 0
        DC8 0, 3, 192, 7, 128, 15, 0, 30, 0, 62, 0, 60, 0, 124, 0, 120, 0, 120
        DC8 0, 120, 0, 240, 0, 240, 0, 240, 0, 240, 0, 240, 0, 240, 0, 240, 0
        DC8 240, 0, 240, 0, 120, 0, 120, 0, 120, 0, 60, 0, 60, 0, 30, 0, 15, 0
        DC8 7, 128, 7, 192, 0, 0, 0, 0, 0, 0, 0, 0, 0, 0, 240, 0, 120, 0, 60, 0
        DC8 30, 0, 31, 0, 15, 0, 15, 128, 7, 128, 7, 128, 7, 128, 3, 192, 3
        DC8 192, 3, 192, 3, 192, 3, 192, 3, 192, 3, 192, 3, 192, 3, 192, 7, 128
        DC8 7, 128, 7, 128, 15, 0, 15, 0, 30, 0, 60, 0, 120, 0, 248, 0, 0, 0, 0
        DC8 0, 0, 0, 0, 0, 0, 0, 15, 0, 15, 0, 15, 0, 111, 96, 255, 240, 31
        DC8 128, 31, 128, 31, 128, 63, 192, 121, 224, 0, 0, 0, 0, 0, 0, 0, 0, 0
        DC8 0, 0, 0, 0, 0, 0, 0, 0, 0, 0, 0, 0, 0, 0, 0, 0, 0, 0, 0, 0, 0, 0, 0
        DC8 0, 0, 0, 0, 0, 0, 0, 0, 0, 0, 0, 0, 0, 0, 0, 0, 0, 0, 0, 0, 0, 0, 0
        DC8 0, 0, 0, 3, 192, 3, 192, 3, 192, 3, 192, 3, 192, 3, 192, 255, 255
        DC8 255, 255, 255, 255, 3, 192, 3, 192, 3, 192, 3, 192, 3, 192, 3, 192
        DC8 0, 0, 0, 0, 0, 0, 0, 0, 0, 0, 0, 0, 0, 0, 0, 0, 0, 0, 0, 0, 0, 0, 0
        DC8 0, 0, 0, 0, 0, 0, 0, 0, 0, 0, 0, 0, 0, 0, 0, 0, 0, 60, 124, 120
        DC8 120, 120, 112, 240, 240, 0, 0, 0, 0, 0, 0, 0, 0, 0, 0, 0, 0, 0, 0
        DC8 0, 0, 0, 0, 0, 0, 0, 0, 0, 0, 0, 0, 0, 0, 0, 0, 0, 0, 0, 0, 0, 255
        DC8 192, 255, 192, 0, 0, 0, 0, 0, 0, 0, 0, 0, 0, 0, 0, 0, 0, 0, 0, 0, 0
        DC8 0, 0, 0, 0, 0, 0, 0, 0, 0, 0, 0, 0, 0, 0, 0, 0, 0, 0, 0, 0, 0, 0, 0
        DC8 0, 0, 0, 0, 0, 0, 0, 0, 0, 0, 0, 120, 252, 252, 120, 0, 0, 0, 0, 0
        DC8 0, 0, 0, 0, 0, 0, 0, 0, 0, 31, 0, 30, 0, 62, 0, 62, 0, 60, 0, 124
        DC8 0, 120, 0, 248, 0, 240, 1, 240, 1, 240, 1, 224, 3, 224, 3, 192, 7
        DC8 192, 7, 128, 15, 128, 15, 128, 15, 0, 31, 0, 30, 0, 62, 0, 60, 0
        DC8 124, 0, 124, 0, 120, 0, 248, 0, 0, 0, 0, 0, 0, 0, 0, 0, 0, 0, 0, 0
        DC8 0, 0, 0, 7, 240, 0, 15, 252, 0, 31, 254, 0, 62, 62, 0, 124, 31, 0
        DC8 124, 31, 0, 124, 31, 128, 248, 15, 128, 248, 15, 128, 248, 15, 128
        DC8 248, 15, 128, 248, 15, 128, 248, 15, 128, 248, 15, 128, 248, 15
        DC8 128, 248, 15, 128, 248, 15, 0, 124, 31, 0, 124, 31, 0, 62, 62, 0
        DC8 63, 252, 0, 31, 248, 0, 7, 240, 0, 0, 0, 0, 0, 0, 0, 0, 0, 0, 0, 0
        DC8 0, 0, 0, 0, 0, 0, 0, 0, 0, 0, 0, 0, 0, 0, 0, 0, 3, 128, 63, 128
        DC8 255, 128, 255, 128, 239, 128, 15, 128, 15, 128, 15, 128, 15, 128
        DC8 15, 128, 15, 128, 15, 128, 15, 128, 15, 128, 15, 128, 15, 128, 15
        DC8 128, 15, 128, 15, 128, 15, 128, 255, 248, 255, 248, 255, 248, 0, 0
        DC8 0, 0, 0, 0, 0, 0, 0, 0, 0, 0, 0, 0, 0, 0, 0, 0, 0, 0, 15, 224, 63
        DC8 248, 127, 252, 120, 254, 96, 126, 0, 62, 0, 62, 0, 62, 0, 62, 0
        DC8 124, 0, 124, 0, 248, 1, 240, 3, 224, 7, 224, 15, 192, 31, 128, 63
        DC8 0, 62, 0, 124, 0, 255, 254, 255, 254, 255, 254, 0, 0, 0, 0, 0, 0, 0
        DC8 0, 0, 0, 0, 0, 0, 0, 0, 0, 0, 0, 0, 0, 31, 192, 127, 240, 127, 248
        DC8 112, 252, 96, 124, 0, 124, 0, 124, 0, 124, 0, 248, 1, 248, 63, 224
        DC8 63, 192, 63, 248, 0, 252, 0, 126, 0, 62, 0, 62, 0, 62, 192, 126
        DC8 224, 252, 255, 248, 255, 240, 63, 192, 0, 0, 0, 0, 0, 0, 0, 0, 0, 0
        DC8 0, 0, 0, 0, 0, 0, 0, 0, 0, 0, 0, 0, 0, 0, 63, 0, 0, 63, 0, 0, 127
        DC8 0, 0, 255, 0, 1, 255, 0, 1, 255, 0, 3, 223, 0, 7, 223, 0, 7, 159, 0
        DC8 15, 31, 0, 30, 31, 0, 30, 31, 0, 60, 31, 0, 120, 31, 0, 120, 31, 0
        DC8 255, 255, 224, 255, 255, 224, 255, 255, 224, 0, 31, 0, 0, 31, 0, 0
        DC8 31, 0, 0, 31, 0, 0, 31, 0, 0, 0, 0, 0, 0, 0, 0, 0, 0, 0, 0, 0, 0, 0
        DC8 0, 0, 0, 0, 0, 0, 0, 0, 0, 0, 0, 0, 0, 127, 252, 127, 252, 127, 252
        DC8 120, 0, 120, 0, 120, 0, 120, 0, 120, 0, 120, 0, 127, 224, 127, 248
        DC8 127, 252, 0, 252, 0, 126, 0, 62, 0, 62, 0, 62, 0, 62, 0, 126, 193
        DC8 252, 255, 248, 255, 240, 127, 192, 0, 0, 0, 0, 0, 0, 0, 0, 0, 0, 0
        DC8 0, 0, 0, 0, 0, 0, 0, 0, 0, 1, 254, 7, 254, 15, 254, 31, 134, 62, 0
        DC8 124, 0, 124, 0, 120, 0, 251, 240, 255, 252, 255, 254, 254, 126, 252
        DC8 63, 248, 31, 248, 31, 248, 31, 248, 31, 124, 31, 124, 62, 126, 126
        DC8 63, 252, 31, 248, 7, 224, 0, 0, 0, 0, 0, 0, 0, 0, 0, 0, 0, 0, 0, 0
        DC8 0, 0, 0, 0, 0, 0, 0, 0, 0, 255, 255, 128, 255, 255, 128, 255, 255
        DC8 128, 0, 31, 0, 0, 31, 0, 0, 30, 0, 0, 62, 0, 0, 60, 0, 0, 124, 0, 0
        DC8 124, 0, 0, 248, 0, 0, 248, 0, 0, 240, 0, 1, 240, 0, 1, 240, 0, 3
        DC8 224, 0, 3, 224, 0, 7, 192, 0, 7, 192, 0, 7, 128, 0, 15, 128, 0, 15
        DC8 128, 0, 31, 0, 0, 0, 0, 0, 0, 0, 0, 0, 0, 0, 0, 0, 0, 0, 0, 0, 0, 0
        DC8 0, 0, 0, 0, 0, 0, 0, 0, 0, 0, 0, 0, 0, 7, 240, 0, 31, 252, 0, 63
        DC8 254, 0, 126, 63, 0, 124, 31, 0, 124, 31, 0, 124, 31, 0, 124, 30, 0
        DC8 62, 62, 0, 31, 252, 0, 15, 240, 0, 15, 248, 0, 63, 254, 0, 126, 63
        DC8 0, 124, 31, 0, 248, 15, 128, 248, 15, 128, 248, 15, 128, 252, 31
        DC8 128, 126, 63, 0, 127, 255, 0, 63, 254, 0, 15, 240, 0, 0, 0, 0, 0, 0
        DC8 0, 0, 0, 0, 0, 0, 0, 0, 0, 0, 0, 0, 0, 0, 0, 0, 0, 0, 0, 0, 0, 0, 0
        DC8 0, 0, 7, 240, 0, 31, 252, 0, 63, 254, 0, 126, 63, 0, 124, 31, 0
        DC8 248, 31, 0, 248, 15, 128, 248, 15, 128, 248, 15, 128, 248, 15, 128
        DC8 252, 31, 128, 126, 63, 128, 63, 255, 128, 63, 255, 128, 15, 239
        DC8 128, 0, 15, 0, 0, 31, 0, 0, 31, 0, 0, 62, 0, 96, 252, 0, 127, 248
        DC8 0, 127, 240, 0, 63, 192, 0, 0, 0, 0, 0, 0, 0, 0, 0, 0, 0, 0, 0, 0
        DC8 0, 0, 0, 0, 0, 0, 0, 0, 0, 0, 0, 0, 0, 0, 0, 0, 0, 0, 120, 252, 252
        DC8 120, 0, 0, 0, 0, 0, 0, 0, 0, 120, 252, 252, 120, 0, 0, 0, 0, 0, 0
        DC8 0, 0, 0, 0, 0, 0, 0, 0, 0, 0, 0, 60, 126, 126, 60, 0, 0, 0, 0, 0, 0
        DC8 0, 0, 60, 124, 120, 120, 120, 112, 240, 240, 0, 0, 0, 0, 0, 0, 0, 0
        DC8 0, 0, 0, 0, 0, 0, 0, 0, 0, 0, 0, 0, 6, 0, 30, 0, 126, 1, 252, 3
        DC8 240, 15, 192, 63, 0, 252, 0, 248, 0, 126, 0, 31, 192, 7, 240, 1
        DC8 252, 0, 126, 0, 30, 0, 6, 0, 0, 0, 0, 0, 0, 0, 0, 0, 0, 0, 0, 0, 0
        DC8 0, 0, 0, 0, 0, 0, 0, 0, 0, 0, 0, 0, 0, 0, 0, 0, 0, 0, 0, 0, 0, 0, 0
        DC8 0, 0, 0, 0, 0, 255, 255, 255, 255, 255, 255, 0, 0, 0, 0, 0, 0, 0, 0
        DC8 255, 255, 255, 255, 255, 255, 0, 0, 0, 0, 0, 0, 0, 0, 0, 0, 0, 0, 0
        DC8 0, 0, 0, 0, 0, 0, 0, 0, 0, 0, 0, 0, 0, 0, 0, 0, 0, 0, 0, 0, 0, 0, 0
        DC8 0, 0, 192, 0, 240, 0, 252, 0, 127, 0, 31, 128, 7, 224, 1, 248, 0
        DC8 126, 0, 62, 0, 252, 7, 240, 31, 192, 127, 0, 252, 0, 240, 0, 192, 0
        DC8 0, 0, 0, 0, 0, 0, 0, 0, 0, 0, 0, 0, 0, 0, 0, 0, 0, 0, 0, 0, 0, 0, 0
        DC8 0, 63, 192, 255, 224, 255, 240, 225, 248, 192, 248, 0, 248, 0, 248
        DC8 0, 248, 1, 240, 3, 224, 7, 192, 15, 128, 15, 0, 30, 0, 30, 0, 30, 0
        DC8 30, 0, 0, 0, 0, 0, 15, 0, 31, 128, 31, 128, 15, 0, 0, 0, 0, 0, 0, 0
        DC8 0, 0, 0, 0, 0, 0, 0, 0, 0, 0, 0, 0, 0, 0, 0, 0, 0, 0, 0, 0, 0, 127
        DC8 192, 0, 1, 255, 248, 0, 7, 224, 126, 0, 15, 128, 31, 0, 31, 0, 15
        DC8 128, 62, 0, 7, 128, 60, 62, 227, 192, 120, 255, 227, 192, 120, 243
        DC8 225, 224, 249, 225, 225, 224, 241, 225, 225, 224, 243, 193, 225
        DC8 224, 243, 193, 225, 224, 243, 193, 225, 224, 243, 193, 193, 224
        DC8 243, 195, 195, 192, 243, 195, 227, 192, 121, 231, 231, 128, 121
        DC8 255, 255, 0, 124, 124, 252, 0, 60, 0, 0, 0, 30, 0, 0, 0, 15, 128, 0
        DC8 0, 7, 224, 56, 0, 3, 255, 248, 0, 0, 127, 224, 0, 0, 0, 0, 0, 0, 0
        DC8 0, 0, 0, 0, 0, 0, 0, 0, 0, 0, 0, 0, 0, 0, 0, 0, 0, 0, 0, 0, 252, 0
        DC8 0, 252, 0, 0, 254, 0, 1, 254, 0, 1, 254, 0, 3, 255, 0, 3, 223, 0, 3
        DC8 207, 0, 7, 207, 128, 7, 143, 128, 7, 135, 128, 15, 135, 192, 15, 7
        DC8 192, 31, 3, 224, 31, 255, 224, 31, 255, 224, 63, 255, 240, 62, 1
        DC8 240, 62, 1, 240, 124, 0, 248, 124, 0, 248, 124, 0, 248, 248, 0, 124
        DC8 0, 0, 0, 0, 0, 0, 0, 0, 0, 0, 0, 0, 0, 0, 0, 0, 0, 0, 0, 0, 0, 0, 0
        DC8 0, 0, 0, 0, 255, 224, 255, 248, 255, 252, 248, 126, 248, 62, 248
        DC8 62, 248, 62, 248, 62, 248, 124, 248, 252, 255, 240, 255, 248, 255
        DC8 252, 248, 126, 248, 63, 248, 31, 248, 31, 248, 31, 248, 63, 248
        DC8 126, 255, 254, 255, 248, 255, 224, 0, 0, 0, 0, 0, 0, 0, 0, 0, 0, 0
        DC8 0, 0, 0, 0, 0, 0, 0, 0, 0, 0, 0, 0, 0, 255, 128, 3, 255, 192, 15
        DC8 255, 192, 31, 192, 192, 63, 0, 0, 62, 0, 0, 124, 0, 0, 124, 0, 0
        DC8 248, 0, 0, 248, 0, 0, 248, 0, 0, 248, 0, 0, 248, 0, 0, 248, 0, 0
        DC8 248, 0, 0, 252, 0, 0, 124, 0, 0, 126, 0, 0, 63, 0, 192, 31, 195
        DC8 192, 15, 255, 192, 7, 255, 192, 1, 255, 0, 0, 0, 0, 0, 0, 0, 0, 0
        DC8 0, 0, 0, 0, 0, 0, 0, 0, 0, 0, 0, 0, 0, 0, 0, 0, 0, 0, 0, 0, 0, 0
        DC8 255, 240, 0, 255, 254, 0, 255, 255, 128, 248, 63, 192, 248, 15, 192
        DC8 248, 7, 224, 248, 3, 224, 248, 3, 240, 248, 1, 240, 248, 1, 240
        DC8 248, 1, 240, 248, 1, 240, 248, 1, 240, 248, 1, 240, 248, 1, 240
        DC8 248, 3, 224, 248, 3, 224, 248, 7, 192, 248, 15, 192, 248, 63, 128
        DC8 255, 255, 0, 255, 252, 0, 255, 224, 0, 0, 0, 0, 0, 0, 0, 0, 0, 0, 0
        DC8 0, 0, 0, 0, 0, 0, 0, 0, 0, 0, 0, 0, 0, 0, 0, 0, 0, 255, 252, 255
        DC8 252, 255, 252, 248, 0, 248, 0, 248, 0, 248, 0, 248, 0, 248, 0, 248
        DC8 0, 255, 248, 255, 248, 255, 248, 248, 0, 248, 0, 248, 0, 248, 0
        DC8 248, 0, 248, 0, 248, 0, 255, 252, 255, 252, 255, 252, 0, 0, 0, 0, 0
        DC8 0, 0, 0, 0, 0, 0, 0, 0, 0, 0, 0, 0, 0, 0, 0, 255, 248, 255, 248
        DC8 255, 248, 248, 0, 248, 0, 248, 0, 248, 0, 248, 0, 248, 0, 248, 0
        DC8 255, 240, 255, 240, 255, 240, 248, 0, 248, 0, 248, 0, 248, 0, 248
        DC8 0, 248, 0, 248, 0, 248, 0, 248, 0, 248, 0, 0, 0, 0, 0, 0, 0, 0, 0
        DC8 0, 0, 0, 0, 0, 0, 0, 0, 0, 0, 0, 0, 0, 0, 0, 0, 255, 128, 3, 255
        DC8 224, 15, 255, 224, 31, 193, 224, 63, 0, 96, 62, 0, 0, 124, 0, 0
        DC8 124, 0, 0, 248, 0, 0, 248, 0, 0, 248, 0, 0, 248, 63, 240, 248, 63
        DC8 240, 248, 63, 240, 248, 1, 240, 252, 1, 240, 124, 1, 240, 126, 1
        DC8 240, 63, 1, 240, 31, 131, 240, 15, 255, 240, 7, 255, 240, 1, 255
        DC8 128, 0, 0, 0, 0, 0, 0, 0, 0, 0, 0, 0, 0, 0, 0, 0, 0, 0, 0, 0, 0, 0
        DC8 0, 0, 0, 0, 0, 0, 0, 0, 0, 248, 3, 224, 248, 3, 224, 248, 3, 224
        DC8 248, 3, 224, 248, 3, 224, 248, 3, 224, 248, 3, 224, 248, 3, 224
        DC8 248, 3, 224, 248, 3, 224, 255, 255, 224, 255, 255, 224, 255, 255
        DC8 224, 248, 3, 224, 248, 3, 224, 248, 3, 224, 248, 3, 224, 248, 3
        DC8 224, 248, 3, 224, 248, 3, 224, 248, 3, 224, 248, 3, 224, 248, 3
        DC8 224, 0, 0, 0, 0, 0, 0, 0, 0, 0, 0, 0, 0, 0, 0, 0, 0, 0, 0, 0, 0, 0
        DC8 0, 0, 0, 0, 0, 0, 255, 128, 255, 128, 255, 128, 62, 0, 62, 0, 62, 0
        DC8 62, 0, 62, 0, 62, 0, 62, 0, 62, 0, 62, 0, 62, 0, 62, 0, 62, 0, 62
        DC8 0, 62, 0, 62, 0, 62, 0, 62, 0, 255, 128, 255, 128, 255, 128, 0, 0
        DC8 0, 0, 0, 0, 0, 0, 0, 0, 0, 0, 0, 0, 0, 0, 0, 0, 0, 0, 3, 224, 3
        DC8 224, 3, 224, 3, 224, 3, 224, 3, 224, 3, 224, 3, 224, 3, 224, 3, 224
        DC8 3, 224, 3, 224, 3, 224, 3, 224, 3, 224, 3, 224, 3, 224, 3, 224, 7
        DC8 192, 207, 192, 255, 128, 255, 0, 252, 0, 0, 0, 0, 0, 0, 0, 0, 0, 0
        DC8 0, 0, 0, 0, 0, 0, 0, 0, 0, 0, 0, 0, 0, 0, 248, 31, 128, 248, 31, 0
        DC8 248, 62, 0, 248, 124, 0, 248, 252, 0, 248, 248, 0, 249, 240, 0, 251
        DC8 224, 0, 251, 224, 0, 255, 192, 0, 255, 128, 0, 255, 128, 0, 255
        DC8 192, 0, 255, 224, 0, 251, 224, 0, 249, 240, 0, 249, 248, 0, 248
        DC8 252, 0, 248, 126, 0, 248, 62, 0, 248, 63, 0, 248, 31, 128, 248, 15
        DC8 192, 0, 0, 0, 0, 0, 0, 0, 0, 0, 0, 0, 0, 0, 0, 0, 0, 0, 0, 0, 0, 0
        DC8 0, 0, 0, 0, 0, 0, 248, 0, 248, 0, 248, 0, 248, 0, 248, 0, 248, 0
        DC8 248, 0, 248, 0, 248, 0, 248, 0, 248, 0, 248, 0, 248, 0, 248, 0, 248
        DC8 0, 248, 0, 248, 0, 248, 0, 248, 0, 248, 0, 255, 252, 255, 252, 255
        DC8 252, 0, 0, 0, 0, 0, 0, 0, 0, 0, 0, 0, 0, 0, 0, 0, 0, 0, 0, 0, 0, 0
        DC8 0, 0, 0, 0, 0, 254, 0, 31, 192, 254, 0, 31, 192, 255, 0, 31, 192
        DC8 255, 0, 63, 192, 255, 128, 63, 192, 255, 128, 127, 192, 255, 128
        DC8 127, 192, 255, 192, 127, 192, 251, 192, 255, 192, 251, 192, 247
        DC8 192, 251, 225, 247, 192, 249, 225, 231, 192, 249, 241, 231, 192
        DC8 248, 243, 231, 192, 248, 243, 199, 192, 248, 251, 199, 192, 248
        DC8 127, 135, 192, 248, 127, 135, 192, 248, 127, 135, 192, 248, 63, 7
        DC8 192, 248, 63, 7, 192, 248, 30, 7, 192, 248, 30, 7, 192, 0, 0, 0, 0
        DC8 0, 0, 0, 0, 0, 0, 0, 0, 0, 0, 0, 0, 0, 0, 0, 0, 0, 0, 0, 0, 0, 0, 0
        DC8 0, 0, 0, 0, 0, 0, 0, 0, 0, 0, 252, 0, 248, 254, 0, 248, 254, 0, 248
        DC8 255, 0, 248, 255, 128, 248, 255, 128, 248, 255, 192, 248, 251, 224
        DC8 248, 251, 224, 248, 249, 240, 248, 249, 240, 248, 248, 248, 248
        DC8 248, 124, 248, 248, 124, 248, 248, 62, 248, 248, 31, 248, 248, 31
        DC8 248, 248, 15, 248, 248, 7, 248, 248, 7, 248, 248, 3, 248, 248, 1
        DC8 248, 248, 1, 248, 0, 0, 0, 0, 0, 0, 0, 0, 0, 0, 0, 0, 0, 0, 0, 0, 0
        DC8 0, 0, 0, 0, 0, 0, 0, 0, 0, 0, 0, 0, 0, 0, 255, 0, 7, 255, 192, 15
        DC8 255, 224, 31, 131, 240, 63, 1, 248, 126, 0, 252, 124, 0, 124, 124
        DC8 0, 126, 248, 0, 62, 248, 0, 62, 248, 0, 62, 248, 0, 62, 248, 0, 62
        DC8 248, 0, 62, 248, 0, 62, 252, 0, 124, 124, 0, 124, 126, 0, 252, 63
        DC8 1, 248, 31, 131, 240, 15, 255, 224, 7, 255, 192, 1, 255, 0, 0, 0, 0
        DC8 0, 0, 0, 0, 0, 0, 0, 0, 0, 0, 0, 0, 0, 0, 0, 0, 0, 0, 0, 0, 0, 0, 0
        DC8 0, 255, 224, 255, 248, 255, 252, 248, 126, 248, 63, 248, 31, 248
        DC8 31, 248, 31, 248, 31, 248, 31, 248, 62, 248, 126, 255, 252, 255
        DC8 248, 255, 224, 248, 0, 248, 0, 248, 0, 248, 0, 248, 0, 248, 0, 248
        DC8 0, 248, 0, 0, 0, 0, 0, 0, 0, 0, 0, 0, 0, 0, 0, 0, 0, 0, 0, 0, 0, 0
        DC8 0, 0, 0, 0, 0, 255, 0, 7, 255, 192, 15, 255, 224, 31, 131, 240, 63
        DC8 1, 248, 126, 0, 252, 124, 0, 124, 124, 0, 126, 248, 0, 62, 248, 0
        DC8 62, 248, 0, 62, 248, 0, 62, 248, 0, 62, 248, 0, 62, 248, 0, 62, 252
        DC8 0, 124, 124, 0, 124, 126, 0, 252, 63, 1, 248, 31, 131, 240, 15, 255
        DC8 224, 7, 255, 192, 1, 254, 0, 0, 31, 128, 0, 15, 192, 0, 7, 224, 0
        DC8 3, 255, 0, 1, 255, 0, 0, 127, 0, 0, 0, 0, 0, 0, 0, 0, 0, 0, 0, 0
        DC8 255, 224, 0, 255, 248, 0, 255, 252, 0, 248, 124, 0, 248, 126, 0
        DC8 248, 62, 0, 248, 62, 0, 248, 62, 0, 248, 62, 0, 248, 124, 0, 248
        DC8 252, 0, 255, 248, 0, 255, 224, 0, 255, 224, 0, 249, 240, 0, 248
        DC8 248, 0, 248, 124, 0, 248, 124, 0, 248, 62, 0, 248, 31, 0, 248, 31
        DC8 0, 248, 15, 128, 248, 15, 192, 0, 0, 0, 0, 0, 0, 0, 0, 0, 0, 0, 0
        DC8 0, 0, 0, 0, 0, 0, 0, 0, 0, 0, 0, 0, 0, 0, 0, 7, 248, 63, 252, 127
        DC8 252, 126, 12, 248, 0, 248, 0, 248, 0, 248, 0, 252, 0, 127, 0, 63
        DC8 192, 31, 240, 7, 248, 1, 252, 0, 126, 0, 62, 0, 62, 0, 62, 192, 62
        DC8 240, 252, 255, 252, 255, 248, 63, 224, 0, 0, 0, 0, 0, 0, 0, 0, 0, 0
        DC8 0, 0, 0, 0, 0, 0, 0, 0, 0, 0, 0, 0, 0, 255, 255, 128, 255, 255, 128
        DC8 255, 255, 128, 3, 224, 0, 3, 224, 0, 3, 224, 0, 3, 224, 0, 3, 224
        DC8 0, 3, 224, 0, 3, 224, 0, 3, 224, 0, 3, 224, 0, 3, 224, 0, 3, 224, 0
        DC8 3, 224, 0, 3, 224, 0, 3, 224, 0, 3, 224, 0, 3, 224, 0, 3, 224, 0, 3
        DC8 224, 0, 3, 224, 0, 3, 224, 0, 0, 0, 0, 0, 0, 0, 0, 0, 0, 0, 0, 0, 0
        DC8 0, 0, 0, 0, 0, 0, 0, 0, 0, 0, 0, 0, 0, 0, 0, 0, 0, 248, 3, 224, 248
        DC8 3, 224, 248, 3, 224, 248, 3, 224, 248, 3, 224, 248, 3, 224, 248, 3
        DC8 224, 248, 3, 224, 248, 3, 224, 248, 3, 224, 248, 3, 224, 248, 3
        DC8 224, 248, 3, 224, 248, 3, 224, 248, 3, 224, 248, 3, 224, 248, 3
        DC8 224, 252, 7, 192, 124, 7, 192, 127, 31, 192, 63, 255, 128, 31, 255
        DC8 0, 7, 252, 0, 0, 0, 0, 0, 0, 0, 0, 0, 0, 0, 0, 0, 0, 0, 0, 0, 0, 0
        DC8 0, 0, 0, 0, 0, 0, 0, 0, 0, 0, 0, 0, 248, 0, 124, 124, 0, 120, 124
        DC8 0, 248, 124, 0, 248, 62, 1, 240, 62, 1, 240, 62, 1, 240, 31, 3, 224
        DC8 31, 3, 224, 31, 3, 224, 15, 135, 192, 15, 135, 192, 15, 135, 128, 7
        DC8 207, 128, 7, 207, 128, 3, 207, 0, 3, 255, 0, 3, 255, 0, 1, 254, 0
        DC8 1, 254, 0, 1, 254, 0, 0, 252, 0, 0, 252, 0, 0, 0, 0, 0, 0, 0, 0, 0
        DC8 0, 0, 0, 0, 0, 0, 0, 0, 0, 0, 0, 0, 0, 0, 0, 0, 0, 0, 0, 0, 0, 0, 0
        DC8 0, 0, 248, 3, 224, 31, 252, 3, 224, 31, 124, 7, 224, 62, 124, 7
        DC8 240, 62, 124, 7, 240, 62, 62, 15, 240, 60, 62, 15, 240, 124, 62, 15
        DC8 248, 124, 62, 15, 248, 124, 31, 30, 120, 120, 31, 30, 124, 120, 31
        DC8 30, 124, 248, 15, 62, 60, 248, 15, 188, 60, 240, 15, 188, 62, 240
        DC8 15, 188, 63, 240, 7, 252, 31, 224, 7, 248, 31, 224, 7, 248, 31, 224
        DC8 7, 248, 31, 224, 3, 240, 15, 192, 3, 240, 15, 192, 3, 240, 15, 192
        DC8 0, 0, 0, 0, 0, 0, 0, 0, 0, 0, 0, 0, 0, 0, 0, 0, 0, 0, 0, 0, 0, 0, 0
        DC8 0, 0, 0, 0, 0, 0, 0, 0, 0, 0, 0, 0, 0, 0, 126, 1, 248, 62, 1, 240
        DC8 31, 3, 224, 31, 131, 224, 15, 135, 192, 15, 199, 192, 7, 207, 128
        DC8 3, 255, 0, 3, 255, 0, 1, 254, 0, 1, 252, 0, 0, 252, 0, 1, 254, 0, 1
        DC8 254, 0, 3, 255, 0, 7, 223, 0, 15, 143, 128, 15, 143, 192, 31, 7
        DC8 192, 63, 7, 224, 62, 3, 224, 126, 1, 240, 252, 1, 248, 0, 0, 0, 0
        DC8 0, 0, 0, 0, 0, 0, 0, 0, 0, 0, 0, 0, 0, 0, 0, 0, 0, 0, 0, 0, 0, 0, 0
        DC8 0, 0, 0, 248, 3, 224, 124, 7, 192, 124, 7, 192, 62, 7, 128, 62, 15
        DC8 128, 31, 15, 0, 31, 31, 0, 31, 31, 0, 15, 190, 0, 15, 190, 0, 7
        DC8 252, 0, 7, 252, 0, 3, 248, 0, 3, 248, 0, 1, 240, 0, 1, 240, 0, 1
        DC8 240, 0, 1, 240, 0, 1, 240, 0, 1, 240, 0, 1, 240, 0, 1, 240, 0, 1
        DC8 240, 0, 0, 0, 0, 0, 0, 0, 0, 0, 0, 0, 0, 0, 0, 0, 0, 0, 0, 0, 0, 0
        DC8 0, 0, 0, 0, 0, 0, 0, 0, 0, 0, 127, 255, 192, 127, 255, 192, 127
        DC8 255, 128, 0, 15, 128, 0, 31, 0, 0, 62, 0, 0, 62, 0, 0, 124, 0, 0
        DC8 252, 0, 0, 248, 0, 1, 240, 0, 3, 240, 0, 3, 224, 0, 7, 192, 0, 15
        DC8 192, 0, 15, 128, 0, 31, 0, 0, 31, 0, 0, 62, 0, 0, 124, 0, 0, 127
        DC8 255, 192, 255, 255, 192, 255, 255, 192, 0, 0, 0, 0, 0, 0, 0, 0, 0
        DC8 0, 0, 0, 0, 0, 0, 0, 0, 0, 0, 0, 0, 0, 0, 0, 254, 254, 240, 240
        DC8 240, 240, 240, 240, 240, 240, 240, 240, 240, 240, 240, 240, 240
        DC8 240, 240, 240, 240, 240, 240, 240, 240, 240, 254, 254, 0, 0, 0, 0
        DC8 0, 0, 0, 0, 248, 0, 120, 0, 120, 0, 124, 0, 60, 0, 62, 0, 30, 0, 30
        DC8 0, 31, 0, 15, 0, 15, 0, 7, 128, 7, 128, 7, 192, 3, 192, 3, 192, 1
        DC8 224, 1, 224, 1, 240, 0, 240, 0, 240, 0, 120, 0, 120, 0, 124, 0, 60
        DC8 0, 60, 0, 30, 0, 0, 0, 0, 0, 0, 0, 0, 0, 254, 254, 30, 30, 30, 30
        DC8 30, 30, 30, 30, 30, 30, 30, 30, 30, 30, 30, 30, 30, 30, 30, 30, 30
        DC8 30, 30, 30, 254, 254, 0, 0, 0, 0, 0, 0, 0, 0, 0, 0, 0, 1, 192, 0, 3
        DC8 192, 0, 3, 224, 0, 7, 240, 0, 15, 240, 0, 15, 120, 0, 30, 120, 0
        DC8 30, 60, 0, 60, 60, 0, 60, 30, 0, 120, 15, 0, 120, 15, 0, 240, 7
        DC8 128, 0, 0, 0, 0, 0, 0, 0, 0, 0, 0, 0, 0, 0, 0, 0, 0, 0, 0, 0, 0, 0
        DC8 0, 0, 0, 0, 0, 0, 0, 0, 0, 0, 0, 0, 0, 0, 0, 0, 0, 0, 0, 0, 0, 0, 0
        DC8 0, 0, 0, 0, 0, 0, 0, 0, 0, 0, 0, 0, 0, 0, 0, 0, 0, 0, 0, 0, 0, 0, 0
        DC8 0, 0, 0, 0, 0, 0, 0, 0, 0, 0, 0, 0, 0, 0, 0, 0, 0, 0, 0, 0, 0, 0, 0
        DC8 0, 0, 0, 0, 0, 0, 0, 0, 0, 0, 0, 0, 0, 0, 0, 0, 0, 0, 0, 255, 252
        DC8 255, 252, 0, 0, 0, 0, 0, 0, 248, 124, 60, 30, 15, 0, 0, 0, 0, 0, 0
        DC8 0, 0, 0, 0, 0, 0, 0, 0, 0, 0, 0, 0, 0, 0, 0, 0, 0, 0, 0, 0, 0, 0, 0
        DC8 0, 0, 0, 0, 0, 0, 0, 0, 0, 0, 0, 0, 0, 0, 0, 0, 0, 15, 240, 63, 252
        DC8 63, 252, 56, 126, 48, 62, 0, 62, 3, 254, 63, 254, 126, 62, 248, 62
        DC8 248, 62, 248, 126, 252, 254, 255, 254, 127, 254, 63, 62, 0, 0, 0, 0
        DC8 0, 0, 0, 0, 0, 0, 0, 0, 0, 0, 0, 0, 0, 0, 0, 0, 248, 0, 0, 248, 0
        DC8 0, 248, 0, 0, 248, 0, 0, 248, 0, 0, 248, 0, 0, 248, 0, 0, 248, 0, 0
        DC8 249, 248, 0, 255, 254, 0, 255, 255, 0, 254, 63, 0, 252, 31, 128
        DC8 248, 15, 128, 248, 15, 128, 248, 15, 128, 248, 15, 128, 248, 15
        DC8 128, 248, 15, 128, 252, 31, 0, 254, 63, 0, 255, 254, 0, 255, 252, 0
        DC8 251, 248, 0, 0, 0, 0, 0, 0, 0, 0, 0, 0, 0, 0, 0, 0, 0, 0, 0, 0, 0
        DC8 0, 0, 0, 0, 0, 0, 0, 0, 0, 0, 0, 0, 0, 0, 0, 0, 0, 0, 0, 0, 0, 0, 0
        DC8 3, 248, 31, 252, 63, 252, 127, 12, 124, 0, 252, 0, 248, 0, 248, 0
        DC8 248, 0, 248, 0, 252, 0, 124, 0, 127, 12, 63, 252, 31, 252, 7, 248
        DC8 0, 0, 0, 0, 0, 0, 0, 0, 0, 0, 0, 0, 0, 0, 0, 0, 0, 0, 0, 0, 0, 15
        DC8 128, 0, 15, 128, 0, 15, 128, 0, 15, 128, 0, 15, 128, 0, 15, 128, 0
        DC8 15, 128, 0, 15, 128, 15, 239, 128, 31, 255, 128, 63, 255, 128, 126
        DC8 63, 128, 124, 31, 128, 248, 15, 128, 248, 15, 128, 248, 15, 128
        DC8 248, 15, 128, 248, 15, 128, 248, 15, 128, 252, 31, 128, 126, 63
        DC8 128, 127, 255, 128, 63, 255, 128, 15, 207, 128, 0, 0, 0, 0, 0, 0, 0
        DC8 0, 0, 0, 0, 0, 0, 0, 0, 0, 0, 0, 0, 0, 0, 0, 0, 0, 0, 0, 0, 0, 0, 0
        DC8 0, 0, 0, 0, 0, 0, 0, 0, 0, 0, 0, 7, 240, 31, 252, 63, 254, 126, 62
        DC8 124, 31, 248, 31, 255, 255, 255, 255, 255, 255, 248, 0, 248, 0, 124
        DC8 0, 126, 6, 63, 254, 31, 254, 7, 248, 0, 0, 0, 0, 0, 0, 0, 0, 0, 0
        DC8 0, 0, 0, 0, 0, 0, 0, 0, 3, 240, 7, 240, 15, 240, 31, 128, 31, 0, 31
        DC8 0, 31, 0, 31, 0, 255, 224, 255, 224, 255, 224, 31, 0, 31, 0, 31, 0
        DC8 31, 0, 31, 0, 31, 0, 31, 0, 31, 0, 31, 0, 31, 0, 31, 0, 31, 0, 31
        DC8 0, 0, 0, 0, 0, 0, 0, 0, 0, 0, 0, 0, 0, 0, 0, 0, 0, 0, 0, 0, 0, 0, 0
        DC8 0, 0, 0, 0, 0, 0, 0, 0, 0, 0, 0, 0, 0, 0, 0, 0, 0, 0, 0, 0, 0, 0
        DC8 15, 239, 128, 31, 255, 128, 63, 255, 128, 126, 63, 128, 124, 31
        DC8 128, 248, 15, 128, 248, 15, 128, 248, 15, 128, 248, 15, 128, 248
        DC8 15, 128, 248, 15, 128, 252, 31, 128, 126, 63, 128, 127, 255, 128
        DC8 63, 255, 128, 15, 207, 128, 0, 15, 128, 0, 31, 128, 0, 31, 0, 112
        DC8 127, 0, 127, 254, 0, 127, 252, 0, 63, 240, 0, 0, 0, 0, 0, 248, 0
        DC8 248, 0, 248, 0, 248, 0, 248, 0, 248, 0, 248, 0, 248, 0, 249, 248
        DC8 255, 254, 255, 254, 254, 63, 252, 63, 248, 31, 248, 31, 248, 31
        DC8 248, 31, 248, 31, 248, 31, 248, 31, 248, 31, 248, 31, 248, 31, 248
        DC8 31, 0, 0, 0, 0, 0, 0, 0, 0, 0, 0, 0, 0, 0, 0, 0, 0, 0, 112, 248
        DC8 248, 112, 0, 0, 0, 248, 248, 248, 248, 248, 248, 248, 248, 248, 248
        DC8 248, 248, 248, 248, 248, 248, 0, 0, 0, 0, 0, 0, 0, 0, 0, 0, 0, 0, 0
        DC8 3, 128, 7, 192, 7, 192, 3, 128, 0, 0, 0, 0, 0, 0, 7, 192, 7, 192, 7
        DC8 192, 7, 192, 7, 192, 7, 192, 7, 192, 7, 192, 7, 192, 7, 192, 7, 192
        DC8 7, 192, 7, 192, 7, 192, 7, 192, 7, 192, 7, 192, 7, 192, 15, 192
        DC8 207, 128, 255, 128, 255, 0, 252, 0, 0, 0, 0, 0, 248, 0, 248, 0, 248
        DC8 0, 248, 0, 248, 0, 248, 0, 248, 0, 248, 0, 248, 126, 248, 252, 248
        DC8 248, 249, 240, 251, 224, 255, 224, 255, 192, 255, 128, 255, 128
        DC8 255, 192, 251, 224, 249, 240, 248, 248, 248, 252, 248, 126, 248, 63
        DC8 0, 0, 0, 0, 0, 0, 0, 0, 0, 0, 0, 0, 0, 0, 0, 0, 248, 248, 248, 248
        DC8 248, 248, 248, 248, 248, 248, 248, 248, 248, 248, 248, 248, 248
        DC8 248, 248, 248, 248, 248, 248, 248, 0, 0, 0, 0, 0, 0, 0, 0, 0, 0, 0
        DC8 0, 0, 0, 0, 0, 0, 0, 0, 0, 0, 0, 0, 0, 0, 0, 0, 0, 0, 0, 0, 0, 0, 0
        DC8 0, 0, 0, 0, 0, 0, 0, 0, 0, 0, 0, 0, 0, 249, 240, 252, 0, 255, 249
        DC8 255, 0, 255, 255, 255, 0, 254, 127, 159, 128, 252, 63, 15, 128, 248
        DC8 62, 15, 128, 248, 62, 15, 128, 248, 62, 15, 128, 248, 62, 15, 128
        DC8 248, 62, 15, 128, 248, 62, 15, 128, 248, 62, 15, 128, 248, 62, 15
        DC8 128, 248, 62, 15, 128, 248, 62, 15, 128, 248, 62, 15, 128, 0, 0, 0
        DC8 0, 0, 0, 0, 0, 0, 0, 0, 0, 0, 0, 0, 0, 0, 0, 0, 0, 0, 0, 0, 0, 0, 0
        DC8 0, 0, 0, 0, 0, 0, 0, 0, 0, 0, 0, 0, 0, 0, 0, 0, 0, 0, 0, 0, 0, 0
        DC8 249, 248, 255, 252, 255, 254, 254, 63, 252, 63, 248, 31, 248, 31
        DC8 248, 31, 248, 31, 248, 31, 248, 31, 248, 31, 248, 31, 248, 31, 248
        DC8 31, 248, 31, 0, 0, 0, 0, 0, 0, 0, 0, 0, 0, 0, 0, 0, 0, 0, 0, 0, 0
        DC8 0, 0, 0, 0, 0, 0, 0, 0, 0, 0, 0, 0, 0, 0, 0, 0, 0, 0, 0, 0, 0, 0, 0
        DC8 0, 0, 0, 7, 248, 0, 31, 254, 0, 63, 255, 0, 126, 31, 128, 124, 15
        DC8 128, 248, 7, 192, 248, 7, 192, 248, 7, 192, 248, 7, 192, 248, 7
        DC8 192, 248, 7, 192, 124, 15, 128, 126, 31, 128, 63, 255, 0, 31, 254
        DC8 0, 7, 248, 0, 0, 0, 0, 0, 0, 0, 0, 0, 0, 0, 0, 0, 0, 0, 0, 0, 0, 0
        DC8 0, 0, 0, 0, 0, 0, 0, 0, 0, 0, 0, 0, 0, 0, 0, 0, 0, 0, 0, 0, 0, 0, 0
        DC8 0, 0, 0, 0, 0, 0, 0, 0, 0, 0, 249, 248, 0, 255, 254, 0, 255, 255, 0
        DC8 254, 63, 0, 252, 31, 128, 248, 15, 128, 248, 15, 128, 248, 15, 128
        DC8 248, 15, 128, 248, 15, 128, 248, 15, 128, 252, 31, 0, 254, 63, 0
        DC8 255, 254, 0, 255, 252, 0, 251, 248, 0, 248, 0, 0, 248, 0, 0, 248, 0
        DC8 0, 248, 0, 0, 248, 0, 0, 248, 0, 0, 248, 0, 0, 0, 0, 0, 0, 0, 0, 0
        DC8 0, 0, 0, 0, 0, 0, 0, 0, 0, 0, 0, 0, 0, 0, 0, 0, 0, 0, 0, 0, 0, 0, 0
        DC8 15, 239, 128, 31, 255, 128, 63, 255, 128, 126, 63, 128, 124, 31
        DC8 128, 248, 15, 128, 248, 15, 128, 248, 15, 128, 248, 15, 128, 248
        DC8 15, 128, 248, 15, 128, 252, 31, 128, 126, 63, 128, 127, 255, 128
        DC8 63, 255, 128, 15, 207, 128, 0, 15, 128, 0, 15, 128, 0, 15, 128, 0
        DC8 15, 128, 0, 15, 128, 0, 15, 128, 0, 15, 128, 0, 0, 0, 0, 0, 0, 0, 0
        DC8 0, 0, 0, 0, 0, 0, 0, 0, 0, 0, 0, 0, 251, 224, 255, 224, 255, 224
        DC8 254, 0, 252, 0, 252, 0, 248, 0, 248, 0, 248, 0, 248, 0, 248, 0, 248
        DC8 0, 248, 0, 248, 0, 248, 0, 248, 0, 0, 0, 0, 0, 0, 0, 0, 0, 0, 0, 0
        DC8 0, 0, 0, 0, 0, 0, 0, 0, 0, 0, 0, 0, 0, 0, 0, 0, 0, 0, 0, 0, 0, 0, 0
        DC8 15, 224, 63, 240, 127, 240, 252, 48, 248, 0, 248, 0, 255, 0, 127
        DC8 192, 31, 240, 3, 248, 0, 248, 192, 248, 225, 248, 255, 240, 255
        DC8 224, 127, 128, 0, 0, 0, 0, 0, 0, 0, 0, 0, 0, 0, 0, 0, 0, 0, 0, 0, 0
        DC8 0, 0, 0, 0, 0, 0, 7, 0, 31, 0, 31, 0, 31, 0, 31, 0, 255, 240, 255
        DC8 240, 255, 240, 31, 0, 31, 0, 31, 0, 31, 0, 31, 0, 31, 0, 31, 0, 31
        DC8 0, 31, 0, 31, 128, 31, 240, 15, 240, 7, 240, 0, 0, 0, 0, 0, 0, 0, 0
        DC8 0, 0, 0, 0, 0, 0, 0, 0, 0, 0, 0, 0, 0, 0, 0, 0, 0, 0, 0, 0, 0, 0, 0
        DC8 0, 0, 0, 248, 31, 248, 31, 248, 31, 248, 31, 248, 31, 248, 31, 248
        DC8 31, 248, 31, 248, 31, 248, 31, 248, 31, 252, 63, 252, 127, 127, 255
        DC8 63, 255, 31, 159, 0, 0, 0, 0, 0, 0, 0, 0, 0, 0, 0, 0, 0, 0, 0, 0, 0
        DC8 0, 0, 0, 0, 0, 0, 0, 0, 0, 0, 0, 0, 0, 0, 0, 0, 0, 0, 0, 0, 0, 0, 0
        DC8 0, 0, 0, 0, 248, 15, 128, 120, 15, 0, 124, 31, 0, 124, 31, 0, 60
        DC8 30, 0, 62, 62, 0, 62, 60, 0, 30, 60, 0, 31, 124, 0, 31, 120, 0, 15
        DC8 120, 0, 15, 248, 0, 7, 240, 0, 7, 240, 0, 7, 224, 0, 3, 224, 0, 0
        DC8 0, 0, 0, 0, 0, 0, 0, 0, 0, 0, 0, 0, 0, 0, 0, 0, 0, 0, 0, 0, 0, 0, 0
        DC8 0, 0, 0, 0, 0, 0, 0, 0, 0, 0, 0, 0, 0, 0, 0, 0, 0, 0, 0, 0, 0, 0, 0
        DC8 0, 0, 0, 0, 0, 0, 0, 0, 0, 0, 0, 0, 0, 0, 248, 62, 15, 128, 248, 62
        DC8 15, 128, 120, 63, 15, 0, 124, 63, 15, 0, 124, 127, 31, 0, 60, 127
        DC8 30, 0, 60, 119, 158, 0, 62, 247, 158, 0, 30, 247, 188, 0, 30, 243
        DC8 252, 0, 31, 227, 252, 0, 31, 227, 252, 0, 15, 227, 248, 0, 15, 193
        DC8 248, 0, 15, 193, 248, 0, 7, 193, 240, 0, 0, 0, 0, 0, 0, 0, 0, 0, 0
        DC8 0, 0, 0, 0, 0, 0, 0, 0, 0, 0, 0, 0, 0, 0, 0, 0, 0, 0, 0, 0, 0, 0, 0
        DC8 0, 0, 0, 0, 0, 0, 0, 0, 0, 0, 0, 0, 0, 0, 0, 0, 0, 0, 0, 0, 0, 0, 0
        DC8 0, 0, 0, 124, 15, 128, 124, 31, 0, 62, 62, 0, 63, 62, 0, 31, 124, 0
        DC8 15, 248, 0, 15, 248, 0, 7, 240, 0, 7, 240, 0, 7, 248, 0, 15, 248, 0
        DC8 31, 124, 0, 62, 62, 0, 62, 62, 0, 124, 31, 0, 252, 31, 128, 0, 0, 0
        DC8 0, 0, 0, 0, 0, 0, 0, 0, 0, 0, 0, 0, 0, 0, 0, 0, 0, 0, 0, 0, 0, 0, 0
        DC8 0, 0, 0, 0, 0, 0, 0, 0, 0, 0, 0, 0, 0, 0, 0, 0, 0, 0, 0, 0, 0, 0, 0
        DC8 0, 0, 248, 15, 128, 120, 15, 0, 124, 15, 0, 124, 31, 0, 60, 30, 0
        DC8 62, 62, 0, 30, 60, 0, 30, 60, 0, 31, 124, 0, 15, 120, 0, 15, 120, 0
        DC8 7, 248, 0, 7, 240, 0, 7, 240, 0, 3, 224, 0, 3, 224, 0, 3, 224, 0, 3
        DC8 192, 0, 7, 192, 0, 15, 128, 0, 127, 128, 0, 127, 0, 0, 124, 0, 0, 0
        DC8 0, 0, 0, 0, 0, 0, 0, 0, 0, 0, 0, 0, 0, 0, 0, 0, 0, 0, 0, 127, 254
        DC8 127, 254, 127, 252, 0, 124, 0, 248, 1, 240, 3, 224, 3, 192, 7, 192
        DC8 15, 128, 31, 0, 62, 0, 62, 0, 127, 254, 255, 254, 255, 254, 0, 0, 0
        DC8 0, 0, 0, 0, 0, 0, 0, 0, 0, 0, 0, 0, 0, 0, 15, 31, 62, 60, 60, 60
        DC8 60, 60, 60, 60, 60, 60, 120, 240, 240, 120, 60, 60, 60, 60, 60, 60
        DC8 60, 60, 60, 62, 31, 15, 0, 0, 0, 0, 240, 240, 240, 240, 240, 240
        DC8 240, 240, 240, 240, 240, 240, 240, 240, 240, 240, 240, 240, 240
        DC8 240, 240, 240, 240, 240, 240, 240, 240, 240, 240, 240, 240, 0, 0, 0
        DC8 0, 0, 0, 240, 0, 252, 0, 60, 0, 30, 0, 30, 0, 30, 0, 30, 0, 30, 0
        DC8 30, 0, 30, 0, 30, 0, 30, 0, 15, 0, 7, 128, 7, 128, 15, 0, 30, 0, 30
        DC8 0, 30, 0, 30, 0, 30, 0, 30, 0, 30, 0, 30, 0, 30, 0, 60, 0, 252, 0
        DC8 240, 0, 0, 0, 0, 0, 0, 0, 0, 0, 0, 0, 0, 0, 0, 0, 0, 0, 0, 0, 0, 0
        DC8 0, 0, 0, 0, 0, 0, 0, 0, 0, 0, 0, 0, 0, 0, 0, 0, 0, 0, 0, 0, 0, 0, 0
        DC8 0, 0, 0, 62, 7, 128, 127, 135, 128, 127, 239, 128, 249, 255, 0, 240
        DC8 255, 0, 240, 62, 0, 0, 0, 0, 0, 0, 0, 0, 0, 0, 0, 0, 0, 0, 0, 0, 0
        DC8 0, 0, 0, 0, 0, 0, 0, 0, 0, 0, 0, 0, 0, 0, 0, 0, 0, 0, 0, 0, 0, 0, 0
        DC8 0, 0, 0

        SECTION `.rodata`:CONST:REORDER:NOROOT(2)
        DATA
// static __absolute tFontDescriptor const segoeUISemibold_24ptDescriptors[94]
segoeUISemibold_24ptDescriptors:
        DATA16
        DC16 6, 0, 10, 33, 18, 99, 15, 198, 25, 264, 24, 396, 5, 495, 10, 528
        DC16 10, 594, 12, 660, 16, 726, 6, 792, 10, 825, 6, 891, 16, 924, 17
        DC16 990, 13, 1'089, 15, 1'155, 15, 1'221, 19, 1'287, 15, 1'386, 16
        DC16 1'452, 17, 1'518, 17, 1'617, 17, 1'716, 6, 1'815, 7, 1'848, 15
        DC16 1'881, 16, 1'947, 15, 2'013, 13, 2'079, 27, 2'145, 22, 2'277, 16
        DC16 2'376, 18, 2'442, 20, 2'541, 14, 2'640, 13, 2'706, 20, 2'772, 19
        DC16 2'871, 9, 2'970, 11, 3'036, 18, 3'102, 14, 3'201, 26, 3'267, 21
        DC16 3'399, 23, 3'498, 16, 3'597, 24, 3'663, 18, 3'762, 15, 3'861, 17
        DC16 3'927, 19, 4'026, 22, 4'125, 32, 4'224, 21, 4'356, 19, 4'455, 18
        DC16 4'554, 7, 4'653, 15, 4'686, 7, 4'752, 17, 4'785, 14, 4'884, 8
        DC16 4'950, 15, 4'983, 17, 5'049, 14, 5'148, 17, 5'214, 16, 5'313, 12
        DC16 5'379, 17, 5'445, 16, 5'544, 5, 5'610, 10, 5'643, 16, 5'709, 5
        DC16 5'775, 25, 5'808, 16, 5'940, 18, 6'006, 17, 6'105, 17, 6'204, 11
        DC16 6'303, 13, 6'369, 12, 6'435, 16, 6'501, 17, 6'567, 25, 6'666, 17
        DC16 6'798, 17, 6'897, 15, 6'996, 8, 7'062, 4, 7'095, 9, 7'128, 17
        DC16 7'194

        SECTION `.rodata`:CONST:REORDER:NOROOT(2)
        DATA
// static __absolute tFont const segoeUISemibold_24ptFontInfo
segoeUISemibold_24ptFontInfo:
        DATA8
        DC8 33, 33, 0, 0
        DATA32
        DC32 126
        DATA8
        DC8 2, 0, 0, 0
        DATA32
        DC32 segoeUISemibold_24ptDescriptors, segoeUISemibold_24ptBitmaps

        SECTION `.rodata`:CONST:REORDER:NOROOT(2)
        DATA
// static __absolute std::array<uint8_t, 15000U> const susuWallPaper
susuWallPaper:
        DATA8
        DC8 255, 255, 255, 255, 255, 255, 255, 255, 255, 255, 255, 255, 255
        DC8 255, 255, 255, 255, 255, 255, 255, 255, 255, 255, 255, 255, 255
        DC8 255, 255, 255, 255, 255, 255, 255, 255, 255, 255, 255, 255, 255
        DC8 255, 255, 255, 255, 255, 255, 255, 255, 255, 255, 255, 255, 255
        DC8 255, 255, 255, 255, 255, 255, 255, 255, 255, 255, 255, 255, 255
        DC8 255, 255, 255, 255, 255, 255, 255, 255, 255, 255, 255, 255, 255
        DC8 255, 255, 255, 255, 255, 255, 255, 255, 255, 255, 255, 255, 255
        DC8 255, 255, 255, 255, 255, 255, 255, 255, 255, 255, 255, 255, 255
        DC8 255, 255, 255, 255, 255, 255, 255, 255, 255, 255, 255, 255, 255
        DC8 255, 255, 255, 255, 255, 255, 255, 255, 255, 255, 255, 255, 255
        DC8 255, 255, 255, 255, 255, 255, 255, 255, 255, 255, 255, 255, 255
        DC8 255, 255, 255, 255, 255, 255, 255, 192, 0, 0, 0, 0, 0, 0, 0, 0, 0
        DC8 0, 0, 0, 0, 0, 0, 0, 0, 0, 0, 0, 0, 0, 0, 0, 0, 0, 0, 0, 0, 0, 0, 0
        DC8 0, 0, 0, 0, 0, 0, 0, 0, 0, 0, 0, 0, 0, 0, 0, 0, 3, 192, 0, 0, 0, 0
        DC8 0, 0, 0, 0, 0, 0, 0, 0, 0, 0, 0, 0, 0, 0, 0, 0, 0, 0, 0, 0, 0, 0, 0
        DC8 0, 0, 0, 0, 0, 0, 0, 0, 0, 0, 0, 0, 0, 0, 0, 0, 0, 0, 0, 0, 0, 3
        DC8 192, 0, 0, 0, 0, 0, 0, 0, 0, 0, 0, 0, 0, 0, 0, 0, 0, 0, 0, 0, 0, 0
        DC8 0, 0, 0, 0, 0, 0, 0, 0, 0, 0, 0, 0, 0, 0, 0, 0, 0, 0, 0, 0, 0, 0, 0
        DC8 0, 0, 0, 0, 3, 192, 0, 0, 0, 0, 0, 0, 0, 0, 0, 0, 0, 0, 0, 0, 0, 0
        DC8 0, 0, 0, 0, 0, 0, 0, 0, 0, 0, 0, 0, 0, 0, 0, 0, 0, 0, 0, 0, 0, 0, 0
        DC8 0, 0, 0, 0, 0, 0, 0, 0, 0, 3, 192, 0, 0, 0, 0, 0, 0, 0, 0, 0, 0, 0
        DC8 0, 0, 0, 0, 0, 0, 0, 0, 0, 0, 0, 0, 0, 0, 0, 0, 0, 0, 0, 0, 0, 0, 0
        DC8 0, 0, 0, 0, 0, 0, 0, 0, 0, 0, 0, 0, 0, 0, 3, 192, 0, 0, 0, 0, 0, 0
        DC8 0, 0, 0, 0, 0, 0, 0, 0, 0, 0, 0, 0, 0, 0, 0, 0, 0, 0, 0, 0, 0, 0, 0
        DC8 0, 0, 0, 0, 0, 0, 0, 0, 0, 0, 0, 0, 0, 0, 0, 0, 0, 0, 0, 3, 192, 0
        DC8 0, 0, 0, 0, 0, 0, 0, 0, 0, 0, 0, 0, 0, 0, 0, 0, 0, 0, 0, 0, 0, 0, 0
        DC8 0, 0, 0, 0, 0, 0, 0, 0, 0, 0, 0, 0, 0, 0, 0, 0, 0, 0, 0, 0, 0, 0, 0
        DC8 0, 3, 192, 0, 0, 0, 0, 0, 0, 0, 0, 0, 0, 0, 0, 0, 0, 0, 0, 0, 0, 0
        DC8 0, 0, 0, 0, 0, 0, 0, 0, 0, 0, 0, 0, 0, 0, 0, 0, 0, 0, 0, 0, 0, 0, 0
        DC8 0, 0, 0, 0, 0, 0, 3, 192, 0, 0, 0, 0, 0, 0, 0, 0, 0, 0, 0, 0, 0, 0
        DC8 0, 0, 0, 0, 0, 0, 0, 0, 0, 0, 0, 0, 0, 0, 0, 0, 0, 0, 0, 0, 0, 0, 0
        DC8 0, 0, 0, 0, 0, 0, 0, 0, 0, 0, 0, 3, 192, 0, 0, 0, 0, 0, 0, 0, 0, 0
        DC8 0, 0, 0, 0, 0, 0, 0, 0, 0, 0, 0, 0, 0, 0, 0, 0, 0, 0, 0, 0, 0, 0, 0
        DC8 0, 0, 0, 0, 0, 0, 0, 0, 0, 0, 0, 0, 0, 0, 0, 0, 3, 192, 0, 0, 0, 0
        DC8 0, 0, 0, 0, 0, 0, 0, 0, 0, 0, 0, 0, 0, 0, 0, 0, 0, 0, 0, 0, 0, 0, 0
        DC8 0, 0, 0, 0, 0, 0, 0, 0, 0, 0, 0, 0, 0, 0, 0, 0, 0, 0, 0, 0, 0, 3
        DC8 192, 0, 0, 0, 0, 0, 0, 0, 0, 0, 0, 0, 0, 0, 0, 0, 0, 0, 0, 0, 0, 0
        DC8 0, 0, 0, 0, 0, 0, 0, 0, 0, 0, 0, 0, 0, 0, 0, 0, 0, 0, 0, 0, 0, 0, 0
        DC8 0, 0, 0, 0, 3, 192, 0, 0, 0, 0, 0, 0, 0, 0, 0, 0, 0, 0, 0, 0, 0, 0
        DC8 0, 0, 0, 0, 0, 0, 0, 0, 0, 0, 0, 0, 0, 0, 0, 0, 0, 0, 0, 0, 0, 0, 0
        DC8 0, 0, 0, 0, 0, 0, 0, 0, 0, 3, 192, 0, 0, 0, 0, 0, 0, 0, 0, 0, 0, 0
        DC8 0, 0, 0, 0, 0, 0, 0, 0, 0, 0, 0, 0, 0, 0, 0, 0, 0, 0, 0, 0, 0, 0, 0
        DC8 0, 0, 0, 0, 0, 0, 0, 0, 0, 0, 0, 0, 0, 0, 3, 192, 0, 0, 0, 0, 0, 0
        DC8 0, 0, 0, 0, 0, 0, 0, 0, 0, 0, 0, 0, 0, 0, 0, 0, 0, 0, 0, 0, 0, 0, 0
        DC8 0, 0, 0, 0, 0, 0, 0, 0, 0, 0, 0, 0, 0, 0, 0, 0, 0, 0, 0, 3, 192, 0
        DC8 0, 0, 0, 0, 0, 0, 0, 0, 0, 0, 0, 0, 0, 0, 0, 0, 0, 0, 0, 0, 0, 0, 0
        DC8 0, 0, 0, 0, 0, 0, 0, 0, 0, 0, 0, 0, 0, 0, 0, 0, 0, 0, 0, 0, 0, 0, 0
        DC8 0, 3, 192, 0, 0, 0, 0, 0, 0, 0, 0, 0, 0, 0, 0, 0, 0, 0, 0, 0, 0, 0
        DC8 0, 0, 0, 0, 0, 0, 0, 0, 0, 0, 0, 0, 0, 0, 0, 0, 0, 0, 0, 0, 0, 0, 0
        DC8 0, 0, 0, 0, 0, 0, 3, 192, 0, 0, 0, 0, 0, 0, 0, 0, 0, 0, 0, 0, 0, 0
        DC8 0, 0, 0, 0, 0, 0, 0, 0, 0, 0, 0, 0, 0, 0, 0, 0, 0, 0, 0, 0, 0, 0, 0
        DC8 0, 0, 0, 0, 0, 0, 0, 0, 0, 0, 0, 3, 192, 0, 0, 0, 0, 0, 0, 0, 0, 0
        DC8 0, 0, 0, 0, 0, 0, 0, 0, 0, 0, 0, 0, 0, 0, 0, 0, 0, 0, 0, 0, 0, 0, 0
        DC8 0, 0, 0, 0, 0, 0, 0, 0, 0, 0, 0, 0, 0, 0, 0, 0, 3, 192, 0, 0, 0, 0
        DC8 0, 0, 0, 0, 0, 0, 0, 0, 0, 0, 0, 0, 0, 0, 0, 0, 0, 0, 0, 0, 0, 0, 0
        DC8 0, 0, 0, 0, 0, 0, 0, 0, 0, 0, 0, 0, 0, 0, 0, 0, 0, 0, 0, 0, 0, 3
        DC8 192, 0, 0, 0, 0, 0, 0, 0, 0, 0, 0, 0, 0, 0, 0, 0, 0, 0, 0, 0, 0, 0
        DC8 0, 0, 0, 0, 0, 0, 0, 0, 0, 0, 0, 0, 0, 0, 0, 0, 0, 0, 0, 0, 0, 0, 0
        DC8 0, 0, 0, 0, 3, 192, 0, 0, 0, 0, 0, 0, 0, 0, 0, 0, 0, 0, 0, 0, 0, 0
        DC8 0, 0, 0, 0, 0, 0, 0, 0, 0, 0, 0, 0, 0, 0, 0, 0, 0, 0, 0, 0, 0, 0, 0
        DC8 0, 0, 0, 0, 0, 0, 0, 0, 0, 3, 192, 0, 0, 0, 0, 0, 0, 0, 0, 0, 0, 0
        DC8 0, 0, 0, 0, 0, 0, 0, 0, 0, 0, 0, 0, 0, 0, 0, 0, 0, 0, 0, 0, 0, 0, 0
        DC8 0, 0, 0, 0, 0, 0, 0, 0, 0, 0, 0, 0, 0, 0, 3, 192, 0, 0, 0, 0, 0, 0
        DC8 0, 0, 0, 0, 0, 0, 0, 0, 0, 0, 0, 0, 0, 0, 0, 0, 0, 0, 0, 0, 0, 0, 0
        DC8 0, 0, 0, 0, 0, 0, 0, 0, 0, 0, 0, 0, 0, 0, 0, 0, 0, 0, 0, 3, 192, 0
        DC8 0, 0, 0, 0, 0, 0, 0, 0, 0, 0, 0, 0, 0, 0, 0, 0, 0, 0, 0, 0, 0, 0, 0
        DC8 0, 0, 0, 0, 0, 0, 0, 0, 0, 0, 0, 0, 0, 0, 0, 0, 0, 0, 0, 0, 0, 0, 0
        DC8 0, 3, 192, 0, 0, 0, 0, 0, 0, 0, 0, 0, 0, 0, 0, 0, 0, 0, 0, 0, 0, 0
        DC8 0, 0, 0, 0, 0, 0, 0, 0, 0, 0, 0, 0, 0, 0, 0, 0, 0, 0, 0, 0, 0, 0, 0
        DC8 0, 0, 0, 0, 0, 0, 3, 192, 0, 0, 0, 0, 0, 0, 0, 0, 0, 0, 0, 0, 0, 0
        DC8 0, 0, 0, 0, 0, 0, 0, 0, 0, 0, 0, 0, 0, 0, 0, 0, 0, 0, 0, 0, 0, 0, 0
        DC8 0, 0, 0, 0, 0, 0, 0, 0, 0, 0, 0, 3, 192, 0, 0, 0, 0, 0, 0, 0, 0, 0
        DC8 0, 0, 0, 0, 0, 0, 0, 0, 0, 0, 0, 0, 0, 0, 0, 0, 0, 0, 0, 0, 0, 0, 0
        DC8 0, 0, 0, 0, 0, 0, 0, 0, 0, 0, 0, 0, 0, 0, 0, 0, 3, 192, 0, 0, 0, 0
        DC8 0, 0, 0, 0, 0, 0, 0, 0, 0, 0, 0, 0, 0, 0, 0, 0, 0, 0, 0, 0, 0, 0, 0
        DC8 0, 0, 0, 0, 0, 0, 0, 0, 0, 0, 0, 0, 0, 0, 0, 0, 0, 0, 0, 0, 0, 3
        DC8 192, 0, 0, 0, 0, 0, 0, 0, 0, 0, 0, 0, 0, 0, 0, 0, 0, 0, 0, 0, 0, 0
        DC8 0, 0, 0, 0, 0, 0, 0, 0, 0, 0, 0, 0, 0, 0, 0, 0, 0, 0, 0, 0, 0, 0, 0
        DC8 0, 0, 0, 0, 3, 192, 0, 0, 0, 0, 0, 0, 0, 0, 0, 0, 0, 0, 0, 0, 0, 0
        DC8 0, 0, 0, 0, 0, 0, 0, 0, 0, 0, 0, 0, 0, 0, 0, 0, 0, 0, 0, 0, 0, 0, 0
        DC8 0, 0, 0, 0, 0, 0, 0, 0, 0, 3, 192, 0, 0, 0, 0, 0, 0, 0, 0, 0, 0, 0
        DC8 0, 0, 0, 0, 0, 0, 0, 0, 0, 0, 0, 0, 0, 0, 0, 0, 0, 0, 0, 0, 0, 0, 0
        DC8 0, 0, 0, 0, 0, 0, 0, 0, 0, 0, 0, 0, 0, 0, 3, 192, 0, 0, 0, 0, 0, 0
        DC8 0, 0, 0, 0, 0, 0, 0, 0, 0, 0, 0, 0, 0, 0, 0, 0, 0, 0, 0, 0, 0, 0, 0
        DC8 0, 0, 0, 0, 0, 0, 0, 0, 0, 0, 0, 0, 0, 0, 0, 0, 0, 0, 0, 3, 192, 0
        DC8 0, 0, 0, 0, 0, 0, 0, 0, 0, 0, 0, 0, 0, 0, 0, 0, 0, 0, 0, 0, 0, 0, 0
        DC8 0, 0, 0, 0, 0, 0, 0, 0, 0, 0, 0, 0, 0, 0, 0, 0, 0, 0, 0, 0, 0, 0, 0
        DC8 0, 3, 192, 0, 0, 0, 0, 0, 0, 0, 0, 0, 0, 0, 0, 0, 0, 0, 0, 0, 0, 0
        DC8 0, 0, 0, 0, 0, 0, 0, 0, 0, 0, 0, 0, 0, 0, 0, 0, 0, 0, 0, 0, 0, 0, 0
        DC8 0, 0, 0, 0, 0, 0, 3, 192, 0, 0, 0, 0, 0, 0, 0, 0, 0, 0, 0, 0, 0, 0
        DC8 0, 0, 0, 0, 0, 0, 0, 0, 0, 0, 0, 0, 0, 0, 0, 0, 0, 0, 0, 0, 0, 0, 0
        DC8 0, 0, 0, 0, 0, 0, 0, 0, 0, 0, 0, 3, 192, 0, 0, 0, 0, 0, 0, 0, 0, 0
        DC8 0, 0, 0, 0, 0, 0, 0, 0, 0, 0, 0, 0, 0, 0, 0, 0, 0, 0, 0, 0, 0, 0, 0
        DC8 0, 0, 0, 0, 0, 0, 0, 0, 0, 0, 0, 0, 0, 0, 0, 0, 3, 192, 0, 0, 0, 0
        DC8 0, 0, 0, 0, 0, 0, 0, 0, 0, 0, 0, 0, 0, 0, 0, 0, 0, 0, 0, 0, 0, 0, 0
        DC8 0, 0, 0, 0, 0, 0, 0, 0, 0, 0, 0, 0, 0, 0, 0, 0, 0, 0, 0, 0, 0, 3
        DC8 192, 0, 0, 0, 0, 0, 0, 0, 0, 0, 0, 0, 0, 0, 0, 0, 0, 0, 0, 0, 0, 0
        DC8 0, 0, 0, 0, 0, 0, 0, 0, 0, 0, 0, 0, 0, 0, 0, 0, 0, 0, 0, 0, 0, 0, 0
        DC8 0, 0, 0, 0, 3, 192, 0, 0, 0, 0, 0, 0, 0, 0, 0, 0, 0, 0, 0, 0, 0, 0
        DC8 0, 0, 0, 0, 0, 0, 0, 0, 0, 0, 0, 0, 0, 0, 0, 0, 0, 0, 0, 0, 0, 0, 0
        DC8 0, 0, 0, 0, 0, 0, 0, 0, 0, 3, 192, 0, 0, 0, 0, 0, 0, 0, 0, 0, 0, 0
        DC8 0, 0, 0, 0, 0, 0, 0, 0, 0, 0, 0, 0, 0, 0, 0, 0, 0, 0, 0, 0, 0, 0, 0
        DC8 0, 0, 0, 0, 0, 0, 0, 0, 0, 0, 0, 0, 0, 0, 3, 192, 0, 0, 0, 0, 0, 0
        DC8 0, 0, 0, 0, 0, 0, 0, 0, 0, 0, 0, 0, 0, 0, 0, 0, 0, 0, 0, 0, 0, 0, 0
        DC8 0, 0, 0, 0, 0, 0, 0, 0, 0, 0, 0, 0, 0, 0, 0, 0, 0, 0, 0, 3, 192, 0
        DC8 0, 0, 0, 0, 0, 0, 0, 0, 0, 0, 0, 0, 0, 0, 0, 0, 0, 0, 0, 0, 0, 0, 0
        DC8 0, 0, 0, 0, 0, 0, 0, 0, 0, 0, 0, 0, 0, 0, 0, 0, 0, 0, 0, 0, 0, 0, 0
        DC8 0, 3, 192, 0, 0, 0, 0, 0, 0, 0, 0, 0, 0, 0, 0, 0, 0, 0, 0, 0, 0, 0
        DC8 0, 0, 0, 0, 0, 0, 0, 0, 0, 0, 0, 0, 0, 0, 0, 0, 0, 0, 0, 0, 0, 0, 0
        DC8 0, 0, 0, 0, 0, 0, 3, 192, 0, 0, 0, 0, 0, 0, 0, 0, 0, 0, 0, 0, 0, 0
        DC8 0, 0, 0, 0, 0, 0, 0, 0, 0, 0, 0, 0, 0, 0, 0, 0, 0, 0, 0, 0, 0, 0, 0
        DC8 0, 0, 0, 0, 0, 0, 0, 0, 0, 0, 0, 3, 192, 0, 0, 0, 0, 0, 0, 0, 0, 0
        DC8 0, 0, 0, 0, 0, 0, 0, 0, 0, 0, 0, 0, 0, 0, 0, 0, 0, 0, 0, 0, 0, 0, 0
        DC8 0, 0, 0, 0, 0, 0, 0, 0, 0, 0, 0, 0, 0, 0, 0, 0, 3, 192, 0, 0, 0, 0
        DC8 0, 0, 0, 0, 0, 0, 0, 0, 0, 0, 0, 0, 0, 0, 0, 0, 0, 0, 0, 0, 0, 0, 0
        DC8 0, 0, 0, 0, 0, 0, 0, 0, 0, 0, 0, 0, 0, 0, 0, 0, 0, 0, 0, 0, 0, 3
        DC8 192, 0, 0, 0, 0, 0, 0, 0, 0, 0, 0, 0, 0, 0, 0, 0, 0, 0, 0, 0, 0, 0
        DC8 0, 0, 0, 0, 0, 0, 0, 0, 0, 0, 0, 0, 0, 0, 0, 0, 0, 0, 0, 0, 0, 0, 0
        DC8 0, 0, 0, 0, 3, 192, 0, 0, 0, 0, 0, 0, 0, 0, 0, 0, 0, 0, 0, 0, 0, 0
        DC8 0, 0, 0, 0, 0, 0, 0, 0, 0, 0, 0, 0, 0, 0, 0, 0, 0, 0, 0, 0, 0, 0, 0
        DC8 0, 0, 0, 0, 0, 0, 0, 0, 0, 3, 192, 0, 0, 0, 0, 0, 0, 0, 0, 0, 0, 0
        DC8 0, 0, 0, 0, 0, 0, 0, 0, 0, 0, 0, 0, 0, 0, 0, 0, 0, 0, 0, 0, 0, 0, 0
        DC8 0, 0, 0, 0, 0, 0, 0, 0, 0, 0, 0, 0, 0, 0, 3, 192, 0, 0, 0, 0, 0, 0
        DC8 0, 0, 0, 0, 0, 0, 0, 0, 0, 0, 0, 0, 0, 0, 0, 0, 0, 0, 0, 0, 0, 0, 0
        DC8 0, 0, 0, 0, 0, 0, 0, 0, 0, 0, 0, 0, 0, 0, 0, 0, 0, 0, 0, 3, 192, 0
        DC8 0, 0, 0, 0, 0, 0, 0, 0, 0, 0, 0, 0, 0, 0, 0, 0, 0, 0, 0, 0, 0, 0, 0
        DC8 0, 0, 0, 0, 0, 0, 0, 0, 0, 0, 0, 0, 0, 0, 0, 0, 0, 0, 0, 0, 0, 0, 0
        DC8 0, 3, 192, 0, 0, 0, 0, 0, 0, 0, 0, 0, 0, 0, 0, 0, 0, 0, 0, 0, 0, 0
        DC8 0, 0, 0, 0, 0, 0, 0, 0, 0, 0, 0, 0, 0, 0, 0, 0, 0, 0, 0, 0, 0, 0, 0
        DC8 0, 0, 0, 0, 0, 0, 3, 192, 0, 0, 0, 0, 0, 0, 0, 0, 0, 0, 0, 0, 0, 0
        DC8 0, 0, 0, 0, 0, 0, 0, 0, 0, 0, 0, 0, 0, 0, 0, 0, 0, 0, 0, 0, 0, 0, 0
        DC8 0, 0, 0, 0, 0, 0, 0, 0, 0, 0, 0, 3, 192, 0, 0, 0, 0, 0, 0, 0, 0, 0
        DC8 0, 0, 0, 0, 0, 0, 0, 0, 0, 0, 0, 0, 0, 0, 0, 0, 0, 0, 0, 0, 0, 0, 0
        DC8 0, 0, 0, 0, 0, 0, 0, 0, 0, 0, 0, 0, 0, 0, 0, 0, 3, 192, 0, 0, 0, 0
        DC8 0, 0, 0, 0, 0, 0, 0, 0, 0, 0, 0, 0, 0, 0, 0, 0, 0, 0, 0, 0, 0, 0, 0
        DC8 0, 0, 0, 0, 0, 0, 0, 0, 0, 0, 0, 0, 0, 0, 0, 0, 0, 0, 0, 0, 0, 3
        DC8 192, 0, 0, 0, 0, 0, 0, 0, 0, 0, 0, 0, 0, 0, 0, 0, 0, 0, 0, 0, 0, 0
        DC8 0, 0, 0, 0, 0, 0, 0, 0, 0, 0, 0, 0, 0, 0, 0, 0, 0, 0, 0, 0, 0, 0, 0
        DC8 0, 0, 0, 0, 3, 192, 0, 0, 0, 0, 0, 0, 0, 0, 0, 0, 0, 0, 0, 0, 0, 0
        DC8 0, 0, 0, 0, 0, 0, 0, 0, 0, 0, 0, 0, 0, 0, 0, 0, 0, 0, 0, 0, 0, 0, 0
        DC8 0, 0, 0, 0, 0, 0, 0, 0, 0, 3, 192, 0, 0, 0, 0, 0, 0, 0, 0, 0, 0, 0
        DC8 0, 0, 0, 0, 0, 0, 0, 0, 0, 0, 0, 0, 0, 0, 0, 0, 0, 0, 0, 0, 0, 0, 0
        DC8 0, 0, 0, 0, 0, 0, 0, 0, 0, 0, 0, 0, 0, 0, 3, 192, 0, 0, 0, 0, 0, 0
        DC8 0, 0, 0, 0, 0, 0, 0, 0, 0, 0, 0, 0, 0, 0, 0, 0, 0, 0, 0, 0, 0, 0, 0
        DC8 0, 0, 0, 0, 0, 0, 0, 0, 0, 0, 0, 0, 0, 0, 0, 0, 0, 0, 0, 3, 192, 0
        DC8 0, 0, 0, 0, 0, 0, 0, 0, 0, 0, 0, 0, 0, 0, 0, 0, 0, 0, 0, 0, 0, 0, 0
        DC8 0, 0, 0, 0, 0, 0, 0, 0, 0, 0, 0, 0, 0, 0, 0, 0, 0, 0, 0, 0, 0, 0, 0
        DC8 0, 3, 192, 0, 0, 0, 0, 0, 0, 0, 0, 0, 0, 0, 0, 0, 0, 0, 0, 0, 0, 0
        DC8 0, 0, 0, 0, 0, 0, 0, 0, 0, 0, 0, 0, 0, 0, 0, 0, 0, 0, 0, 0, 0, 0, 0
        DC8 0, 0, 0, 0, 0, 0, 3, 192, 0, 0, 0, 0, 0, 0, 0, 0, 0, 0, 0, 0, 0, 0
        DC8 0, 0, 0, 0, 0, 0, 0, 0, 0, 0, 0, 0, 0, 0, 0, 0, 0, 0, 0, 0, 0, 0, 0
        DC8 0, 0, 0, 0, 0, 0, 0, 0, 0, 0, 0, 3, 192, 0, 0, 0, 0, 0, 0, 0, 0, 0
        DC8 0, 0, 0, 0, 0, 0, 0, 0, 0, 0, 0, 0, 0, 0, 0, 0, 0, 0, 0, 0, 0, 0, 0
        DC8 0, 0, 0, 0, 0, 0, 0, 0, 0, 0, 0, 0, 0, 0, 0, 0, 3, 192, 0, 0, 0, 0
        DC8 0, 0, 0, 0, 0, 0, 0, 0, 0, 0, 0, 0, 0, 0, 0, 0, 0, 0, 0, 0, 0, 0, 0
        DC8 0, 0, 0, 0, 0, 0, 0, 0, 0, 0, 0, 0, 0, 0, 0, 0, 0, 0, 0, 0, 0, 3
        DC8 192, 0, 0, 0, 0, 0, 0, 0, 0, 0, 0, 0, 0, 0, 0, 0, 0, 0, 0, 0, 0, 0
        DC8 0, 0, 0, 0, 0, 0, 0, 0, 0, 0, 0, 0, 0, 0, 0, 0, 0, 0, 0, 0, 0, 0, 0
        DC8 0, 0, 0, 0, 3, 192, 0, 0, 0, 0, 0, 0, 0, 0, 0, 0, 0, 0, 0, 0, 0, 0
        DC8 0, 0, 0, 0, 0, 0, 0, 0, 0, 0, 0, 0, 0, 0, 0, 0, 0, 0, 0, 0, 0, 0, 0
        DC8 0, 0, 0, 0, 0, 0, 0, 0, 0, 3, 192, 0, 0, 0, 0, 0, 0, 0, 0, 0, 0, 0
        DC8 0, 0, 0, 0, 0, 0, 0, 0, 0, 0, 0, 0, 0, 0, 0, 0, 0, 0, 0, 0, 0, 0, 0
        DC8 0, 0, 0, 0, 0, 0, 0, 0, 0, 0, 0, 0, 0, 0, 3, 192, 0, 0, 0, 0, 0, 0
        DC8 0, 0, 0, 0, 0, 0, 0, 0, 0, 0, 0, 0, 0, 0, 0, 0, 0, 0, 0, 0, 0, 0, 0
        DC8 0, 0, 0, 0, 0, 0, 0, 0, 0, 0, 0, 0, 0, 0, 0, 0, 0, 0, 0, 3, 192, 0
        DC8 0, 0, 0, 0, 0, 0, 0, 0, 0, 0, 0, 0, 0, 0, 0, 0, 0, 0, 0, 0, 0, 0, 0
        DC8 0, 0, 0, 0, 0, 0, 0, 0, 0, 0, 0, 0, 0, 0, 0, 0, 0, 0, 0, 0, 0, 0, 0
        DC8 0, 3, 192, 0, 0, 0, 0, 0, 0, 0, 0, 0, 0, 0, 0, 0, 0, 0, 0, 0, 0, 0
        DC8 0, 0, 0, 0, 0, 0, 0, 0, 0, 0, 0, 0, 0, 0, 0, 0, 0, 0, 0, 0, 0, 0, 0
        DC8 0, 0, 0, 0, 0, 0, 3, 192, 0, 0, 0, 0, 0, 0, 0, 0, 0, 0, 0, 0, 0, 0
        DC8 0, 0, 0, 0, 0, 0, 0, 0, 0, 0, 0, 0, 0, 0, 0, 0, 0, 0, 0, 0, 0, 0, 0
        DC8 0, 0, 0, 0, 0, 0, 0, 0, 0, 0, 0, 3, 192, 0, 0, 0, 0, 0, 0, 0, 0, 0
        DC8 0, 0, 0, 0, 0, 0, 0, 0, 0, 0, 0, 0, 0, 0, 0, 0, 0, 0, 0, 0, 0, 0, 0
        DC8 0, 0, 0, 0, 0, 0, 0, 0, 0, 0, 0, 0, 0, 0, 0, 0, 3, 192, 0, 0, 0, 0
        DC8 0, 0, 0, 0, 0, 0, 0, 0, 0, 0, 0, 0, 0, 0, 0, 0, 0, 0, 0, 0, 0, 0, 0
        DC8 0, 0, 0, 0, 0, 0, 0, 0, 0, 0, 0, 0, 0, 0, 0, 0, 0, 0, 0, 0, 0, 3
        DC8 192, 0, 0, 0, 0, 0, 0, 0, 0, 0, 0, 0, 0, 0, 0, 0, 0, 0, 0, 0, 0, 0
        DC8 0, 0, 0, 0, 0, 0, 0, 0, 0, 0, 0, 0, 0, 0, 0, 0, 0, 0, 0, 0, 0, 0, 0
        DC8 0, 0, 0, 0, 3, 192, 0, 0, 0, 0, 0, 0, 0, 0, 0, 0, 0, 0, 0, 0, 0, 0
        DC8 0, 0, 0, 0, 0, 0, 0, 0, 0, 0, 0, 0, 0, 0, 0, 0, 0, 0, 0, 0, 0, 0, 0
        DC8 0, 0, 0, 0, 0, 0, 0, 0, 0, 3, 192, 0, 0, 0, 0, 0, 0, 0, 0, 0, 0, 0
        DC8 0, 0, 0, 0, 0, 0, 0, 0, 0, 0, 0, 0, 0, 0, 0, 0, 0, 0, 0, 0, 0, 0, 0
        DC8 0, 0, 0, 0, 0, 0, 0, 0, 0, 0, 0, 0, 0, 0, 3, 192, 0, 0, 0, 0, 0, 0
        DC8 0, 0, 0, 0, 0, 0, 0, 0, 0, 0, 0, 0, 0, 0, 0, 0, 0, 0, 0, 0, 0, 0, 0
        DC8 0, 0, 0, 0, 0, 0, 0, 0, 0, 0, 0, 0, 0, 0, 0, 0, 0, 0, 0, 3, 192, 0
        DC8 0, 0, 0, 0, 0, 0, 0, 0, 0, 0, 0, 0, 0, 0, 0, 0, 0, 0, 0, 0, 0, 0, 0
        DC8 0, 0, 0, 0, 0, 0, 0, 0, 0, 0, 0, 0, 0, 0, 0, 0, 0, 0, 0, 0, 0, 0, 0
        DC8 0, 3, 192, 0, 0, 0, 0, 0, 0, 0, 0, 0, 0, 0, 0, 0, 0, 0, 0, 0, 0, 0
        DC8 0, 0, 0, 0, 0, 0, 0, 0, 0, 0, 0, 0, 0, 0, 0, 0, 0, 0, 0, 0, 0, 0, 0
        DC8 0, 0, 0, 0, 0, 0, 3, 192, 0, 0, 0, 0, 0, 0, 0, 0, 0, 0, 0, 0, 0, 0
        DC8 0, 0, 0, 0, 0, 0, 0, 0, 0, 0, 0, 0, 0, 0, 0, 0, 0, 0, 0, 0, 0, 0, 0
        DC8 0, 0, 0, 0, 0, 0, 0, 0, 0, 0, 0, 3, 192, 0, 0, 0, 0, 0, 0, 0, 0, 0
        DC8 0, 0, 0, 0, 0, 0, 0, 0, 0, 0, 0, 0, 0, 0, 0, 0, 0, 0, 0, 0, 0, 0, 0
        DC8 0, 0, 0, 0, 0, 0, 0, 0, 0, 0, 0, 0, 0, 0, 0, 0, 3, 192, 0, 0, 0, 0
        DC8 0, 0, 0, 0, 0, 0, 0, 0, 0, 0, 0, 0, 0, 0, 0, 0, 0, 0, 0, 0, 0, 0, 0
        DC8 0, 0, 0, 0, 0, 0, 0, 0, 0, 0, 0, 0, 0, 0, 0, 0, 0, 0, 0, 0, 0, 3
        DC8 192, 0, 0, 0, 0, 0, 0, 0, 0, 0, 0, 0, 0, 0, 0, 0, 0, 0, 0, 0, 0, 0
        DC8 0, 0, 0, 0, 0, 0, 0, 0, 0, 0, 0, 0, 0, 0, 0, 0, 0, 0, 0, 0, 0, 0, 0
        DC8 0, 0, 0, 0, 3, 192, 0, 0, 0, 0, 0, 0, 0, 0, 0, 0, 0, 0, 0, 0, 0, 0
        DC8 0, 0, 0, 0, 0, 0, 0, 0, 0, 0, 0, 0, 0, 0, 0, 0, 0, 0, 0, 0, 0, 0, 0
        DC8 0, 0, 0, 0, 0, 0, 0, 0, 0, 3, 192, 0, 0, 0, 0, 0, 0, 0, 0, 0, 0, 0
        DC8 0, 0, 0, 0, 0, 0, 0, 0, 0, 0, 0, 0, 0, 0, 0, 0, 0, 0, 0, 0, 0, 0, 0
        DC8 0, 0, 0, 0, 0, 0, 0, 0, 0, 0, 0, 0, 0, 0, 3, 192, 0, 0, 0, 0, 0, 0
        DC8 0, 0, 0, 0, 0, 0, 0, 0, 0, 0, 0, 0, 0, 0, 0, 0, 0, 0, 0, 0, 0, 0, 0
        DC8 0, 0, 0, 0, 0, 0, 0, 0, 0, 0, 0, 0, 0, 0, 0, 0, 0, 0, 0, 3, 192, 0
        DC8 0, 0, 0, 0, 0, 0, 0, 0, 0, 0, 0, 0, 0, 0, 0, 0, 0, 0, 0, 0, 0, 0, 0
        DC8 0, 0, 0, 0, 0, 0, 0, 0, 0, 0, 0, 0, 0, 0, 0, 0, 0, 0, 0, 0, 0, 0, 0
        DC8 0, 3, 192, 0, 0, 0, 0, 0, 0, 0, 0, 0, 0, 0, 0, 0, 0, 0, 0, 0, 0, 0
        DC8 0, 0, 0, 0, 0, 0, 0, 0, 0, 0, 0, 0, 0, 0, 0, 0, 0, 0, 0, 0, 0, 0, 0
        DC8 0, 0, 0, 0, 0, 0, 3, 192, 0, 0, 0, 0, 0, 0, 0, 0, 0, 0, 0, 0, 0, 0
        DC8 0, 0, 0, 0, 0, 0, 0, 0, 0, 0, 0, 0, 0, 0, 0, 0, 0, 0, 0, 0, 0, 0, 0
        DC8 0, 0, 0, 0, 0, 0, 0, 0, 0, 0, 0, 3, 192, 0, 0, 0, 0, 0, 0, 0, 0, 0
        DC8 0, 0, 0, 0, 0, 0, 0, 0, 0, 0, 0, 0, 0, 0, 0, 0, 0, 0, 0, 0, 0, 0, 0
        DC8 0, 0, 0, 0, 0, 0, 0, 0, 0, 0, 0, 0, 0, 0, 0, 0, 3, 192, 0, 0, 0, 0
        DC8 0, 0, 0, 0, 0, 0, 0, 0, 0, 0, 0, 0, 0, 0, 0, 0, 0, 0, 0, 0, 0, 0, 0
        DC8 0, 0, 0, 0, 0, 0, 0, 0, 0, 0, 0, 0, 0, 0, 0, 0, 0, 0, 0, 0, 0, 3
        DC8 192, 0, 0, 0, 0, 0, 0, 0, 0, 0, 0, 0, 0, 0, 0, 0, 0, 0, 0, 0, 0, 0
        DC8 0, 0, 0, 0, 0, 0, 0, 0, 0, 0, 0, 0, 0, 0, 0, 0, 0, 0, 0, 0, 0, 0, 0
        DC8 0, 0, 0, 0, 3, 192, 0, 0, 0, 0, 0, 0, 0, 0, 0, 0, 0, 0, 0, 0, 0, 0
        DC8 0, 0, 0, 0, 0, 0, 0, 0, 0, 0, 0, 0, 0, 0, 0, 0, 0, 0, 0, 0, 0, 0, 0
        DC8 0, 0, 0, 0, 0, 0, 0, 0, 0, 3, 192, 0, 0, 0, 0, 0, 0, 0, 0, 0, 0, 0
        DC8 0, 0, 0, 0, 0, 0, 0, 0, 0, 0, 0, 0, 0, 0, 0, 0, 0, 0, 0, 0, 0, 0, 0
        DC8 0, 0, 0, 0, 0, 0, 0, 0, 0, 0, 0, 0, 0, 0, 3, 192, 0, 0, 0, 0, 0, 0
        DC8 0, 0, 0, 0, 0, 0, 0, 0, 0, 0, 0, 0, 0, 0, 0, 0, 0, 0, 0, 0, 0, 0, 0
        DC8 0, 0, 0, 0, 0, 0, 0, 0, 0, 0, 0, 0, 0, 0, 0, 0, 0, 0, 0, 3, 192, 0
        DC8 0, 0, 0, 0, 0, 0, 0, 0, 0, 0, 0, 0, 0, 0, 0, 0, 0, 0, 0, 0, 0, 0, 0
        DC8 0, 0, 0, 0, 0, 0, 0, 0, 0, 0, 0, 0, 0, 0, 0, 0, 0, 0, 0, 0, 0, 0, 0
        DC8 0, 3, 192, 0, 0, 0, 0, 0, 0, 0, 0, 0, 0, 0, 0, 0, 0, 0, 0, 0, 0, 0
        DC8 0, 0, 0, 0, 0, 0, 0, 0, 0, 0, 0, 0, 0, 0, 0, 0, 0, 0, 0, 0, 0, 0, 0
        DC8 0, 0, 0, 0, 0, 0, 3, 192, 0, 0, 0, 0, 0, 0, 0, 0, 0, 0, 0, 0, 0, 0
        DC8 0, 0, 0, 0, 0, 0, 0, 0, 0, 0, 0, 0, 0, 0, 0, 0, 0, 0, 0, 0, 0, 0, 0
        DC8 0, 0, 0, 0, 0, 0, 0, 0, 0, 0, 0, 3, 192, 0, 0, 0, 0, 0, 0, 0, 0, 0
        DC8 0, 0, 0, 0, 0, 0, 0, 0, 0, 0, 0, 0, 0, 0, 0, 0, 0, 0, 0, 0, 0, 0, 0
        DC8 0, 0, 0, 0, 0, 0, 0, 0, 0, 0, 0, 0, 0, 0, 0, 0, 3, 192, 0, 0, 0, 0
        DC8 0, 0, 0, 0, 0, 0, 0, 0, 0, 0, 0, 0, 0, 0, 0, 0, 0, 0, 0, 0, 0, 0, 0
        DC8 0, 0, 0, 0, 0, 0, 0, 0, 0, 0, 0, 0, 0, 0, 0, 0, 0, 0, 0, 0, 0, 3
        DC8 192, 0, 0, 0, 0, 0, 0, 0, 0, 0, 0, 0, 0, 0, 0, 0, 0, 0, 0, 0, 0, 0
        DC8 0, 0, 0, 0, 0, 0, 0, 0, 0, 0, 0, 0, 0, 0, 0, 0, 0, 0, 0, 0, 0, 0, 0
        DC8 0, 0, 0, 0, 3, 192, 0, 0, 0, 0, 0, 0, 0, 0, 0, 0, 0, 0, 0, 0, 0, 0
        DC8 0, 0, 0, 0, 0, 0, 0, 0, 0, 0, 0, 0, 0, 0, 0, 0, 0, 0, 0, 0, 0, 0, 0
        DC8 0, 0, 0, 0, 0, 0, 0, 0, 0, 3, 192, 0, 0, 0, 0, 0, 0, 0, 0, 0, 0, 0
        DC8 0, 0, 0, 0, 0, 0, 0, 0, 0, 0, 0, 0, 0, 0, 0, 0, 0, 0, 0, 0, 0, 0, 0
        DC8 0, 0, 0, 0, 0, 0, 0, 0, 0, 0, 0, 0, 0, 0, 3, 192, 0, 0, 0, 0, 0, 0
        DC8 0, 0, 0, 0, 0, 0, 0, 0, 0, 0, 0, 0, 0, 0, 0, 0, 0, 0, 0, 0, 0, 0, 0
        DC8 0, 0, 0, 0, 0, 0, 0, 0, 0, 0, 0, 0, 0, 0, 0, 0, 0, 0, 0, 3, 192, 0
        DC8 0, 0, 0, 0, 0, 0, 0, 0, 0, 0, 0, 0, 0, 0, 0, 0, 0, 0, 0, 0, 0, 0, 0
        DC8 0, 0, 0, 0, 0, 0, 0, 0, 0, 0, 0, 0, 0, 0, 0, 0, 0, 0, 0, 0, 0, 0, 0
        DC8 0, 3, 192, 0, 0, 0, 0, 0, 0, 0, 0, 0, 0, 0, 0, 0, 0, 0, 0, 0, 0, 0
        DC8 0, 0, 0, 0, 0, 0, 0, 0, 0, 0, 0, 0, 0, 0, 0, 0, 0, 0, 0, 0, 0, 0, 0
        DC8 0, 0, 0, 0, 0, 0, 3, 192, 0, 0, 0, 0, 0, 0, 0, 0, 0, 0, 0, 0, 0, 0
        DC8 0, 0, 0, 0, 0, 0, 0, 0, 0, 0, 0, 0, 0, 0, 0, 0, 0, 0, 0, 0, 0, 0, 0
        DC8 0, 0, 0, 0, 0, 0, 0, 0, 0, 0, 0, 3, 192, 0, 0, 0, 0, 0, 0, 0, 0, 0
        DC8 0, 0, 0, 0, 0, 0, 0, 0, 0, 0, 0, 0, 0, 0, 0, 0, 0, 0, 0, 0, 0, 0, 0
        DC8 0, 0, 0, 0, 0, 0, 0, 0, 0, 0, 0, 0, 0, 0, 0, 0, 3, 192, 0, 0, 0, 0
        DC8 0, 0, 0, 0, 0, 0, 0, 0, 0, 0, 0, 0, 0, 0, 0, 0, 0, 0, 0, 0, 0, 0, 0
        DC8 0, 0, 0, 0, 0, 0, 0, 0, 0, 0, 0, 0, 0, 0, 0, 0, 0, 0, 0, 0, 0, 3
        DC8 192, 0, 0, 0, 0, 0, 0, 0, 0, 0, 0, 0, 0, 0, 0, 0, 0, 0, 0, 0, 0, 0
        DC8 0, 0, 0, 0, 0, 0, 0, 0, 0, 0, 0, 0, 0, 0, 0, 0, 0, 0, 0, 0, 0, 0, 0
        DC8 0, 0, 0, 0, 3, 192, 0, 0, 0, 0, 0, 0, 0, 0, 0, 0, 0, 0, 0, 0, 0, 0
        DC8 0, 0, 0, 0, 0, 0, 0, 0, 0, 0, 0, 0, 0, 0, 0, 0, 0, 0, 0, 0, 0, 0, 0
        DC8 0, 0, 0, 0, 0, 0, 0, 0, 0, 3, 192, 0, 0, 0, 0, 0, 0, 0, 0, 0, 0, 0
        DC8 0, 0, 0, 0, 0, 0, 0, 0, 0, 0, 0, 0, 0, 0, 0, 0, 0, 0, 0, 0, 0, 0, 0
        DC8 0, 0, 0, 0, 0, 0, 0, 0, 0, 0, 0, 0, 0, 0, 3, 192, 0, 0, 0, 0, 0, 0
        DC8 0, 0, 0, 0, 0, 0, 0, 0, 0, 0, 0, 0, 0, 0, 0, 0, 0, 0, 0, 0, 0, 0, 0
        DC8 0, 0, 0, 0, 0, 0, 0, 0, 0, 0, 0, 0, 0, 0, 0, 0, 0, 0, 0, 3, 192, 0
        DC8 0, 0, 0, 0, 0, 0, 0, 0, 0, 0, 0, 0, 0, 0, 0, 0, 0, 0, 0, 0, 0, 0, 0
        DC8 0, 0, 0, 0, 0, 0, 0, 0, 0, 0, 0, 0, 0, 0, 0, 0, 0, 0, 0, 0, 0, 0, 0
        DC8 0, 3, 192, 0, 0, 0, 0, 0, 0, 0, 0, 0, 0, 0, 0, 0, 0, 0, 0, 0, 0, 0
        DC8 0, 0, 0, 0, 0, 0, 0, 0, 0, 0, 0, 0, 0, 0, 0, 0, 0, 0, 0, 0, 0, 0, 0
        DC8 0, 0, 0, 0, 0, 0, 3, 192, 0, 0, 0, 0, 0, 0, 0, 0, 0, 0, 0, 0, 0, 0
        DC8 0, 0, 0, 0, 0, 0, 0, 0, 0, 0, 0, 0, 0, 0, 0, 0, 0, 0, 0, 0, 0, 0, 0
        DC8 0, 0, 0, 0, 0, 0, 0, 0, 0, 0, 0, 3, 192, 0, 0, 0, 0, 0, 0, 0, 0, 0
        DC8 0, 0, 0, 0, 0, 0, 0, 0, 0, 0, 0, 0, 0, 0, 0, 0, 0, 0, 0, 0, 0, 0, 0
        DC8 0, 0, 0, 0, 0, 0, 0, 0, 0, 0, 0, 0, 0, 0, 0, 0, 3, 192, 0, 0, 0, 0
        DC8 0, 0, 0, 0, 0, 0, 0, 0, 0, 0, 0, 0, 0, 0, 0, 0, 0, 0, 0, 0, 0, 0, 0
        DC8 0, 0, 0, 0, 0, 0, 0, 0, 0, 0, 0, 0, 0, 0, 0, 0, 0, 0, 0, 0, 0, 3
        DC8 192, 0, 0, 0, 0, 0, 0, 0, 0, 0, 0, 0, 0, 0, 0, 0, 0, 0, 0, 0, 0, 0
        DC8 0, 0, 0, 0, 0, 0, 0, 0, 0, 0, 0, 0, 0, 0, 0, 0, 0, 0, 0, 0, 0, 0, 0
        DC8 0, 0, 0, 0, 3, 192, 0, 0, 0, 0, 0, 0, 0, 0, 0, 0, 0, 0, 0, 0, 0, 0
        DC8 0, 0, 0, 0, 0, 0, 0, 0, 0, 0, 0, 0, 0, 0, 0, 0, 0, 0, 0, 0, 0, 0, 0
        DC8 0, 0, 0, 0, 0, 0, 0, 0, 0, 3, 192, 0, 0, 0, 0, 0, 0, 0, 0, 0, 0, 0
        DC8 0, 0, 0, 0, 0, 0, 0, 0, 0, 0, 0, 0, 0, 0, 0, 0, 0, 0, 0, 0, 0, 0, 0
        DC8 0, 0, 0, 0, 0, 0, 0, 0, 0, 0, 0, 0, 0, 0, 3, 192, 0, 0, 0, 0, 0, 0
        DC8 0, 0, 0, 0, 0, 0, 0, 0, 0, 0, 0, 0, 0, 0, 0, 0, 0, 0, 0, 0, 0, 0, 0
        DC8 0, 0, 0, 0, 0, 0, 0, 0, 0, 0, 0, 0, 0, 0, 0, 0, 0, 0, 0, 3, 192, 0
        DC8 0, 0, 0, 0, 0, 0, 0, 0, 0, 0, 0, 0, 0, 0, 0, 0, 0, 0, 0, 0, 0, 0, 0
        DC8 0, 0, 0, 0, 0, 0, 0, 0, 0, 0, 0, 0, 0, 0, 0, 0, 0, 0, 0, 0, 0, 0, 0
        DC8 0, 3, 192, 0, 0, 0, 0, 0, 0, 0, 0, 0, 0, 0, 0, 0, 0, 0, 0, 0, 0, 0
        DC8 0, 0, 0, 0, 0, 0, 0, 0, 0, 0, 0, 0, 0, 0, 0, 0, 0, 0, 0, 0, 0, 0, 0
        DC8 0, 0, 0, 0, 0, 0, 3, 192, 0, 0, 0, 0, 0, 0, 0, 0, 0, 0, 0, 0, 0, 0
        DC8 0, 0, 0, 0, 0, 0, 0, 0, 0, 0, 0, 0, 0, 0, 0, 0, 0, 0, 0, 0, 0, 0, 0
        DC8 0, 0, 0, 0, 0, 0, 0, 0, 0, 0, 0, 3, 192, 0, 0, 0, 0, 0, 0, 0, 0, 0
        DC8 0, 0, 0, 0, 0, 0, 0, 0, 0, 0, 0, 0, 0, 0, 0, 0, 0, 0, 0, 0, 0, 0, 0
        DC8 0, 0, 0, 0, 0, 0, 0, 0, 0, 0, 0, 0, 0, 0, 0, 0, 3, 192, 0, 0, 0, 0
        DC8 0, 0, 0, 0, 0, 0, 0, 0, 0, 0, 0, 0, 0, 0, 0, 0, 0, 0, 0, 0, 0, 0, 0
        DC8 0, 0, 0, 0, 0, 0, 0, 0, 0, 0, 0, 0, 0, 0, 0, 0, 0, 0, 0, 0, 0, 3
        DC8 192, 0, 0, 0, 0, 0, 0, 0, 0, 0, 0, 0, 0, 0, 0, 0, 0, 0, 0, 0, 0, 0
        DC8 0, 0, 0, 0, 0, 0, 0, 0, 0, 0, 0, 0, 0, 0, 0, 0, 0, 0, 0, 0, 0, 0, 0
        DC8 0, 0, 0, 0, 3, 192, 0, 0, 0, 0, 0, 0, 0, 0, 0, 0, 0, 0, 0, 0, 0, 0
        DC8 0, 0, 0, 0, 0, 0, 0, 0, 0, 0, 0, 0, 0, 0, 0, 0, 0, 0, 0, 0, 0, 0, 0
        DC8 0, 0, 0, 0, 0, 0, 0, 0, 0, 3, 192, 0, 0, 0, 0, 0, 0, 0, 0, 0, 0, 0
        DC8 0, 0, 0, 0, 0, 0, 0, 0, 0, 0, 0, 0, 0, 0, 0, 0, 0, 0, 0, 0, 0, 0, 0
        DC8 0, 0, 0, 0, 0, 0, 0, 0, 0, 0, 0, 0, 0, 0, 3, 192, 0, 0, 0, 0, 0, 0
        DC8 0, 0, 0, 0, 0, 0, 0, 0, 0, 0, 0, 0, 0, 0, 0, 0, 0, 0, 0, 0, 0, 0, 0
        DC8 0, 0, 0, 0, 0, 0, 0, 0, 0, 0, 0, 0, 0, 0, 0, 0, 0, 0, 0, 3, 192, 0
        DC8 0, 0, 0, 0, 0, 0, 0, 0, 0, 0, 0, 0, 0, 0, 0, 0, 0, 0, 0, 0, 0, 0, 0
        DC8 0, 0, 0, 0, 0, 0, 0, 0, 0, 0, 0, 0, 0, 0, 0, 0, 0, 0, 0, 0, 0, 0, 0
        DC8 0, 3, 192, 0, 0, 0, 0, 0, 0, 0, 0, 0, 0, 0, 0, 0, 0, 0, 0, 0, 0, 0
        DC8 0, 0, 0, 0, 0, 0, 0, 0, 0, 0, 0, 0, 0, 0, 0, 0, 0, 0, 0, 0, 0, 0, 0
        DC8 0, 0, 0, 0, 0, 0, 3, 192, 0, 0, 0, 0, 0, 0, 0, 0, 0, 0, 0, 0, 0, 0
        DC8 0, 0, 0, 0, 0, 0, 0, 0, 0, 0, 0, 0, 0, 0, 0, 0, 0, 0, 0, 0, 0, 0, 0
        DC8 0, 0, 0, 0, 0, 0, 0, 0, 0, 0, 0, 3, 192, 0, 0, 0, 0, 0, 0, 0, 0, 0
        DC8 0, 0, 0, 0, 0, 0, 0, 0, 0, 0, 0, 0, 0, 0, 0, 0, 0, 0, 0, 0, 0, 0, 0
        DC8 0, 0, 0, 0, 0, 0, 0, 0, 0, 0, 0, 0, 0, 0, 0, 0, 3, 192, 0, 0, 0, 0
        DC8 0, 0, 0, 0, 0, 0, 0, 0, 0, 0, 0, 0, 0, 0, 0, 0, 0, 0, 0, 0, 0, 0, 0
        DC8 0, 0, 0, 0, 0, 0, 0, 0, 0, 0, 0, 0, 0, 0, 0, 0, 0, 0, 0, 0, 0, 3
        DC8 192, 0, 0, 0, 0, 0, 0, 0, 0, 0, 0, 0, 0, 0, 0, 0, 0, 0, 0, 0, 0, 0
        DC8 0, 0, 0, 0, 0, 0, 0, 0, 0, 0, 0, 0, 0, 0, 0, 0, 0, 0, 0, 0, 0, 0, 0
        DC8 0, 0, 0, 0, 3, 192, 0, 0, 0, 0, 0, 0, 0, 0, 0, 0, 0, 0, 0, 0, 0, 0
        DC8 0, 0, 0, 0, 0, 0, 0, 0, 0, 0, 0, 0, 0, 0, 0, 0, 0, 0, 0, 0, 0, 0, 0
        DC8 0, 0, 0, 0, 0, 0, 0, 0, 0, 3, 192, 0, 0, 0, 0, 0, 0, 0, 0, 0, 0, 0
        DC8 0, 0, 0, 0, 0, 0, 0, 0, 0, 0, 0, 0, 0, 0, 0, 0, 0, 0, 0, 0, 0, 0, 0
        DC8 0, 0, 0, 0, 0, 0, 0, 0, 0, 0, 0, 0, 0, 0, 3, 192, 0, 0, 0, 0, 0, 0
        DC8 0, 0, 0, 0, 0, 0, 0, 0, 0, 0, 0, 0, 0, 0, 0, 0, 0, 0, 0, 0, 0, 0, 0
        DC8 0, 0, 0, 0, 0, 0, 0, 0, 0, 0, 0, 0, 0, 0, 0, 0, 0, 0, 0, 3, 192, 0
        DC8 0, 0, 0, 0, 0, 0, 0, 0, 0, 0, 0, 0, 0, 0, 0, 0, 0, 0, 0, 0, 0, 0, 0
        DC8 0, 0, 0, 0, 0, 0, 0, 0, 0, 0, 0, 0, 0, 0, 0, 0, 0, 0, 0, 0, 0, 0, 0
        DC8 0, 3, 192, 0, 0, 0, 0, 0, 0, 0, 0, 0, 0, 0, 0, 0, 0, 0, 0, 0, 0, 0
        DC8 0, 0, 0, 0, 0, 0, 0, 0, 0, 0, 0, 0, 0, 0, 0, 0, 0, 0, 0, 0, 0, 0, 0
        DC8 0, 0, 0, 0, 0, 0, 3, 192, 0, 0, 0, 0, 0, 0, 0, 0, 0, 0, 0, 0, 0, 0
        DC8 0, 0, 0, 0, 0, 0, 0, 0, 0, 0, 0, 0, 0, 0, 0, 0, 0, 0, 0, 0, 0, 0, 0
        DC8 0, 0, 0, 0, 0, 0, 0, 0, 0, 0, 0, 3, 192, 0, 0, 0, 0, 0, 0, 0, 0, 0
        DC8 0, 0, 0, 0, 0, 0, 0, 0, 0, 0, 0, 0, 0, 0, 0, 0, 0, 0, 0, 0, 0, 0, 0
        DC8 0, 0, 0, 0, 0, 0, 0, 0, 0, 0, 0, 0, 0, 0, 0, 0, 3, 192, 0, 0, 0, 0
        DC8 0, 0, 0, 0, 0, 0, 0, 0, 0, 0, 0, 0, 0, 0, 0, 0, 0, 0, 0, 0, 0, 0, 0
        DC8 0, 0, 0, 0, 0, 0, 0, 0, 0, 0, 0, 0, 0, 0, 0, 0, 0, 0, 0, 0, 0, 3
        DC8 192, 0, 0, 0, 0, 0, 0, 0, 0, 0, 0, 0, 0, 0, 0, 0, 0, 0, 0, 0, 0, 0
        DC8 0, 0, 0, 0, 0, 0, 0, 0, 0, 0, 0, 0, 0, 0, 0, 0, 0, 0, 0, 0, 0, 0, 0
        DC8 0, 0, 0, 0, 3, 192, 0, 0, 0, 0, 0, 0, 0, 0, 0, 0, 0, 0, 0, 0, 0, 0
        DC8 0, 0, 0, 0, 0, 0, 0, 0, 0, 0, 0, 0, 0, 0, 0, 0, 0, 0, 0, 0, 0, 0, 0
        DC8 0, 0, 0, 0, 0, 0, 0, 0, 0, 3, 192, 0, 0, 0, 0, 0, 0, 0, 0, 0, 0, 0
        DC8 0, 0, 0, 0, 0, 0, 0, 0, 0, 0, 0, 0, 0, 0, 0, 0, 0, 0, 0, 0, 0, 0, 0
        DC8 0, 0, 0, 0, 0, 0, 0, 0, 0, 0, 0, 0, 0, 0, 3, 192, 0, 0, 0, 0, 0, 0
        DC8 0, 0, 0, 0, 0, 0, 0, 0, 0, 0, 0, 0, 0, 0, 0, 0, 0, 0, 0, 0, 0, 0, 0
        DC8 0, 0, 0, 0, 0, 0, 0, 0, 0, 0, 0, 0, 0, 0, 0, 0, 0, 0, 0, 3, 192, 0
        DC8 0, 0, 0, 0, 0, 0, 0, 0, 0, 0, 0, 0, 0, 0, 0, 0, 0, 0, 0, 0, 0, 0, 0
        DC8 0, 0, 0, 0, 0, 0, 0, 0, 0, 0, 0, 0, 0, 0, 0, 0, 0, 0, 0, 0, 0, 0, 0
        DC8 0, 3, 192, 0, 0, 0, 0, 0, 0, 0, 0, 0, 0, 0, 0, 0, 0, 0, 0, 0, 0, 0
        DC8 0, 0, 0, 0, 0, 0, 0, 0, 0, 0, 0, 0, 0, 0, 0, 0, 0, 0, 0, 0, 0, 0, 0
        DC8 0, 0, 0, 0, 0, 0, 3, 192, 0, 0, 0, 0, 0, 0, 0, 0, 0, 0, 0, 0, 0, 0
        DC8 0, 0, 0, 0, 0, 0, 0, 0, 0, 0, 0, 0, 0, 0, 0, 0, 0, 0, 0, 0, 0, 0, 0
        DC8 0, 0, 0, 0, 0, 0, 0, 0, 0, 0, 0, 3, 192, 0, 0, 0, 0, 0, 0, 0, 0, 0
        DC8 0, 0, 0, 0, 0, 0, 0, 0, 0, 0, 0, 0, 0, 0, 0, 0, 0, 0, 0, 0, 0, 0, 0
        DC8 0, 0, 0, 0, 0, 0, 0, 0, 0, 0, 0, 0, 0, 0, 0, 0, 3, 192, 0, 0, 0, 0
        DC8 0, 0, 0, 0, 0, 0, 0, 0, 0, 0, 0, 0, 0, 0, 0, 0, 0, 0, 0, 0, 0, 0, 0
        DC8 0, 0, 0, 0, 0, 0, 0, 0, 0, 0, 0, 0, 0, 0, 0, 0, 0, 0, 0, 0, 0, 3
        DC8 192, 0, 0, 0, 0, 0, 0, 0, 0, 0, 0, 0, 0, 0, 0, 0, 0, 0, 0, 0, 0, 0
        DC8 0, 0, 0, 0, 0, 0, 0, 0, 0, 0, 0, 0, 0, 0, 0, 0, 0, 0, 0, 0, 0, 0, 0
        DC8 0, 0, 0, 0, 3, 192, 0, 0, 0, 0, 0, 0, 0, 0, 0, 0, 0, 0, 0, 0, 0, 0
        DC8 0, 0, 0, 0, 0, 0, 0, 0, 0, 0, 0, 0, 0, 0, 0, 0, 0, 0, 0, 0, 0, 0, 0
        DC8 0, 0, 0, 0, 0, 0, 0, 0, 0, 3, 192, 0, 0, 0, 0, 0, 0, 0, 0, 0, 0, 0
        DC8 0, 0, 0, 0, 0, 0, 0, 0, 0, 0, 0, 0, 0, 0, 0, 0, 0, 0, 0, 0, 0, 0, 0
        DC8 0, 0, 0, 0, 0, 0, 0, 0, 0, 0, 0, 0, 0, 0, 3, 192, 0, 0, 0, 0, 0, 0
        DC8 0, 0, 0, 0, 0, 0, 0, 0, 0, 0, 0, 0, 0, 0, 0, 0, 0, 0, 0, 0, 0, 0, 0
        DC8 0, 0, 0, 0, 0, 0, 0, 0, 0, 0, 0, 0, 0, 0, 0, 0, 0, 0, 0, 3, 192, 0
        DC8 0, 0, 0, 0, 0, 0, 0, 0, 0, 0, 0, 0, 0, 0, 0, 0, 0, 0, 0, 0, 0, 0, 0
        DC8 0, 0, 0, 0, 0, 0, 0, 0, 0, 0, 0, 0, 0, 0, 0, 0, 0, 0, 0, 0, 0, 0, 0
        DC8 0, 3, 192, 0, 0, 0, 0, 0, 0, 0, 0, 0, 0, 0, 0, 0, 0, 0, 0, 0, 0, 0
        DC8 0, 0, 0, 0, 0, 0, 0, 0, 0, 0, 0, 0, 0, 0, 0, 0, 0, 0, 0, 0, 0, 0, 0
        DC8 0, 0, 0, 0, 0, 0, 3, 192, 0, 0, 0, 0, 0, 0, 0, 0, 0, 0, 0, 0, 0, 0
        DC8 0, 0, 0, 0, 0, 0, 0, 0, 0, 0, 0, 0, 0, 0, 0, 0, 0, 0, 0, 0, 0, 0, 0
        DC8 0, 0, 0, 0, 0, 0, 0, 0, 0, 0, 0, 3, 192, 0, 0, 0, 0, 0, 0, 0, 0, 0
        DC8 0, 0, 0, 0, 0, 0, 0, 0, 0, 0, 0, 0, 0, 0, 0, 0, 0, 0, 0, 0, 0, 0, 0
        DC8 0, 0, 0, 0, 0, 0, 0, 0, 0, 0, 0, 0, 0, 0, 0, 0, 3, 192, 0, 0, 0, 0
        DC8 0, 0, 0, 0, 0, 0, 0, 0, 0, 0, 0, 0, 0, 0, 0, 0, 0, 0, 0, 0, 0, 0, 0
        DC8 0, 0, 0, 0, 0, 0, 0, 0, 0, 0, 0, 0, 0, 0, 0, 0, 0, 0, 0, 0, 0, 3
        DC8 192, 0, 0, 0, 0, 0, 0, 0, 0, 0, 0, 0, 0, 0, 0, 0, 0, 0, 0, 0, 0, 0
        DC8 0, 0, 0, 0, 0, 0, 0, 0, 0, 0, 0, 0, 0, 0, 0, 0, 0, 0, 0, 0, 0, 0, 0
        DC8 0, 0, 0, 0, 3, 192, 0, 0, 0, 0, 0, 0, 0, 0, 0, 0, 0, 0, 0, 0, 0, 0
        DC8 0, 0, 0, 0, 0, 0, 0, 0, 0, 0, 0, 0, 0, 0, 0, 0, 0, 0, 0, 0, 0, 0, 0
        DC8 0, 0, 0, 0, 0, 0, 0, 0, 0, 3, 192, 0, 0, 0, 0, 0, 0, 0, 0, 0, 0, 0
        DC8 0, 0, 0, 0, 0, 0, 0, 0, 0, 0, 0, 0, 0, 0, 0, 0, 0, 0, 0, 0, 0, 0, 0
        DC8 0, 0, 0, 0, 0, 0, 0, 0, 0, 0, 0, 0, 0, 0, 3, 192, 0, 0, 0, 0, 0, 0
        DC8 0, 0, 0, 0, 0, 0, 0, 0, 0, 0, 0, 0, 0, 0, 0, 0, 0, 0, 0, 0, 0, 0, 0
        DC8 0, 0, 0, 0, 0, 0, 0, 0, 0, 0, 0, 0, 0, 0, 0, 0, 0, 0, 0, 3, 192, 0
        DC8 0, 0, 0, 0, 0, 0, 0, 0, 0, 0, 0, 0, 0, 0, 0, 0, 0, 0, 0, 0, 0, 0, 0
        DC8 0, 0, 0, 0, 0, 0, 0, 0, 0, 0, 0, 0, 0, 0, 0, 0, 0, 0, 0, 0, 0, 0, 0
        DC8 0, 3, 192, 0, 0, 0, 0, 0, 0, 0, 0, 0, 0, 0, 0, 0, 0, 0, 0, 0, 0, 0
        DC8 0, 0, 0, 0, 0, 0, 0, 0, 0, 0, 0, 0, 0, 0, 0, 0, 0, 0, 0, 0, 0, 0, 0
        DC8 0, 0, 0, 0, 0, 0, 3, 192, 0, 0, 0, 0, 0, 0, 0, 0, 0, 0, 0, 0, 0, 0
        DC8 0, 0, 0, 0, 0, 0, 0, 0, 0, 0, 0, 0, 0, 0, 0, 0, 0, 0, 0, 0, 0, 0, 0
        DC8 0, 0, 0, 0, 0, 0, 0, 0, 0, 0, 0, 3, 192, 0, 0, 0, 0, 0, 0, 0, 0, 0
        DC8 0, 0, 0, 0, 0, 0, 0, 0, 0, 0, 0, 0, 0, 0, 0, 0, 0, 0, 0, 0, 0, 0, 0
        DC8 0, 0, 0, 0, 0, 0, 0, 0, 0, 0, 0, 0, 0, 0, 0, 0, 3, 192, 0, 0, 0, 0
        DC8 0, 0, 0, 0, 0, 0, 0, 0, 0, 0, 0, 0, 0, 0, 0, 0, 0, 0, 0, 0, 0, 0, 0
        DC8 0, 0, 0, 0, 0, 0, 0, 0, 0, 0, 0, 0, 0, 0, 0, 0, 0, 0, 0, 0, 0, 3
        DC8 192, 0, 0, 0, 0, 0, 0, 0, 0, 0, 0, 0, 0, 0, 0, 0, 0, 0, 0, 0, 0, 0
        DC8 0, 0, 0, 0, 0, 0, 0, 0, 0, 0, 0, 0, 0, 0, 0, 0, 0, 0, 0, 0, 0, 0, 0
        DC8 0, 0, 0, 0, 3, 192, 0, 0, 0, 0, 0, 0, 0, 0, 0, 0, 0, 0, 0, 0, 0, 0
        DC8 0, 0, 0, 0, 0, 0, 0, 0, 0, 0, 0, 0, 0, 0, 0, 0, 0, 0, 0, 0, 0, 0, 0
        DC8 0, 0, 0, 0, 0, 0, 0, 0, 0, 3, 192, 0, 0, 0, 0, 0, 0, 0, 0, 0, 0, 0
        DC8 0, 0, 0, 0, 0, 0, 0, 0, 0, 0, 0, 0, 0, 0, 0, 0, 0, 0, 0, 0, 0, 0, 0
        DC8 0, 0, 0, 0, 0, 0, 0, 0, 0, 0, 0, 0, 0, 0, 3, 192, 0, 0, 0, 0, 0, 0
        DC8 0, 0, 0, 0, 0, 0, 0, 0, 0, 0, 0, 0, 0, 0, 0, 0, 0, 0, 0, 0, 0, 0, 0
        DC8 0, 0, 0, 0, 0, 0, 0, 0, 0, 0, 0, 0, 0, 0, 0, 0, 0, 0, 0, 3, 192, 0
        DC8 0, 0, 0, 0, 0, 0, 0, 0, 0, 0, 0, 0, 0, 0, 0, 0, 0, 0, 0, 0, 0, 0, 0
        DC8 0, 0, 0, 0, 0, 0, 0, 0, 0, 0, 0, 0, 0, 0, 0, 0, 0, 0, 0, 0, 0, 0, 0
        DC8 0, 3, 192, 0, 0, 0, 0, 0, 0, 0, 0, 0, 0, 0, 0, 0, 0, 0, 0, 0, 0, 0
        DC8 0, 0, 0, 0, 0, 0, 0, 0, 0, 0, 0, 0, 0, 0, 0, 0, 0, 0, 0, 0, 0, 0, 0
        DC8 0, 0, 0, 0, 0, 0, 3, 192, 0, 0, 0, 0, 0, 0, 0, 0, 0, 0, 0, 0, 0, 0
        DC8 0, 0, 0, 0, 0, 0, 0, 0, 0, 0, 0, 0, 0, 0, 0, 0, 0, 0, 0, 0, 0, 0, 0
        DC8 0, 0, 0, 0, 0, 0, 0, 0, 0, 0, 0, 3, 192, 0, 0, 0, 0, 0, 0, 0, 0, 0
        DC8 0, 0, 0, 0, 0, 0, 0, 0, 0, 0, 0, 0, 0, 0, 0, 0, 0, 0, 0, 0, 0, 0, 0
        DC8 0, 0, 0, 0, 0, 0, 0, 0, 0, 0, 0, 0, 0, 0, 0, 0, 3, 192, 0, 0, 0, 0
        DC8 0, 0, 0, 0, 0, 0, 0, 0, 0, 0, 0, 0, 0, 0, 0, 0, 0, 0, 0, 0, 0, 0, 0
        DC8 0, 0, 0, 0, 0, 0, 0, 0, 0, 0, 0, 0, 0, 0, 0, 0, 0, 0, 0, 0, 0, 3
        DC8 192, 0, 0, 0, 0, 0, 0, 0, 0, 0, 0, 0, 0, 0, 0, 0, 0, 0, 0, 0, 0, 0
        DC8 0, 0, 0, 0, 0, 0, 0, 0, 0, 0, 0, 0, 0, 0, 0, 0, 0, 0, 0, 0, 0, 0, 0
        DC8 0, 0, 0, 0, 3, 192, 0, 0, 0, 0, 0, 0, 0, 0, 0, 0, 0, 0, 0, 0, 0, 0
        DC8 0, 0, 0, 0, 0, 0, 0, 0, 0, 0, 0, 0, 0, 0, 0, 0, 0, 0, 0, 0, 0, 0, 0
        DC8 0, 0, 0, 0, 0, 0, 0, 0, 0, 3, 192, 0, 0, 0, 0, 0, 0, 0, 0, 0, 0, 0
        DC8 0, 0, 0, 0, 0, 0, 0, 0, 0, 0, 0, 0, 0, 0, 0, 0, 0, 0, 0, 0, 0, 0, 0
        DC8 0, 0, 0, 0, 0, 0, 0, 0, 0, 0, 0, 0, 0, 0, 3, 192, 0, 0, 0, 0, 0, 0
        DC8 0, 0, 0, 0, 0, 0, 0, 0, 0, 0, 0, 0, 0, 0, 0, 0, 0, 0, 0, 0, 0, 0, 0
        DC8 0, 0, 0, 0, 0, 0, 0, 0, 0, 0, 0, 0, 0, 0, 0, 0, 0, 0, 0, 3, 192, 0
        DC8 0, 0, 0, 0, 0, 0, 0, 0, 0, 0, 0, 0, 0, 0, 0, 0, 0, 0, 0, 0, 0, 0, 0
        DC8 0, 0, 0, 0, 0, 0, 0, 0, 0, 0, 0, 0, 0, 0, 0, 0, 0, 0, 0, 0, 0, 0, 0
        DC8 0, 3, 192, 0, 0, 0, 0, 0, 0, 0, 0, 0, 0, 0, 0, 0, 0, 0, 0, 0, 0, 0
        DC8 0, 0, 0, 0, 0, 0, 0, 0, 0, 0, 0, 0, 0, 0, 0, 0, 0, 0, 0, 0, 0, 0, 0
        DC8 0, 0, 0, 0, 0, 0, 3, 192, 0, 0, 0, 0, 0, 0, 0, 0, 0, 0, 0, 0, 0, 0
        DC8 0, 0, 0, 0, 0, 0, 0, 0, 0, 0, 0, 0, 0, 0, 0, 0, 0, 0, 0, 0, 0, 0, 0
        DC8 0, 0, 0, 0, 0, 0, 0, 0, 0, 0, 0, 3, 192, 0, 0, 0, 0, 0, 0, 0, 0, 0
        DC8 0, 0, 0, 0, 0, 0, 0, 0, 0, 0, 0, 0, 0, 0, 0, 0, 0, 0, 0, 0, 0, 0, 0
        DC8 0, 0, 0, 0, 0, 0, 0, 0, 0, 0, 0, 0, 0, 0, 0, 0, 3, 192, 0, 0, 0, 0
        DC8 0, 0, 0, 0, 0, 0, 0, 0, 0, 0, 0, 0, 0, 0, 0, 0, 0, 0, 0, 0, 0, 0, 0
        DC8 0, 0, 0, 0, 0, 0, 0, 0, 0, 0, 0, 0, 0, 0, 0, 0, 0, 0, 0, 0, 0, 3
        DC8 192, 0, 0, 0, 0, 0, 0, 0, 0, 0, 0, 0, 0, 0, 0, 0, 0, 0, 0, 0, 0, 0
        DC8 0, 0, 0, 0, 0, 0, 0, 0, 0, 0, 0, 0, 0, 0, 0, 0, 0, 0, 0, 0, 0, 0, 0
        DC8 0, 0, 0, 0, 3, 192, 0, 0, 0, 0, 0, 0, 0, 0, 0, 0, 0, 0, 0, 0, 0, 0
        DC8 0, 0, 0, 0, 0, 0, 0, 0, 0, 0, 0, 0, 0, 0, 0, 0, 0, 0, 0, 0, 0, 0, 0
        DC8 0, 0, 0, 0, 0, 0, 0, 0, 0, 3, 192, 0, 0, 0, 0, 0, 0, 0, 0, 0, 0, 0
        DC8 0, 0, 0, 0, 0, 0, 0, 0, 0, 0, 0, 0, 0, 0, 0, 0, 0, 0, 0, 0, 0, 0, 0
        DC8 0, 0, 0, 0, 0, 0, 0, 0, 0, 0, 0, 0, 0, 0, 3, 192, 0, 0, 0, 0, 0, 0
        DC8 0, 0, 0, 0, 0, 0, 0, 0, 0, 0, 0, 0, 0, 0, 0, 0, 0, 0, 0, 0, 0, 0, 0
        DC8 0, 0, 0, 0, 0, 0, 0, 0, 0, 0, 0, 0, 0, 0, 0, 0, 0, 0, 0, 3, 255
        DC8 255, 255, 255, 255, 255, 255, 255, 255, 255, 255, 255, 255, 255
        DC8 255, 255, 255, 255, 255, 255, 255, 255, 255, 255, 255, 255, 255
        DC8 255, 255, 255, 255, 255, 255, 255, 255, 255, 255, 255, 255, 255
        DC8 255, 255, 255, 255, 255, 255, 255, 255, 255, 255, 255, 255, 255
        DC8 255, 255, 255, 255, 255, 255, 255, 255, 255, 255, 255, 255, 255
        DC8 255, 255, 255, 255, 255, 255, 255, 255, 255, 255, 255, 255, 255
        DC8 255, 255, 255, 255, 255, 255, 255, 255, 255, 255, 255, 255, 255
        DC8 255, 255, 255, 255, 255, 255, 255, 255, 255, 255, 255, 255, 255
        DC8 255, 255, 255, 255, 255, 255, 255, 255, 255, 255, 255, 255, 255
        DC8 255, 255, 255, 255, 255, 255, 255, 255, 255, 255, 255, 255, 255
        DC8 255, 255, 255, 255, 255, 255, 255, 255, 255, 255, 255, 255, 255
        DC8 255, 255, 255, 255, 255, 255, 255, 255, 255, 255, 255, 255, 255
        DC8 255, 255, 255, 255, 255, 255, 255, 255, 255, 255, 255, 255, 255
        DC8 255, 255, 255, 255, 255, 255, 255, 255, 255, 255, 255, 255, 255
        DC8 255, 255, 255, 255, 255, 255, 255, 255, 255, 255, 255, 255, 255
        DC8 255, 255, 255, 255, 255, 255, 255, 255, 255, 255, 255, 255, 255
        DC8 255, 255, 255, 255, 255, 255, 255, 255, 255, 255, 255, 255, 255
        DC8 255, 255, 255, 255, 255, 255, 255, 255, 255, 255, 255, 255, 255
        DC8 255, 255, 255, 255, 255, 255, 255, 255, 255, 255, 255, 255, 255
        DC8 255, 255, 255, 255, 255, 255, 255, 255, 255, 255, 255, 255, 255
        DC8 255, 255, 255, 255, 255, 255, 255, 255, 255, 255, 255, 255, 255
        DC8 255, 255, 255, 255, 255, 255, 255, 255, 255, 255, 255, 255, 255
        DC8 255, 255, 255, 255, 255, 255, 255, 255, 255, 255, 255, 255, 255
        DC8 255, 255, 255, 255, 255, 255, 255, 255, 255, 255, 255, 255, 255
        DC8 255, 255, 255, 255, 255, 255, 255, 255, 255, 255, 255, 255, 255
        DC8 255, 255, 255, 255, 255, 255, 255, 255, 255, 255, 255, 255, 255
        DC8 255, 255, 255, 255, 255, 255, 255, 255, 255, 255, 255, 255, 255
        DC8 255, 255, 255, 255, 255, 255, 255, 255, 255, 255, 255, 255, 255
        DC8 255, 255, 255, 255, 255, 255, 255, 255, 255, 255, 255, 255, 255
        DC8 255, 255, 255, 255, 255, 255, 255, 255, 255, 255, 255, 255, 255
        DC8 255, 255, 255, 255, 255, 255, 255, 255, 255, 192, 0, 0, 0, 0, 0, 0
        DC8 0, 0, 0, 0, 0, 0, 0, 0, 7, 255, 255, 255, 255, 255, 255, 255, 255
        DC8 255, 255, 255, 255, 255, 255, 255, 255, 255, 255, 255, 255, 255
        DC8 255, 255, 255, 255, 255, 255, 255, 255, 255, 255, 255, 255, 255
        DC8 192, 0, 0, 0, 0, 0, 0, 0, 0, 0, 0, 0, 0, 0, 0, 7, 255, 255, 255
        DC8 255, 255, 255, 255, 255, 255, 255, 255, 255, 255, 255, 255, 255
        DC8 255, 255, 255, 255, 255, 255, 255, 255, 255, 255, 255, 255, 255
        DC8 255, 255, 255, 255, 255, 192, 0, 0, 0, 0, 0, 0, 0, 0, 0, 0, 0, 0, 0
        DC8 0, 7, 255, 255, 255, 255, 255, 255, 255, 255, 255, 255, 255, 255
        DC8 255, 255, 255, 255, 255, 255, 255, 255, 255, 255, 255, 255, 255
        DC8 255, 255, 255, 255, 255, 255, 255, 255, 255, 192, 0, 0, 0, 0, 0, 0
        DC8 0, 0, 0, 0, 0, 0, 0, 0, 7, 255, 255, 255, 255, 255, 255, 255, 255
        DC8 255, 255, 255, 255, 255, 255, 255, 255, 255, 255, 255, 255, 255
        DC8 255, 255, 255, 255, 255, 255, 255, 255, 255, 255, 255, 255, 255
        DC8 195, 255, 255, 255, 255, 255, 255, 255, 255, 255, 255, 255, 255
        DC8 255, 255, 135, 255, 255, 255, 255, 255, 255, 255, 255, 255, 255
        DC8 255, 255, 255, 255, 255, 255, 255, 255, 255, 255, 255, 255, 255
        DC8 255, 255, 255, 255, 255, 255, 255, 255, 255, 255, 255, 195, 255
        DC8 255, 255, 255, 255, 255, 255, 255, 255, 255, 255, 255, 255, 255
        DC8 135, 255, 255, 255, 255, 255, 255, 255, 255, 255, 255, 255, 255
        DC8 255, 255, 255, 255, 255, 255, 255, 255, 255, 255, 255, 255, 255
        DC8 255, 255, 255, 255, 255, 255, 255, 255, 255, 195, 255, 255, 255
        DC8 255, 255, 255, 255, 63, 255, 255, 255, 255, 255, 255, 135, 255, 255
        DC8 255, 255, 255, 255, 255, 255, 255, 255, 255, 255, 255, 255, 255
        DC8 255, 255, 255, 255, 255, 255, 255, 255, 255, 255, 255, 255, 255
        DC8 255, 255, 255, 255, 255, 255, 195, 255, 255, 255, 255, 255, 255
        DC8 255, 63, 255, 255, 255, 255, 255, 255, 135, 255, 255, 255, 255, 255
        DC8 255, 255, 255, 255, 255, 255, 255, 255, 255, 255, 255, 255, 255
        DC8 255, 255, 255, 255, 255, 255, 255, 255, 255, 255, 255, 255, 255
        DC8 255, 255, 255, 195, 255, 255, 255, 255, 255, 255, 255, 63, 255, 255
        DC8 255, 255, 255, 255, 135, 255, 255, 255, 255, 255, 255, 255, 255
        DC8 255, 255, 255, 255, 255, 255, 255, 255, 255, 255, 255, 255, 255
        DC8 255, 255, 255, 255, 255, 255, 255, 255, 255, 255, 255, 255, 255
        DC8 195, 255, 255, 255, 255, 255, 255, 255, 63, 255, 255, 255, 255, 255
        DC8 255, 135, 255, 255, 255, 255, 255, 255, 255, 255, 255, 255, 255
        DC8 255, 255, 255, 255, 255, 255, 255, 255, 255, 255, 255, 255, 255
        DC8 255, 255, 255, 255, 255, 255, 255, 255, 255, 255, 195, 255, 255
        DC8 255, 255, 255, 255, 255, 63, 255, 255, 255, 255, 255, 255, 135, 255
        DC8 255, 255, 255, 255, 255, 255, 255, 255, 255, 255, 255, 255, 255
        DC8 255, 255, 255, 255, 255, 255, 255, 255, 255, 255, 255, 255, 255
        DC8 255, 255, 255, 255, 255, 255, 255, 195, 255, 255, 255, 255, 255
        DC8 255, 243, 51, 255, 255, 255, 255, 255, 255, 135, 255, 255, 255, 255
        DC8 255, 255, 255, 255, 255, 255, 255, 255, 255, 255, 255, 255, 255
        DC8 255, 255, 255, 255, 255, 255, 255, 255, 255, 255, 255, 255, 255
        DC8 255, 255, 255, 255, 195, 255, 255, 255, 255, 255, 255, 241, 35, 255
        DC8 255, 255, 255, 255, 255, 135, 255, 255, 255, 255, 255, 255, 255
        DC8 255, 255, 255, 255, 255, 255, 255, 255, 255, 255, 255, 255, 255
        DC8 255, 255, 255, 255, 255, 255, 255, 255, 255, 255, 255, 255, 255
        DC8 255, 195, 255, 252, 0, 15, 255, 255, 240, 3, 255, 255, 248, 0, 31
        DC8 255, 135, 255, 255, 255, 255, 255, 255, 255, 255, 255, 255, 255
        DC8 255, 255, 255, 255, 255, 255, 255, 255, 255, 255, 255, 255, 255
        DC8 255, 255, 255, 255, 255, 255, 255, 255, 255, 255, 195, 255, 252, 0
        DC8 15, 255, 255, 240, 3, 255, 255, 240, 0, 7, 255, 135, 255, 255, 255
        DC8 255, 255, 255, 255, 255, 255, 255, 255, 255, 255, 255, 255, 255
        DC8 255, 255, 255, 255, 255, 255, 255, 255, 255, 255, 255, 255, 255
        DC8 255, 255, 255, 255, 255, 195, 255, 255, 255, 255, 255, 249, 241
        DC8 227, 231, 255, 241, 255, 131, 255, 135, 255, 255, 255, 255, 255
        DC8 255, 255, 255, 255, 255, 255, 255, 255, 255, 255, 255, 255, 255
        DC8 255, 255, 255, 255, 255, 255, 255, 255, 255, 255, 255, 255, 255
        DC8 255, 255, 255, 195, 255, 255, 255, 255, 255, 248, 241, 227, 199
        DC8 255, 241, 255, 225, 255, 135, 254, 0, 0, 0, 0, 0, 0, 0, 0, 0, 0, 0
        DC8 0, 0, 0, 0, 0, 0, 0, 0, 0, 0, 0, 0, 0, 0, 0, 0, 0, 0, 0, 0, 0, 255
        DC8 195, 255, 252, 0, 1, 255, 248, 3, 240, 7, 252, 0, 0, 112, 255, 135
        DC8 254, 0, 0, 0, 0, 0, 0, 0, 0, 0, 0, 0, 0, 0, 0, 0, 0, 0, 0, 0, 0, 0
        DC8 0, 0, 0, 0, 0, 0, 0, 0, 0, 0, 0, 255, 195, 255, 252, 127, 240, 127
        DC8 248, 3, 240, 7, 252, 127, 252, 120, 127, 135, 254, 0, 0, 0, 0, 0, 0
        DC8 0, 0, 0, 0, 0, 0, 0, 0, 0, 0, 0, 0, 0, 0, 0, 0, 0, 0, 0, 0, 0, 0, 0
        DC8 0, 0, 0, 255, 195, 255, 252, 127, 252, 127, 249, 147, 242, 103, 252
        DC8 255, 248, 124, 127, 135, 254, 0, 0, 0, 0, 0, 0, 0, 0, 0, 0, 0, 0, 0
        DC8 0, 0, 0, 0, 0, 0, 0, 0, 0, 0, 0, 0, 0, 0, 0, 0, 0, 0, 0, 255, 195
        DC8 255, 254, 15, 14, 63, 249, 147, 242, 103, 252, 240, 224, 254, 63
        DC8 135, 254, 0, 0, 0, 0, 0, 0, 0, 0, 0, 0, 0, 0, 0, 0, 0, 0, 0, 0, 0
        DC8 0, 0, 0, 0, 0, 0, 0, 0, 0, 0, 0, 0, 0, 255, 195, 255, 254, 15, 14
        DC8 63, 249, 147, 242, 103, 252, 240, 224, 254, 63, 135, 255, 255, 255
        DC8 255, 255, 255, 255, 255, 255, 255, 255, 255, 255, 255, 255, 255
        DC8 255, 255, 255, 255, 255, 255, 255, 255, 255, 255, 255, 255, 255
        DC8 255, 255, 255, 255, 255, 195, 0, 31, 15, 255, 30, 1, 147, 242, 96
        DC8 28, 31, 227, 255, 63, 135, 255, 255, 255, 255, 255, 255, 255, 255
        DC8 255, 255, 255, 255, 255, 255, 255, 255, 255, 255, 255, 255, 255
        DC8 255, 255, 255, 255, 255, 255, 255, 255, 255, 255, 255, 255, 255
        DC8 195, 0, 15, 15, 248, 30, 1, 147, 242, 96, 30, 15, 231, 255, 63, 135
        DC8 255, 255, 255, 255, 255, 255, 255, 255, 255, 255, 255, 255, 255
        DC8 255, 255, 255, 255, 255, 255, 255, 255, 255, 255, 255, 255, 255
        DC8 255, 255, 255, 255, 255, 255, 255, 255, 195, 63, 135, 15, 240, 30
        DC8 121, 147, 242, 103, 158, 31, 199, 255, 63, 135, 255, 255, 255, 255
        DC8 255, 255, 255, 255, 255, 255, 255, 255, 255, 255, 255, 255, 255
        DC8 255, 255, 255, 255, 255, 255, 255, 255, 255, 255, 255, 255, 255
        DC8 255, 255, 255, 255, 195, 31, 227, 7, 241, 254, 121, 147, 242, 103
        DC8 156, 63, 199, 255, 63, 135, 255, 255, 255, 255, 255, 255, 255, 255
        DC8 255, 255, 255, 255, 255, 255, 255, 255, 255, 255, 255, 255, 255
        DC8 255, 255, 255, 255, 255, 255, 255, 255, 255, 255, 255, 255, 255
        DC8 195, 143, 243, 33, 227, 254, 0, 0, 0, 0, 28, 127, 15, 255, 63, 135
        DC8 254, 0, 15, 248, 31, 3, 224, 127, 128, 63, 252, 15, 224, 120, 31
        DC8 248, 31, 255, 254, 7, 240, 62, 0, 255, 255, 255, 255, 193, 255, 248
        DC8 127, 240, 31, 255, 195, 192, 115, 48, 3, 255, 255, 255, 255, 255
        DC8 252, 0, 31, 255, 63, 135, 254, 0, 3, 248, 31, 3, 224, 126, 0, 15
        DC8 252, 15, 192, 248, 31, 248, 31, 255, 254, 7, 224, 120, 0, 63, 255
        DC8 255, 255, 129, 255, 240, 127, 192, 7, 255, 195, 0, 121, 56, 0, 255
        DC8 255, 255, 255, 255, 252, 0, 63, 255, 63, 135, 254, 0, 1, 248, 31, 3
        DC8 224, 126, 0, 3, 252, 15, 129, 248, 31, 248, 31, 255, 254, 7, 192
        DC8 248, 0, 15, 255, 255, 255, 129, 255, 192, 127, 192, 3, 255, 195, 63
        DC8 249, 63, 224, 127, 255, 255, 255, 255, 255, 131, 255, 254, 63, 135
